///////////////////////////////////////////////////////////////////////////////
//
// IAR ANSI C/C++ Compiler V7.10.1.6676/W32 for ARM       13/Apr/2020  10:56:30
// Copyright 1999-2014 IAR Systems AB.
//
//    Cpu mode     =  thumb
//    Endian       =  little
//    Source file  =  
//        D:\MKS-Robin-Nano-Firmware-v2.x.x\MKS-Robin-Nano-Firmware\User\ui\draw_levelingPara_config.cpp
//    Command line =  
//        D:\MKS-Robin-Nano-Firmware-v2.x.x\MKS-Robin-Nano-Firmware\User\ui\draw_levelingPara_config.cpp
//        -D USE_HAL_DRIVER -D STM32F103xE -D STM32F10X_HD -D USE_HAL_LIB -D
//        MKS_ROBIN_NANO -D TFT35 -lC
//        D:\MKS-Robin-Nano-Firmware-v2.x.x\MKS-Robin-Nano-Firmware\EWARM\mksRobinNano/List\
//        -lA
//        D:\MKS-Robin-Nano-Firmware-v2.x.x\MKS-Robin-Nano-Firmware\EWARM\mksRobinNano/List\
//        --diag_suppress Pa050 -o
//        D:\MKS-Robin-Nano-Firmware-v2.x.x\MKS-Robin-Nano-Firmware\EWARM\mksRobinNano/Obj\
//        --debug --endian=little --cpu=Cortex-M3 -e --char_is_signed
//        --fpu=None --dlib_config "C:\Program Files (x86)\IAR Systems\Embedded
//        Workbench 7.0\arm\INC\c\DLib_Config_Full.h" -I
//        D:\MKS-Robin-Nano-Firmware-v2.x.x\MKS-Robin-Nano-Firmware\EWARM/../Inc\
//        -I
//        D:\MKS-Robin-Nano-Firmware-v2.x.x\MKS-Robin-Nano-Firmware\EWARM/../Src\
//        -I
//        D:\MKS-Robin-Nano-Firmware-v2.x.x\MKS-Robin-Nano-Firmware\EWARM/../Drivers/STM32F1xx_HAL_Driver/Inc\
//        -I
//        D:\MKS-Robin-Nano-Firmware-v2.x.x\MKS-Robin-Nano-Firmware\EWARM/../Drivers/STM32F1xx_HAL_Driver/Inc/Legacy\
//        -I
//        D:\MKS-Robin-Nano-Firmware-v2.x.x\MKS-Robin-Nano-Firmware\EWARM/../Middlewares/Third_Party/FatFs/src/drivers\
//        -I
//        D:\MKS-Robin-Nano-Firmware-v2.x.x\MKS-Robin-Nano-Firmware\EWARM/../Middlewares/ST/STM32_USB_Host_Library/Core/Inc\
//        -I
//        D:\MKS-Robin-Nano-Firmware-v2.x.x\MKS-Robin-Nano-Firmware\EWARM/../Middlewares/ST/STM32_USB_Host_Library/Class/MSC/Inc\
//        -I
//        D:\MKS-Robin-Nano-Firmware-v2.x.x\MKS-Robin-Nano-Firmware\EWARM/../Drivers/CMSIS/Device/ST/STM32F1xx/Include\
//        -I
//        D:\MKS-Robin-Nano-Firmware-v2.x.x\MKS-Robin-Nano-Firmware\EWARM/../Middlewares/Third_Party/FatFs/src\
//        -I
//        D:\MKS-Robin-Nano-Firmware-v2.x.x\MKS-Robin-Nano-Firmware\EWARM/../Middlewares/Third_Party/Marlin\
//        -I
//        D:\MKS-Robin-Nano-Firmware-v2.x.x\MKS-Robin-Nano-Firmware\EWARM/../Drivers/CMSIS/Include\
//        -I
//        D:\MKS-Robin-Nano-Firmware-v2.x.x\MKS-Robin-Nano-Firmware\EWARM/../Drivers/BSP/variant\
//        -I
//        D:\MKS-Robin-Nano-Firmware-v2.x.x\MKS-Robin-Nano-Firmware\EWARM/../Drivers/BSP/Components/at24cxx\
//        -I
//        D:\MKS-Robin-Nano-Firmware-v2.x.x\MKS-Robin-Nano-Firmware\EWARM/../Drivers/BSP/Components/w25qxx\
//        -I
//        D:\MKS-Robin-Nano-Firmware-v2.x.x\MKS-Robin-Nano-Firmware\EWARM/../Drivers/BSP/Components/lcd\
//        -I
//        D:\MKS-Robin-Nano-Firmware-v2.x.x\MKS-Robin-Nano-Firmware\EWARM/../Drivers/STM32F10x_StdPeriph_Driver/inc\
//        -I
//        D:\MKS-Robin-Nano-Firmware-v2.x.x\MKS-Robin-Nano-Firmware\EWARM/../Drivers/libstmf4/include\
//        -I
//        D:\MKS-Robin-Nano-Firmware-v2.x.x\MKS-Robin-Nano-Firmware\EWARM/../Middlewares/arduino/stm32/cores/arduino\
//        -I
//        D:\MKS-Robin-Nano-Firmware-v2.x.x\MKS-Robin-Nano-Firmware\EWARM/../User/ui\
//        -I
//        D:\MKS-Robin-Nano-Firmware-v2.x.x\MKS-Robin-Nano-Firmware\EWARM/../User/ui/Multi_language\
//        -I
//        D:\MKS-Robin-Nano-Firmware-v2.x.x\MKS-Robin-Nano-Firmware\EWARM/../User/ui/QRENCODE\
//        -I
//        D:\MKS-Robin-Nano-Firmware-v2.x.x\MKS-Robin-Nano-Firmware\EWARM\..\Middlewares\GUI\
//        -Oh --eec++ -I "C:\Program Files (x86)\IAR Systems\Embedded Workbench
//        7.0\arm\CMSIS\Include\"
//    List file    =  
//        D:\MKS-Robin-Nano-Firmware-v2.x.x\MKS-Robin-Nano-Firmware\EWARM\mksRobinNano/List\draw_levelingPara_config.s
//
///////////////////////////////////////////////////////////////////////////////

        RTMODEL "__CPP_Language", "EC++"
        RTMODEL "__SystemLibrary", "DLib"
        RTMODEL "__dlib_file_descriptor", "1"
        RTMODEL "__dlib_full_locale_support", "1"
        RTMODEL "__iar_require _Printf", "floats,widths"
        AAPCS BASE,INTERWORK
        PRESERVE8
        REQUIRE8

        #define SHT_PROGBITS 0x1

        EXTERN AT24CXX_Read
        EXTERN BUTTON_CreateEx
        EXTERN BUTTON_SetBitmapEx
        EXTERN BUTTON_SetBkColor
        EXTERN BUTTON_SetBmpFileName
        EXTERN BUTTON_SetText
        EXTERN BUTTON_SetTextAlign
        EXTERN BUTTON_SetTextColor
        EXTERN GUI_Clear
        EXTERN GUI_DispStringAt
        EXTERN GUI_FillRect
        EXTERN GUI_SetBkColor
        EXTERN GUI_SetColor
        EXTERN WM_CreateWindow
        EXTERN WM_DefaultProc
        EXTERN WM_DeleteWindow
        EXTERN WM_IsWindow
        EXTERN _ZN14MarlinSettings4saveEv
        EXTERN __aeabi_f2d
        EXTERN __aeabi_memclr
        EXTERN alloc_win_id
        EXTERN bmp_struct70X28
        EXTERN bmp_struct70X40
        EXTERN bmp_struct90X30
        EXTERN cmd_code
        EXTERN common_menu
        EXTERN disp_state
        EXTERN disp_state_stack
        EXTERN draw_NumberKey
        EXTERN draw_return_ui
        EXTERN epr_write_data
        EXTERN gCfgItems
        EXTERN last_disp_state
        EXTERN machine_menu
        EXTERN mksCfg
        EXTERN sprintf
        EXTERN value
        EXTERN zprobe_zoffset

        PUBLIC Clear_LevelingPara
        PUBLIC _ZTI5Print
        PUBLIC draw_LevelingPara
        
          CFI Names cfiNames0
          CFI StackFrame CFA R13 DATA
          CFI Resource R0:32, R1:32, R2:32, R3:32, R4:32, R5:32, R6:32, R7:32
          CFI Resource R8:32, R9:32, R10:32, R11:32, R12:32, R13:32, R14:32
          CFI EndNames cfiNames0
        
          CFI Common cfiCommon0 Using cfiNames0
          CFI CodeAlign 2
          CFI DataAlign 4
          CFI ReturnAddress R14 CODE
          CFI CFA R13+0
          CFI R0 Undefined
          CFI R1 Undefined
          CFI R2 Undefined
          CFI R3 Undefined
          CFI R4 SameValue
          CFI R5 SameValue
          CFI R6 SameValue
          CFI R7 SameValue
          CFI R8 SameValue
          CFI R9 SameValue
          CFI R10 SameValue
          CFI R11 SameValue
          CFI R12 Undefined
          CFI R14 SameValue
          CFI EndCommon cfiCommon0
        
// D:\MKS-Robin-Nano-Firmware-v2.x.x\MKS-Robin-Nano-Firmware\User\ui\draw_levelingPara_config.cpp
//    1 #include "gui.h"
//    2 #include "button.h"
//    3 #include "draw_ui.h"
//    4 #include "Marlin.h"
//    5 #include "cardreader.h"
//    6 
//    7 #ifndef GUI_FLASH
//    8 #define GUI_FLASH
//    9 #endif
//   10 

        SECTION `.bss`:DATA:REORDER:NOROOT(2)
//   11 static GUI_HWIN hLevelingParaWnd;
//   12 static BUTTON_STRUCT AutoLevelEnable_text,BLtouchEnable_text,ProbePort_text;
//   13 static BUTTON_STRUCT AutoLevelEnable,BLtouchEnable,ProbePort;
//   14 
//   15 static BUTTON_STRUCT ProbeXoffset_text,ProbeYoffset_text,ProbeZoffset_text;
//   16 static BUTTON_STRUCT ProbeXYSpeed_text,ProbeZSpeed_text;
//   17 static BUTTON_STRUCT ProbeXoffset_value,ProbeYoffset_value,ProbeZoffset_value;
//   18 static BUTTON_STRUCT ProbeXYSpeed_value,ProbeZSpeed_value;
//   19 static BUTTON_STRUCT ProbeXoffset_default,ProbeYoffset_default,ProbeZoffset_default;
//   20 static BUTTON_STRUCT ProbeXYSpeed_default,ProbeZSpeed_default;
//   21 
//   22 static BUTTON_STRUCT button_next,button_previous,button_back;
//   23 
//   24 static uint8_t current_page;//0:上一页，1:下一页
current_page:
        DS8 1
        DS8 1
        DS8 2
        DS8 24
        DS8 24

        SECTION `.bss`:DATA:REORDER:NOROOT(2)
AutoLevelEnable_text:
        DS8 24
        DS8 24
        DS8 24
        DS8 24
        DS8 24
        DS8 24
        DS8 24
        DS8 24

        SECTION `.bss`:DATA:REORDER:NOROOT(2)
ProbePort:
        DS8 24
        DS8 24

        SECTION `.bss`:DATA:REORDER:NOROOT(2)
ProbeYoffset_value:
        DS8 24
        DS8 24

        SECTION `.bss`:DATA:REORDER:NOROOT(2)
ProbeXYSpeed_value:
        DS8 24
        DS8 24

        SECTION `.bss`:DATA:REORDER:NOROOT(2)
ProbeXoffset_default:
        DS8 24
        DS8 24

        SECTION `.bss`:DATA:REORDER:NOROOT(2)
ProbeZoffset_default:
        DS8 24
        DS8 24

        SECTION `.bss`:DATA:REORDER:NOROOT(2)
ProbeZSpeed_default:
        DS8 24
        DS8 24

        SECTION `.bss`:DATA:REORDER:NOROOT(2)
button_previous:
        DS8 24
        DS8 24
//   25 
//   26 inline void gcode_M500() {
//   27   (void)settings.save();
//   28 }
//   29 
//   30 static void btnHandle_rest()
//   31 {
//   32     AutoLevelEnable_text.btnHandle = 0;
//   33     BLtouchEnable_text.btnHandle = 0;
//   34     ProbePort_text.btnHandle = 0;
//   35     AutoLevelEnable.btnHandle = 0;
//   36     BLtouchEnable.btnHandle = 0;
//   37     ProbePort.btnHandle = 0;
//   38     ProbeXoffset_text.btnHandle = 0;
//   39     ProbeYoffset_text.btnHandle = 0;
//   40     ProbeZoffset_text.btnHandle = 0;
//   41     ProbeXYSpeed_text.btnHandle = 0;   
//   42     ProbeZSpeed_text.btnHandle = 0;
//   43     ProbeXoffset_value.btnHandle = 0;
//   44     ProbeYoffset_value.btnHandle = 0;   
//   45     ProbeZoffset_value.btnHandle = 0;
//   46     ProbeXYSpeed_value.btnHandle = 0;    
//   47     ProbeZSpeed_value.btnHandle = 0;   
//   48     ProbeXoffset_default.btnHandle = 0;
//   49     ProbeYoffset_default.btnHandle = 0;
//   50     ProbeZoffset_default.btnHandle = 0;
//   51     button_previous.btnHandle = 0;
//   52     button_next.btnHandle = 0;
//   53     button_back.btnHandle = 0;
//   54 }
//   55 

        SECTION `.text`:CODE:NOROOT(1)
          CFI Block cfiBlock0 Using cfiCommon0
          CFI Function _Z17cbLevelingParaWinP10WM_MESSAGE
        THUMB
//   56 static void cbLevelingParaWin(WM_MESSAGE * pMsg) {
//   57 
//   58     struct PressEvt *press_event;
//   59     switch (pMsg->MsgId)
_Z17cbLevelingParaWinP10WM_MESSAGE:
        LDR      R1,[R0, #+0]
        CMP      R1,#+12
        BNE.N    ??cbLevelingParaWin_0
        BX       LR
??cbLevelingParaWin_0:
        PUSH     {R2-R8,LR}
          CFI R14 Frame(CFA, -4)
          CFI R8 Frame(CFA, -8)
          CFI R7 Frame(CFA, -12)
          CFI R6 Frame(CFA, -16)
          CFI R5 Frame(CFA, -20)
          CFI R4 Frame(CFA, -24)
          CFI CFA R13+32
        CMP      R1,#+13
        BEQ.W    ??cbLevelingParaWin_1
        CMP      R1,#+15
        BEQ.N    ??cbLevelingParaWin_2
        CMP      R1,#+38
        BEQ.N    ??cbLevelingParaWin_3
        B.N      ??cbLevelingParaWin_4
//   60     {
//   61     	case WM_PAINT:
//   62 			GUI_SetColor(0xff5449);
??cbLevelingParaWin_2:
        LDR.W    R0,??DataTable8  ;; 0xff5449
          CFI FunCall GUI_SetColor
        BL       GUI_SetColor
//   63 
//   64 			GUI_FillRect(10, 90, 470,90);
        MOVS     R3,#+90
        MOV      R2,#+470
        MOVS     R1,#+90
        MOVS     R0,#+10
          CFI FunCall GUI_FillRect
        BL       GUI_FillRect
//   65             GUI_FillRect(10, 140, 470,140);
        MOVS     R3,#+140
        MOV      R2,#+470
        MOV      R1,R3
        MOVS     R0,#+10
          CFI FunCall GUI_FillRect
        BL       GUI_FillRect
//   66             GUI_FillRect(10, 190, 470,190);
        MOVS     R3,#+190
        MOV      R2,#+470
        MOV      R1,R3
        MOVS     R0,#+10
          CFI FunCall GUI_FillRect
        BL       GUI_FillRect
//   67             GUI_FillRect(10, 240, 470,240);
        ADD      SP,SP,#+8
          CFI CFA R13+24
        POP      {R4-R8,LR}
          CFI R4 SameValue
          CFI R5 SameValue
          CFI R6 SameValue
          CFI R7 SameValue
          CFI R8 SameValue
          CFI R14 SameValue
          CFI CFA R13+0
        MOVS     R3,#+240
        MOV      R2,#+470
        MOV      R1,R3
        MOVS     R0,#+10
          CFI FunCall GUI_FillRect
        B.W      GUI_FillRect
          CFI R4 Frame(CFA, -24)
          CFI R5 Frame(CFA, -20)
          CFI R6 Frame(CFA, -16)
          CFI R7 Frame(CFA, -12)
          CFI R8 Frame(CFA, -8)
          CFI R14 Frame(CFA, -4)
          CFI CFA R13+32
//   68             
//   69     		break;
//   70     	case WM_TOUCH:
//   71     	 	press_event = (struct PressEvt *)pMsg->Data.p;
//   72     		
//   73     		break;
//   74     	case WM_TOUCH_CHILD:
//   75     		press_event = (struct PressEvt *)pMsg->Data.p;
//   76 
//   77     		break;
//   78     		
//   79     	case WM_NOTIFY_PARENT:
//   80     		if(pMsg->Data.v == WM_NOTIFICATION_RELEASED)
??cbLevelingParaWin_3:
        LDR      R1,[R0, #+8]
        CMP      R1,#+2
        BNE.W    ??cbLevelingParaWin_1
//   81     		{
//   82     			if(pMsg->hWinSrc == button_back.btnHandle)
        LDRSH    R1,[R0, #+6]
        LDR.W    R0,??draw_LevelingPara_0
        LDR.W    R6,??draw_LevelingPara_0+0x4
        LDRSH    R2,[R0, #+24]
        CMP      R1,R2
        BNE.N    ??cbLevelingParaWin_5
//   83     			{
//   84     			    current_page = 0;
        MOVS     R0,#+0
        STRB     R0,[R6, #+0]
//   85     				last_disp_state = LEVELING_PARA_UI;
        MOVS     R0,#+47
        LDR.W    R1,??DataTable8_1
        STRB     R0,[R1, #+0]
//   86     				Clear_LevelingPara();
        LDR.W    R0,??DataTable8_2
        LDR      R0,[R0, #+20]
          CFI FunCall GUI_SetBkColor
        BL       GUI_SetBkColor
        LDRSH    R0,[R6, #+2]
          CFI FunCall WM_IsWindow
        BL       WM_IsWindow
        CBZ.N    R0,??cbLevelingParaWin_6
        LDRSH    R0,[R6, #+2]
          CFI FunCall WM_DeleteWindow
        BL       WM_DeleteWindow
//   87     				draw_return_ui();
??cbLevelingParaWin_6:
        POP      {R0,R1,R4-R8,LR}
          CFI R4 SameValue
          CFI R5 SameValue
          CFI R6 SameValue
          CFI R7 SameValue
          CFI R8 SameValue
          CFI R14 SameValue
          CFI CFA R13+0
          CFI FunCall draw_return_ui
        B.W      draw_return_ui
          CFI R4 Frame(CFA, -24)
          CFI R5 Frame(CFA, -20)
          CFI R6 Frame(CFA, -16)
          CFI R7 Frame(CFA, -12)
          CFI R8 Frame(CFA, -8)
          CFI R14 Frame(CFA, -4)
          CFI CFA R13+32
//   88     			}	
//   89                 else if(pMsg->hWinSrc == button_next.btnHandle)
??cbLevelingParaWin_5:
        LDR.W    R8,??draw_LevelingPara_0+0x8
        LDRSH    R2,[R8, #+24]
        CMP      R1,R2
        IT       EQ 
//   90                 {
//   91                     current_page = 1;
        MOVEQ    R0,#+1
        BEQ.N    ??cbLevelingParaWin_7
//   92                     last_disp_state = LEVELING_PARA_UI;
//   93                     Clear_LevelingPara();
//   94                     draw_LevelingPara();
//   95                 }
//   96                 else if(pMsg->hWinSrc == button_previous.btnHandle)
        LDRSH    R0,[R0, #+0]
        CMP      R1,R0
        BNE.N    ??cbLevelingParaWin_8
//   97                 {
//   98                     current_page = 0;
        MOVS     R0,#+0
??cbLevelingParaWin_7:
        STRB     R0,[R6, #+0]
//   99                     last_disp_state = LEVELING_PARA_UI;
        MOVS     R0,#+47
        LDR.W    R1,??DataTable8_1
        STRB     R0,[R1, #+0]
//  100                     Clear_LevelingPara();
        LDR.W    R0,??DataTable8_2
        LDR      R0,[R0, #+20]
          CFI FunCall GUI_SetBkColor
        BL       GUI_SetBkColor
        LDRSH    R0,[R6, #+2]
          CFI FunCall WM_IsWindow
        BL       WM_IsWindow
        CBZ.N    R0,??cbLevelingParaWin_9
        LDRSH    R0,[R6, #+2]
          CFI FunCall WM_DeleteWindow
        BL       WM_DeleteWindow
//  101                     draw_LevelingPara();
??cbLevelingParaWin_9:
        POP      {R0,R1,R4-R8,LR}
          CFI R4 SameValue
          CFI R5 SameValue
          CFI R6 SameValue
          CFI R7 SameValue
          CFI R8 SameValue
          CFI R14 SameValue
          CFI CFA R13+0
          CFI FunCall draw_LevelingPara
        B.N      draw_LevelingPara
          CFI R4 Frame(CFA, -24)
          CFI R5 Frame(CFA, -20)
          CFI R6 Frame(CFA, -16)
          CFI R7 Frame(CFA, -12)
          CFI R8 Frame(CFA, -8)
          CFI R14 Frame(CFA, -4)
          CFI CFA R13+32
//  102                 }                
//  103     			else if(pMsg->hWinSrc == AutoLevelEnable.btnHandle)
??cbLevelingParaWin_8:
        LDRSH    R0,[R6, #+4]
        CMP      R1,R0
        BNE.N    ??cbLevelingParaWin_10
//  104     			{
//  105     			//读取配置文件中的mksCfg.bed_leveling_method值为0,3,5
//  106     			//然后上面3个值中的1个写入eeprom
//  107     			//然后mksCfg.bed_leveling_method=1<<mksCfg.bed_leveling_method;
//  108     			//不使能自动调平,mksCfg.bed_leveling_method=NULL_BED_LEVELING;
//  109                     if(mksCfg.bed_leveling_method == 8)
        LDR.W    R5,??draw_LevelingPara_0+0xC
        LDR.W    R4,??DataTable8_2
        ADDW     R7,R5,#+59
        LDRB     R1,[R7, #+7]
        CMP      R1,#+8
        BNE.N    ??cbLevelingParaWin_11
//  110                     {
//  111                         mksCfg.bed_leveling_method=0;
        MOVS     R1,#+0
        STRB     R1,[R7, #+7]
//  112 				gCfgItems.leveling_mode = 0;
        STRB     R1,[R4, #+268]
//  113                         BUTTON_SetBmpFileName(AutoLevelEnable.btnHandle, "bmp_disable.bin",1);
        MOVS     R2,#+1
        LDR.W    R1,??DataTable8_3
          CFI FunCall BUTTON_SetBmpFileName
        BL       BUTTON_SetBmpFileName
//  114                         if(gCfgItems.multiple_language != 0)
        LDRB     R0,[R4, #+463]
        CBZ.N    R0,??cbLevelingParaWin_12
//  115                             BUTTON_SetText(AutoLevelEnable.btnHandle,machine_menu.disable);
        LDR.W    R0,??DataTable8_4
        LDR      R1,[R0, #+4]
        B.N      ??cbLevelingParaWin_13
//  116 	
//  117                     }
//  118                     else
//  119                     {
//  120                         mksCfg.bed_leveling_method=3;
??cbLevelingParaWin_11:
        MOVS     R1,#+3
        STRB     R1,[R7, #+7]
        MOVS     R2,#+1
//  121 			    gCfgItems.leveling_mode = 1;
        MOVS     R1,#+1
        STRB     R1,[R4, #+268]
//  122                         BUTTON_SetBmpFileName(AutoLevelEnable.btnHandle, "bmp_enable.bin",1);
        LDR.W    R1,??DataTable8_5
          CFI FunCall BUTTON_SetBmpFileName
        BL       BUTTON_SetBmpFileName
//  123                         if(gCfgItems.multiple_language != 0)
        LDRB     R0,[R4, #+463]
        CBZ.N    R0,??cbLevelingParaWin_12
//  124                             BUTTON_SetText(AutoLevelEnable.btnHandle,machine_menu.enable);                        
        LDR.W    R0,??DataTable8_6
        LDR      R1,[R0, #+232]
??cbLevelingParaWin_13:
        LDRSH    R0,[R6, #+4]
          CFI FunCall BUTTON_SetText
        BL       BUTTON_SetText
//  125                     }
//  126                     epr_write_data(EPR_BED_LEVELING_METHOD,&mksCfg.bed_leveling_method,1);
??cbLevelingParaWin_12:
        MOVS     R2,#+1
        ADD      R1,R5,#+66
        MOVW     R0,#+1516
          CFI FunCall epr_write_data
        BL       epr_write_data
//  127 			//写入eeprom后左移mksCfg.bed_leveling_method位
//  128 			////(1<<3)=8 ;(1<<5)=32
//  129 			mksCfg.bed_leveling_method = (1<<mksCfg.bed_leveling_method);
        LDRSB    R1,[R7, #+7]
        MOVS     R0,#+1
        LSLS     R0,R0,R1
        STRB     R0,[R7, #+7]
//  130 			epr_write_data(EPR_LEVELING_MODE,(uint8_t *)&gCfgItems.leveling_mode,sizeof(gCfgItems.leveling_mode));
        MOVS     R2,#+1
        ADD      R1,R4,#+268
        MOVW     R0,#+1804
        B.N      ??cbLevelingParaWin_14
//  131     				
//  132     			}
//  133     			else if(pMsg->hWinSrc == BLtouchEnable.btnHandle)
??cbLevelingParaWin_10:
        LDRSH    R0,[R6, #+28]
        CMP      R1,R0
        BNE.N    ??cbLevelingParaWin_15
//  134     			{
//  135                     if(mksCfg.mkstouch==1)
        LDR.W    R5,??draw_LevelingPara_0+0xC
        LDR.W    R4,??DataTable8_2
        LDRB     R1,[R5, #+256]
        CMP      R1,#+1
        BNE.N    ??cbLevelingParaWin_16
//  136                     {
//  137                         mksCfg.mkstouch=0;
        MOVS     R1,#+0
        STRB     R1,[R5, #+256]
//  138                         BUTTON_SetBmpFileName(BLtouchEnable.btnHandle, "bmp_disable.bin",1);
        MOVS     R2,#+1
        LDR.W    R1,??DataTable8_3
          CFI FunCall BUTTON_SetBmpFileName
        BL       BUTTON_SetBmpFileName
//  139                         if(gCfgItems.multiple_language != 0)
        LDRB     R0,[R4, #+463]
        CBZ.N    R0,??cbLevelingParaWin_17
//  140                             BUTTON_SetText(BLtouchEnable.btnHandle,machine_menu.disable);
        LDR.N    R0,??DataTable8_4
        LDR      R1,[R0, #+4]
        LDRSH    R0,[R6, #+28]
          CFI FunCall BUTTON_SetText
        BL       BUTTON_SetText
        B.N      ??cbLevelingParaWin_17
//  141                     }
//  142                     else
//  143                     {
//  144                         mksCfg.mkstouch=1;
??cbLevelingParaWin_16:
        MOVS     R1,#+1
        STRB     R1,[R5, #+256]
//  145                         BUTTON_SetBmpFileName(BLtouchEnable.btnHandle, "bmp_enable.bin",1);
        MOVS     R2,#+1
        LDR.N    R1,??DataTable8_5
          CFI FunCall BUTTON_SetBmpFileName
        BL       BUTTON_SetBmpFileName
//  146                         if(gCfgItems.multiple_language != 0)
        LDRB     R0,[R4, #+463]
        CBZ.N    R0,??cbLevelingParaWin_18
//  147                             BUTTON_SetText(BLtouchEnable.btnHandle,machine_menu.enable);     
        LDR.N    R0,??DataTable8_6
        LDR      R1,[R0, #+232]
        LDRSH    R0,[R6, #+28]
          CFI FunCall BUTTON_SetText
        BL       BUTTON_SetText
//  148 
//  149 			       if(mksCfg.mkstouch ==1 && mksCfg.bed_leveling_method != NULL_BED_LEVELING)
??cbLevelingParaWin_18:
        LDRB     R0,[R5, #+256]
        CMP      R0,#+1
        BNE.N    ??cbLevelingParaWin_17
        ADDW     R7,R5,#+59
        LDRB     R0,[R7, #+7]
        CMP      R0,#+1
        BEQ.N    ??cbLevelingParaWin_17
//  150 				{
//  151 					mksCfg.z_min_probe_endstop_inverting = 0;
        MOVS     R0,#+0
        STRB     R0,[R7, #+4]
        LDRB     R0,[R5, #+153]
        CMP      R0,#+1
        BNE.N    ??cbLevelingParaWin_19
//  152 					if(mksCfg.z_min_probe_pin_mode == 1)	//ZMIN
//  153 						mksCfg.z_min_endstop_inverting = 0;
        MOVS     R0,#+0
        STRB     R0,[R5, #+59]
        B.N      ??cbLevelingParaWin_17
//  154 					else if(mksCfg.z_min_probe_pin_mode == 2)	//ZMAX	
??cbLevelingParaWin_19:
        CMP      R0,#+2
        ITT      EQ 
//  155 						mksCfg.z_max_endstop_inverting = 0;
        MOVEQ    R0,#+0
        STRBEQ   R0,[R7, #+3]
//  156 				}
//  157                     }
//  158                     epr_write_data(EPR_MKSTOUCH,&mksCfg.mkstouch,1);
??cbLevelingParaWin_17:
        MOVS     R2,#+1
        ADD      R1,R5,#+256
        MOVW     R0,#+1689
        B.N      ??cbLevelingParaWin_14
//  159 
//  160     				
//  161     			}
//  162     			else if(pMsg->hWinSrc == ProbePort.btnHandle)
??cbLevelingParaWin_15:
        LDR.W    R7,??draw_LevelingPara_0+0x10
        LDRSH    R0,[R7, #+0]
        CMP      R1,R0
        BNE.N    ??cbLevelingParaWin_20
//  163     			{
//  164                     if(mksCfg.z_min_probe_pin_mode==1)
        LDR.W    R5,??draw_LevelingPara_0+0xC
        LDR.N    R4,??DataTable8_2
        LDRB     R1,[R5, #+153]
        CMP      R1,#+1
        BNE.N    ??cbLevelingParaWin_21
//  165                     {
//  166                         mksCfg.z_min_probe_pin_mode=2;
        MOVS     R1,#+2
        STRB     R1,[R5, #+153]
//  167                         BUTTON_SetBmpFileName(ProbePort.btnHandle, "bmp_enable.bin",1);
        MOVS     R2,#+1
        LDR.N    R1,??DataTable8_5
          CFI FunCall BUTTON_SetBmpFileName
        BL       BUTTON_SetBmpFileName
//  168                         if(gCfgItems.multiple_language != 0)
        LDRB     R0,[R4, #+463]
        CBZ.N    R0,??cbLevelingParaWin_22
//  169                             BUTTON_SetText(ProbePort.btnHandle,machine_menu.z_max);
        LDR.N    R0,??DataTable8_4
        LDR      R1,[R0, #+12]
        B.N      ??cbLevelingParaWin_23
//  170                     }
//  171                     else
//  172                     {
//  173                         mksCfg.z_min_probe_pin_mode=1;
??cbLevelingParaWin_21:
        MOVS     R1,#+1
        STRB     R1,[R5, #+153]
//  174                         BUTTON_SetBmpFileName(ProbePort.btnHandle, "bmp_disable.bin",1);
        MOVS     R2,#+1
        LDR.N    R1,??DataTable8_3
          CFI FunCall BUTTON_SetBmpFileName
        BL       BUTTON_SetBmpFileName
//  175                         if(gCfgItems.multiple_language != 0)
        LDRB     R0,[R4, #+463]
        CBZ.N    R0,??cbLevelingParaWin_22
//  176                             BUTTON_SetText(ProbePort.btnHandle,machine_menu.z_min);                        
        LDR.N    R0,??DataTable8_4
        LDR      R1,[R0, #+8]
??cbLevelingParaWin_23:
        LDRSH    R0,[R7, #+0]
          CFI FunCall BUTTON_SetText
        BL       BUTTON_SetText
//  177                     }
//  178                     epr_write_data(EPR_Z_MIN_PROBE_PIN_MODE,&mksCfg.z_min_probe_pin_mode,1);
??cbLevelingParaWin_22:
        MOVS     R2,#+1
        ADD      R1,R5,#+153
        MOVW     R0,#+1598
        B.N      ??cbLevelingParaWin_14
//  179 
//  180                 
//  181                     
//  182     			}       
//  183     			else if(pMsg->hWinSrc == ProbeXoffset_value.btnHandle)
??cbLevelingParaWin_20:
        LDRSH    R0,[R7, #+24]
        CMP      R1,R0
        BNE.N    ??cbLevelingParaWin_24
//  184     			{
//  185     				last_disp_state = LEVELING_PARA_UI;
        LDR.N    R1,??DataTable8_1
        MOVS     R0,#+47
        STRB     R0,[R1, #+0]
//  186     				Clear_LevelingPara();
        LDR.N    R0,??DataTable8_2
        LDR      R0,[R0, #+20]
          CFI FunCall GUI_SetBkColor
        BL       GUI_SetBkColor
        LDRSH    R0,[R6, #+2]
          CFI FunCall WM_IsWindow
        BL       WM_IsWindow
        CBZ.N    R0,??cbLevelingParaWin_25
        LDRSH    R0,[R6, #+2]
          CFI FunCall WM_DeleteWindow
        BL       WM_DeleteWindow
//  187                     value=xoffset;
??cbLevelingParaWin_25:
        MOVS     R0,#+12
        B.N      ??cbLevelingParaWin_26
//  188                     draw_NumberKey();                   
//  189 
//  190     			}
//  191     			else if(pMsg->hWinSrc == ProbeYoffset_value.btnHandle)
??cbLevelingParaWin_24:
        LDR.W    R4,??draw_LevelingPara_1
        LDRSH    R0,[R4, #+0]
        CMP      R1,R0
        BNE.N    ??cbLevelingParaWin_27
//  192     			{
//  193     				last_disp_state = LEVELING_PARA_UI;
        LDR.N    R1,??DataTable8_1
        MOVS     R0,#+47
        STRB     R0,[R1, #+0]
//  194     				Clear_LevelingPara();
        LDR.N    R0,??DataTable8_2
        LDR      R0,[R0, #+20]
          CFI FunCall GUI_SetBkColor
        BL       GUI_SetBkColor
        LDRSH    R0,[R6, #+2]
          CFI FunCall WM_IsWindow
        BL       WM_IsWindow
        CBZ.N    R0,??cbLevelingParaWin_28
        LDRSH    R0,[R6, #+2]
          CFI FunCall WM_DeleteWindow
        BL       WM_DeleteWindow
//  195                     value=yoffset;
??cbLevelingParaWin_28:
        MOVS     R0,#+13
        B.N      ??cbLevelingParaWin_26
//  196                     draw_NumberKey();
//  197 
//  198     			}  
//  199     			else if(pMsg->hWinSrc == ProbeZoffset_value.btnHandle)
??cbLevelingParaWin_27:
        LDRSH    R0,[R4, #+24]
        CMP      R1,R0
        BNE.N    ??cbLevelingParaWin_29
//  200     			{
//  201     				last_disp_state = LEVELING_PARA_UI;
        LDR.N    R1,??DataTable8_1
        MOVS     R0,#+47
        STRB     R0,[R1, #+0]
//  202     				Clear_LevelingPara();
        LDR.N    R0,??DataTable8_2
        LDR      R0,[R0, #+20]
          CFI FunCall GUI_SetBkColor
        BL       GUI_SetBkColor
        LDRSH    R0,[R6, #+2]
          CFI FunCall WM_IsWindow
        BL       WM_IsWindow
        CBZ.N    R0,??cbLevelingParaWin_30
        LDRSH    R0,[R6, #+2]
          CFI FunCall WM_DeleteWindow
        BL       WM_DeleteWindow
//  203                     value=zoffset;
??cbLevelingParaWin_30:
        MOVS     R0,#+14
        B.N      ??cbLevelingParaWin_26
//  204                     draw_NumberKey();
//  205 
//  206     			} 
//  207     			else if(pMsg->hWinSrc == ProbeXYSpeed_value.btnHandle)
??cbLevelingParaWin_29:
        LDR.W    R0,??draw_LevelingPara_1+0x4
        LDRSH    R2,[R0, #+0]
        CMP      R1,R2
        BNE.N    ??cbLevelingParaWin_31
//  208     			{
//  209     				last_disp_state = LEVELING_PARA_UI;
        LDR.N    R1,??DataTable8_1
        MOVS     R0,#+47
        STRB     R0,[R1, #+0]
//  210     				Clear_LevelingPara();
        LDR.N    R0,??DataTable8_2
        LDR      R0,[R0, #+20]
          CFI FunCall GUI_SetBkColor
        BL       GUI_SetBkColor
        LDRSH    R0,[R6, #+2]
          CFI FunCall WM_IsWindow
        BL       WM_IsWindow
        CBZ.N    R0,??cbLevelingParaWin_32
        LDRSH    R0,[R6, #+2]
          CFI FunCall WM_DeleteWindow
        BL       WM_DeleteWindow
//  211                     value=xyspeed;
??cbLevelingParaWin_32:
        MOVS     R0,#+15
        B.N      ??cbLevelingParaWin_26
//  212                     draw_NumberKey();
//  213 
//  214     			}  
//  215     			else if(pMsg->hWinSrc == ProbeZSpeed_value.btnHandle)
??cbLevelingParaWin_31:
        LDRSH    R0,[R0, #+24]
        CMP      R1,R0
        BNE.N    ??cbLevelingParaWin_33
//  216     			{
//  217     				last_disp_state = LEVELING_PARA_UI;
        LDR.N    R1,??DataTable8_1
        MOVS     R0,#+47
        STRB     R0,[R1, #+0]
//  218     				Clear_LevelingPara();
        LDR.N    R0,??DataTable8_2
        LDR      R0,[R0, #+20]
          CFI FunCall GUI_SetBkColor
        BL       GUI_SetBkColor
        LDRSH    R0,[R6, #+2]
          CFI FunCall WM_IsWindow
        BL       WM_IsWindow
        CBZ.N    R0,??cbLevelingParaWin_34
        LDRSH    R0,[R6, #+2]
          CFI FunCall WM_DeleteWindow
        BL       WM_DeleteWindow
//  219                     value=zspeed;
??cbLevelingParaWin_34:
        MOVS     R0,#+16
??cbLevelingParaWin_26:
        LDR.N    R1,??DataTable8_7
        STRB     R0,[R1, #+0]
//  220                     draw_NumberKey();
        POP      {R0,R1,R4-R8,LR}
          CFI R4 SameValue
          CFI R5 SameValue
          CFI R6 SameValue
          CFI R7 SameValue
          CFI R8 SameValue
          CFI R14 SameValue
          CFI CFA R13+0
          CFI FunCall draw_NumberKey
        B.W      draw_NumberKey
          CFI R4 Frame(CFA, -24)
          CFI R5 Frame(CFA, -20)
          CFI R6 Frame(CFA, -16)
          CFI R7 Frame(CFA, -12)
          CFI R8 Frame(CFA, -8)
          CFI R14 Frame(CFA, -4)
          CFI CFA R13+32
//  221 
//  222     			} 
//  223     			else if(pMsg->hWinSrc == ProbeXoffset_default.btnHandle)
??cbLevelingParaWin_33:
        LDR.W    R0,??DataTable9
        LDRSH    R2,[R0, #+0]
        CMP      R1,R2
        BNE.N    ??cbLevelingParaWin_35
//  224     			{
//  225     			    mksCfg.x_probe_offset_from_extruder = 0;
        LDR.W    R5,??draw_LevelingPara_0+0xC
//  226                     memset(cmd_code,0,sizeof(cmd_code));
        LDR.W    R6,??DataTable9_1
        MOVS     R0,#+0
        STR      R0,[R5, #+108]
        MOVS     R1,#+201
        MOV      R0,R6
          CFI FunCall __aeabi_memclr
        BL       __aeabi_memclr
//  227                     sprintf(cmd_code,"%.1f",mksCfg.x_probe_offset_from_extruder);
        LDR      R0,[R5, #+108]
          CFI FunCall __aeabi_f2d
        BL       __aeabi_f2d
        MOV      R2,R0
        MOV      R3,R1
        LDR.W    R1,??DataTable10
        MOV      R0,R6
          CFI FunCall sprintf
        BL       sprintf
//  228                     BUTTON_SetText(ProbeXoffset_value.btnHandle,cmd_code);
        LDRSH    R0,[R7, #+24]
        MOV      R1,R6
          CFI FunCall BUTTON_SetText
        BL       BUTTON_SetText
//  229                     epr_write_data(EPR_X_PROBE_OFFSET_FROM_EXTRUDER, (uint8_t *)&mksCfg.x_probe_offset_from_extruder,sizeof(float));
        MOVS     R2,#+4
        ADD      R1,R5,#+108
        MOVW     R0,#+1555
        B.N      ??cbLevelingParaWin_14
//  230                     
//  231     			}   
//  232     			else if(pMsg->hWinSrc == ProbeYoffset_default.btnHandle)
??cbLevelingParaWin_35:
        LDRSH    R0,[R0, #+24]
        CMP      R1,R0
        BNE.N    ??cbLevelingParaWin_36
//  233     			{
//  234     			    mksCfg.y_probe_offset_from_extruder = 0;
        LDR.W    R5,??draw_LevelingPara_0+0xC
//  235                     memset(cmd_code,0,sizeof(cmd_code));
        LDR.W    R6,??DataTable9_1
        ADD      R7,R5,#+108
        MOVS     R0,#+0
        STR      R0,[R7, #+4]
        MOVS     R1,#+201
        MOV      R0,R6
          CFI FunCall __aeabi_memclr
        BL       __aeabi_memclr
//  236                     sprintf(cmd_code,"%.1f",mksCfg.y_probe_offset_from_extruder);
        LDR      R0,[R7, #+4]
          CFI FunCall __aeabi_f2d
        BL       __aeabi_f2d
        MOV      R2,R0
        MOV      R3,R1
        LDR.W    R1,??DataTable10
        MOV      R0,R6
          CFI FunCall sprintf
        BL       sprintf
//  237                     BUTTON_SetText(ProbeYoffset_value.btnHandle,cmd_code);
        LDRSH    R0,[R4, #+0]
        MOV      R1,R6
          CFI FunCall BUTTON_SetText
        BL       BUTTON_SetText
//  238                     epr_write_data(EPR_Y_PROBE_OFFSET_FROM_EXTRUDER, (uint8_t *)&mksCfg.y_probe_offset_from_extruder,sizeof(float));
        MOVS     R2,#+4
        ADD      R1,R5,#+112
        MOVW     R0,#+1559
        B.N      ??cbLevelingParaWin_14
//  239 
//  240 
//  241     			}  
//  242     			else if(pMsg->hWinSrc == ProbeZoffset_default.btnHandle)
??cbLevelingParaWin_36:
        LDR.W    R7,??DataTable10_1
        LDRSH    R0,[R7, #+0]
        CMP      R1,R0
        BNE.N    ??cbLevelingParaWin_37
//  243     			{
//  244     			    zprobe_zoffset = 0;
        LDR.W    R5,??DataTable10_2
//  245                     memset(cmd_code,0,sizeof(cmd_code));
        LDR.W    R6,??DataTable9_1
        MOVS     R0,#+0
        STR      R0,[R5, #+0]
        MOVS     R1,#+201
        MOV      R0,R6
          CFI FunCall __aeabi_memclr
        BL       __aeabi_memclr
//  246                     sprintf(cmd_code,"%.1f",zprobe_zoffset);
        LDR      R0,[R5, #+0]
          CFI FunCall __aeabi_f2d
        BL       __aeabi_f2d
        MOV      R2,R0
        MOV      R3,R1
        LDR.W    R1,??DataTable10
        MOV      R0,R6
          CFI FunCall sprintf
        BL       sprintf
//  247                     BUTTON_SetText(ProbeZoffset_value.btnHandle,cmd_code);
        LDRSH    R0,[R4, #+24]
        MOV      R1,R6
          CFI FunCall BUTTON_SetText
        BL       BUTTON_SetText
//  248                     gcode_M500();	//保存参数
        POP      {R0,R1,R4-R8,LR}
          CFI R4 SameValue
          CFI R5 SameValue
          CFI R6 SameValue
          CFI R7 SameValue
          CFI R8 SameValue
          CFI R14 SameValue
          CFI CFA R13+0
          CFI FunCall _ZN14MarlinSettings4saveEv
        B.W      _ZN14MarlinSettings4saveEv
          CFI R4 Frame(CFA, -24)
          CFI R5 Frame(CFA, -20)
          CFI R6 Frame(CFA, -16)
          CFI R7 Frame(CFA, -12)
          CFI R8 Frame(CFA, -8)
          CFI R14 Frame(CFA, -4)
          CFI CFA R13+32
//  249     			} 
//  250     			else if(pMsg->hWinSrc == ProbeXYSpeed_default.btnHandle)
??cbLevelingParaWin_37:
        LDRSH    R0,[R7, #+24]
        CMP      R1,R0
        BNE.N    ??cbLevelingParaWin_38
//  251     			{
//  252     			    mksCfg.xy_probe_speed = 4000;
        LDR.W    R5,??draw_LevelingPara_0+0xC
        LDR.W    R0,??DataTable10_3  ;; 0x457a0000
//  253                     memset(cmd_code,0,sizeof(cmd_code));
        LDR.W    R6,??DataTable9_1
        ADD      R4,R5,#+108
        MOVS     R1,#+201
        STR      R0,[R4, #+8]
        MOV      R0,R6
          CFI FunCall __aeabi_memclr
        BL       __aeabi_memclr
//  254                     sprintf(cmd_code,"%.1f",mksCfg.xy_probe_speed);
        LDR      R0,[R4, #+8]
          CFI FunCall __aeabi_f2d
        BL       __aeabi_f2d
        MOV      R2,R0
        MOV      R3,R1
        LDR.W    R1,??DataTable10
        MOV      R0,R6
          CFI FunCall sprintf
        BL       sprintf
//  255                     BUTTON_SetText(ProbeXYSpeed_default.btnHandle,cmd_code);
        LDRSH    R0,[R7, #+24]
        MOV      R1,R6
          CFI FunCall BUTTON_SetText
        BL       BUTTON_SetText
//  256                     epr_write_data(EPR_XY_PROBE_SPEED, (uint8_t *)&mksCfg.xy_probe_speed,sizeof(float));
        MOVS     R2,#+4
        ADD      R1,R5,#+116
        MOVW     R0,#+1563
        B.N      ??cbLevelingParaWin_14
//  257 
//  258 
//  259     			} 
//  260     			else if(pMsg->hWinSrc == ProbeZSpeed_default.btnHandle)
??cbLevelingParaWin_38:
        LDRSH    R0,[R8, #+0]
        CMP      R1,R0
        BNE.N    ??cbLevelingParaWin_1
//  261     			{
//  262     			    mksCfg.z_probe_speed_fast = 600;
        LDR.W    R5,??draw_LevelingPara_0+0xC
        LDR.W    R0,??DataTable10_4  ;; 0x44160000
//  263                     mksCfg.z_probe_speed_slow = 300;
//  264                     memset(cmd_code,0,sizeof(cmd_code));
        LDR.W    R6,??DataTable9_1
        ADD      R4,R5,#+108
        MOVS     R1,#+201
        STR      R0,[R4, #+12]
        LDR.W    R0,??DataTable10_5  ;; 0x43960000
        STR      R0,[R4, #+16]
        MOV      R0,R6
          CFI FunCall __aeabi_memclr
        BL       __aeabi_memclr
//  265                     sprintf(cmd_code,"%.1f",mksCfg.z_probe_speed_fast);
        LDR      R0,[R4, #+12]
          CFI FunCall __aeabi_f2d
        BL       __aeabi_f2d
        MOV      R2,R0
        MOV      R3,R1
        LDR.W    R1,??DataTable10
        MOV      R0,R6
          CFI FunCall sprintf
        BL       sprintf
//  266                     BUTTON_SetText(ProbeZSpeed_default.btnHandle,cmd_code);
        LDRSH    R0,[R8, #+0]
        MOV      R1,R6
          CFI FunCall BUTTON_SetText
        BL       BUTTON_SetText
//  267                     epr_write_data(EPR_Z_PROBE_SPEED_FAST, (uint8_t *)&mksCfg.z_probe_speed_fast,sizeof(float));
        MOVS     R2,#+4
        ADD      R1,R5,#+120
        MOVW     R0,#+1567
          CFI FunCall epr_write_data
        BL       epr_write_data
//  268                     epr_write_data(EPR_Z_PROBE_SPEED_SLOW, (uint8_t *)&mksCfg.z_probe_speed_slow,sizeof(float));
        MOVS     R2,#+4
        ADD      R1,R5,#+124
        MOVW     R0,#+1571
??cbLevelingParaWin_14:
        ADD      SP,SP,#+8
          CFI CFA R13+24
        POP      {R4-R8,LR}
          CFI R4 SameValue
          CFI R5 SameValue
          CFI R6 SameValue
          CFI R7 SameValue
          CFI R8 SameValue
          CFI R14 SameValue
          CFI CFA R13+0
          CFI FunCall epr_write_data
        B.W      epr_write_data
          CFI R4 Frame(CFA, -24)
          CFI R5 Frame(CFA, -20)
          CFI R6 Frame(CFA, -16)
          CFI R7 Frame(CFA, -12)
          CFI R8 Frame(CFA, -8)
          CFI R14 Frame(CFA, -4)
          CFI CFA R13+32
//  269 
//  270 
//  271     			}                  
//  272     		}
//  273     		break;
//  274     		
//  275     	default:
//  276     		WM_DefaultProc(pMsg);
??cbLevelingParaWin_4:
        POP      {R1,R2,R4-R8,LR}
          CFI R4 SameValue
          CFI R5 SameValue
          CFI R6 SameValue
          CFI R7 SameValue
          CFI R8 SameValue
          CFI R14 SameValue
          CFI CFA R13+0
          CFI FunCall WM_DefaultProc
        B.W      WM_DefaultProc
          CFI R4 Frame(CFA, -24)
          CFI R5 Frame(CFA, -20)
          CFI R6 Frame(CFA, -16)
          CFI R7 Frame(CFA, -12)
          CFI R8 Frame(CFA, -8)
          CFI R14 Frame(CFA, -4)
          CFI CFA R13+32
//  277     	}
//  278 }
??cbLevelingParaWin_1:
        POP      {R0,R1,R4-R8,PC}  ;; return
          CFI EndBlock cfiBlock0

        SECTION `.text`:CODE:NOROOT(2)
        SECTION_TYPE SHT_PROGBITS, 0
        DATA
??DataTable8:
        DC32     0xff5449

        SECTION `.text`:CODE:NOROOT(2)
        SECTION_TYPE SHT_PROGBITS, 0
        DATA
??DataTable8_1:
        DC32     last_disp_state

        SECTION `.text`:CODE:NOROOT(2)
        SECTION_TYPE SHT_PROGBITS, 0
        DATA
??DataTable8_2:
        DC32     gCfgItems

        SECTION `.text`:CODE:NOROOT(2)
        SECTION_TYPE SHT_PROGBITS, 0
        DATA
??DataTable8_3:
        DC32     `?<Constant "bmp_disable.bin">`

        SECTION `.text`:CODE:NOROOT(2)
        SECTION_TYPE SHT_PROGBITS, 0
        DATA
??DataTable8_4:
        DC32     machine_menu+0xE8

        SECTION `.text`:CODE:NOROOT(2)
        SECTION_TYPE SHT_PROGBITS, 0
        DATA
??DataTable8_5:
        DC32     `?<Constant "bmp_enable.bin">`

        SECTION `.text`:CODE:NOROOT(2)
        SECTION_TYPE SHT_PROGBITS, 0
        DATA
??DataTable8_6:
        DC32     machine_menu

        SECTION `.text`:CODE:NOROOT(2)
        SECTION_TYPE SHT_PROGBITS, 0
        DATA
??DataTable8_7:
        DC32     value
//  279 
//  280 

        SECTION `.text`:CODE:NOROOT(2)
          CFI Block cfiBlock1 Using cfiCommon0
          CFI Function draw_LevelingPara
        THUMB
//  281 void draw_LevelingPara()
//  282 {   
draw_LevelingPara:
        PUSH     {R4-R11,LR}
          CFI R14 Frame(CFA, -4)
          CFI R11 Frame(CFA, -8)
          CFI R10 Frame(CFA, -12)
          CFI R9 Frame(CFA, -16)
          CFI R8 Frame(CFA, -20)
          CFI R7 Frame(CFA, -24)
          CFI R6 Frame(CFA, -28)
          CFI R5 Frame(CFA, -32)
          CFI R4 Frame(CFA, -36)
          CFI CFA R13+36
//  283     int i;
//  284 
//  285 
//  286     btnHandle_rest();
        LDR.W    R1,??draw_LevelingPara_0+0x10
        LDR.W    R4,??DataTable10_6
        LDR.W    R5,??draw_LevelingPara_0+0x4
        LDR.W    R11,??draw_LevelingPara_1+0x4
        LDR.W    R9,??DataTable9
        LDR.W    R10,??draw_LevelingPara_0+0x8
        MOVS     R0,#+0
        STRH     R0,[R1, #+0]
        STRH     R0,[R1, #+24]
        SUB      SP,SP,#+20
          CFI CFA R13+56
        LDR.W    R1,??draw_LevelingPara_1
        STRH     R0,[R1, #+0]
        STRH     R0,[R1, #+24]
        STRH     R0,[R4, #+0]
        STRH     R0,[R4, #+24]
        STRH     R0,[R4, #+48]
        STRH     R0,[R5, #+4]
        STRH     R0,[R5, #+28]
        STRH     R0,[R4, #+72]
        STRH     R0,[R4, #+96]
        STRH     R0,[R4, #+120]
        STRH     R0,[R4, #+144]
        STRH     R0,[R4, #+168]
        STRH     R0,[R11, #+0]
        STRH     R0,[R11, #+24]
        STRH     R0,[R9, #+0]
        STRH     R0,[R9, #+24]
        STRH     R0,[R10, #+24]
        LDR.W    R1,??DataTable10_1
        STRH     R0,[R1, #+0]
        LDR.W    R1,??draw_LevelingPara_0
        STRH     R0,[R1, #+0]
        STRH     R0,[R1, #+24]
//  287     
//  288     if(disp_state_stack._disp_state[disp_state_stack._disp_index] != LEVELING_PARA_UI)
        LDR.W    R0,??DataTable10_7
        LDRSB    R1,[R0, #+100]
        LDRSB    R2,[R1, R0]
        CMP      R2,#+47
        BEQ.N    ??draw_LevelingPara_2
//  289     {
//  290         disp_state_stack._disp_index++;
        ADDS     R1,R1,#+1
        STRB     R1,[R0, #+100]
//  291         disp_state_stack._disp_state[disp_state_stack._disp_index] = LEVELING_PARA_UI;
        MOVS     R2,#+47
        SXTB     R1,R1
        STRB     R2,[R1, R0]
//  292     }
//  293     disp_state = LEVELING_PARA_UI;
??draw_LevelingPara_2:
        MOVS     R0,#+47
        LDR.W    R1,??DataTable10_8
        LDR.W    R6,??DataTable10_9
        STRB     R0,[R1, #+0]
        LDR      R0,[R6, #+16]
//  294     
//  295     GUI_SetBkColor(gCfgItems.background_color);
          CFI FunCall GUI_SetBkColor
        BL       GUI_SetBkColor
//  296     GUI_SetColor(gCfgItems.title_color);
        LDR      R0,[R6, #+20]
          CFI FunCall GUI_SetColor
        BL       GUI_SetColor
//  297     GUI_Clear();
          CFI FunCall GUI_Clear
        BL       GUI_Clear
//  298     
//  299     GUI_DispStringAt(machine_menu.LevelingSubConfTitle, TITLE_XPOS, TITLE_YPOS);
        LDR.W    R7,??DataTable10_10
        LDR      R0,[R7, #+196]
        MOVS     R2,#+5
        MOVS     R1,#+3
          CFI FunCall GUI_DispStringAt
        BL       GUI_DispStringAt
//  300 
//  301     hLevelingParaWnd = WM_CreateWindow(0, 0, LCD_WIDTH, LCD_HEIGHT, WM_CF_SHOW, cbLevelingParaWin, 0);
        MOVS     R0,#+0
        STR      R0,[SP, #+8]
        MOV      R3,#+320
        LDR.W    R0,??DataTable10_11
        STR      R0,[SP, #+4]
        MOV      R2,#+480
        MOVS     R0,#+2
        STR      R0,[SP, #+0]
        MOVS     R1,#+0
        MOVS     R0,#+0
          CFI FunCall WM_CreateWindow
        BL       WM_CreateWindow
        STRH     R0,[R5, #+2]
        LDRB     R0,[R5, #+0]
        CMP      R0,#+1
        BEQ.W    ??draw_LevelingPara_3
//  302 
//  303     if(current_page != 1)
//  304     {
//  305         AutoLevelEnable_text.btnHandle = BUTTON_CreateEx(10,50,240,40,hLevelingParaWnd, BUTTON_CF_SHOW, 0, alloc_win_id());
          CFI FunCall alloc_win_id
        BL       alloc_win_id
        STR      R0,[SP, #+12]
        MOVS     R3,#+40
        MOVS     R0,#+0
        STR      R0,[SP, #+8]
        MOVS     R2,#+240
        MOVS     R0,#+2
        STR      R0,[SP, #+4]
        MOVS     R1,#+50
        LDRSH    R0,[R5, R0]
        STR      R0,[SP, #+0]
        MOVS     R0,#+10
          CFI FunCall BUTTON_CreateEx
        BL       BUTTON_CreateEx
        STRH     R0,[R4, #+0]
//  306         AutoLevelEnable.btnHandle = BUTTON_CreateEx(370,50,90,40,hLevelingParaWnd, BUTTON_CF_SHOW, 0, alloc_win_id());
          CFI FunCall alloc_win_id
        BL       alloc_win_id
        STR      R0,[SP, #+12]
        MOVS     R3,#+40
        MOVS     R0,#+0
        STR      R0,[SP, #+8]
        MOVS     R2,#+90
        MOVS     R0,#+2
        STR      R0,[SP, #+4]
        MOVS     R1,#+50
        LDRSH    R0,[R5, R0]
        STR      R0,[SP, #+0]
        MOV      R0,#+370
          CFI FunCall BUTTON_CreateEx
        BL       BUTTON_CreateEx
        STRH     R0,[R5, #+4]
//  307 
//  308         BLtouchEnable_text.btnHandle = BUTTON_CreateEx(10,100,240,40,hLevelingParaWnd, BUTTON_CF_SHOW, 0, alloc_win_id());
          CFI FunCall alloc_win_id
        BL       alloc_win_id
        STR      R0,[SP, #+12]
        MOVS     R3,#+40
        MOVS     R0,#+0
        STR      R0,[SP, #+8]
        MOVS     R2,#+240
        MOVS     R0,#+2
        STR      R0,[SP, #+4]
        MOVS     R1,#+100
        LDRSH    R0,[R5, R0]
        STR      R0,[SP, #+0]
        MOVS     R0,#+10
          CFI FunCall BUTTON_CreateEx
        BL       BUTTON_CreateEx
        STRH     R0,[R4, #+24]
//  309         BLtouchEnable.btnHandle = BUTTON_CreateEx(370,100,90,40,hLevelingParaWnd, BUTTON_CF_SHOW, 0, alloc_win_id());
          CFI FunCall alloc_win_id
        BL       alloc_win_id
        STR      R0,[SP, #+12]
        MOVS     R3,#+40
        MOVS     R0,#+0
        STR      R0,[SP, #+8]
        MOVS     R2,#+90
        MOVS     R0,#+2
        STR      R0,[SP, #+4]
        MOVS     R1,#+100
        LDRSH    R0,[R5, R0]
        STR      R0,[SP, #+0]
        MOV      R0,#+370
          CFI FunCall BUTTON_CreateEx
        BL       BUTTON_CreateEx
        STRH     R0,[R5, #+28]
//  310 
//  311         ProbePort_text.btnHandle = BUTTON_CreateEx(10,150,240,40,hLevelingParaWnd, BUTTON_CF_SHOW, 0, alloc_win_id());
          CFI FunCall alloc_win_id
        BL       alloc_win_id
        STR      R0,[SP, #+12]
        MOVS     R3,#+40
        MOVS     R0,#+0
        STR      R0,[SP, #+8]
        MOVS     R2,#+240
        MOVS     R0,#+2
        STR      R0,[SP, #+4]
        MOVS     R1,#+150
        LDRSH    R0,[R5, R0]
        STR      R0,[SP, #+0]
        MOVS     R0,#+10
          CFI FunCall BUTTON_CreateEx
        BL       BUTTON_CreateEx
        STRH     R0,[R4, #+48]
//  312         ProbePort.btnHandle = BUTTON_CreateEx(370,150,90,40,hLevelingParaWnd, BUTTON_CF_SHOW, 0, alloc_win_id());
          CFI FunCall alloc_win_id
        BL       alloc_win_id
        STR      R0,[SP, #+12]
        MOVS     R3,#+40
        MOVS     R0,#+0
        STR      R0,[SP, #+8]
        MOVS     R2,#+90
        MOVS     R0,#+2
        STR      R0,[SP, #+4]
        MOVS     R1,#+150
        LDRSH    R0,[R5, R0]
        STR      R0,[SP, #+0]
        MOV      R0,#+370
          CFI FunCall BUTTON_CreateEx
        BL       BUTTON_CreateEx
        LDR.N    R1,??draw_LevelingPara_0+0x10
        STRH     R0,[R1, #+0]
//  313 
//  314         ProbeXoffset_text.btnHandle = BUTTON_CreateEx(10,200,240,40,hLevelingParaWnd, BUTTON_CF_SHOW, 0, alloc_win_id());
          CFI FunCall alloc_win_id
        BL       alloc_win_id
        STR      R0,[SP, #+12]
        MOVS     R3,#+40
        MOVS     R0,#+0
        STR      R0,[SP, #+8]
        MOVS     R2,#+240
        MOVS     R0,#+2
        STR      R0,[SP, #+4]
        MOVS     R1,#+200
        LDRSH    R0,[R5, R0]
        STR      R0,[SP, #+0]
        MOVS     R0,#+10
          CFI FunCall BUTTON_CreateEx
        BL       BUTTON_CreateEx
        STRH     R0,[R4, #+72]
//  315         ProbeXoffset_value.btnHandle = BUTTON_CreateEx(270,200+5,VALUE_DEFAULT_X,VALUE_DEFAULT_Y,hLevelingParaWnd, BUTTON_CF_SHOW, 0, alloc_win_id());
          CFI FunCall alloc_win_id
        BL       alloc_win_id
        STR      R0,[SP, #+12]
        MOVS     R3,#+28
        MOVS     R0,#+0
        STR      R0,[SP, #+8]
        MOVS     R2,#+70
        MOVS     R0,#+2
        STR      R0,[SP, #+4]
        MOVS     R1,#+205
        LDRSH    R0,[R5, R0]
        STR      R0,[SP, #+0]
        MOV      R0,#+270
          CFI FunCall BUTTON_CreateEx
        BL       BUTTON_CreateEx
        LDR.N    R1,??draw_LevelingPara_0+0x10
        STRH     R0,[R1, #+24]
//  316         ProbeXoffset_default.btnHandle = BUTTON_CreateEx(370,200+5,VALUE_DEFAULT_X,VALUE_DEFAULT_Y,hLevelingParaWnd, BUTTON_CF_SHOW, 0, alloc_win_id());
          CFI FunCall alloc_win_id
        BL       alloc_win_id
        STR      R0,[SP, #+12]
        MOVS     R3,#+28
        MOVS     R0,#+0
        STR      R0,[SP, #+8]
        MOVS     R2,#+70
        MOVS     R0,#+2
        STR      R0,[SP, #+4]
        MOVS     R1,#+205
        LDRSH    R0,[R5, R0]
        STR      R0,[SP, #+0]
        MOV      R0,#+370
          CFI FunCall BUTTON_CreateEx
        BL       BUTTON_CreateEx
//  317         if(mksCfg.bed_leveling_method == 8)
        LDR.N    R1,??draw_LevelingPara_0+0xC
        LDRB     R1,[R1, #+66]
        STRH     R0,[R9, #+0]
        CMP      R1,#+8
        LDRSH    R0,[R5, #+4]
        ITTEE    EQ 
//  318            BUTTON_SetBmpFileName(AutoLevelEnable.btnHandle, "bmp_enable.bin",1);        
        MOVEQ    R2,#+1
        ADREQ.W  R1,`?<Constant "bmp_enable.bin">`
//  319         else
//  320            BUTTON_SetBmpFileName(AutoLevelEnable.btnHandle, "bmp_disable.bin",1);
        MOVNE    R2,#+1
        ADRNE.W  R1,`?<Constant "bmp_disable.bin">`
          CFI FunCall BUTTON_SetBmpFileName
        BL       BUTTON_SetBmpFileName
//  321 
//  322 	 AT24CXX_Read((uint16_t)EPR_MKSTOUCH,&mksCfg.mkstouch,1);
        LDR.W    R1,??DataTable10_12
        MOVS     R2,#+1
        MOVW     R0,#+1689
          CFI FunCall AT24CXX_Read
        BL       AT24CXX_Read
//  323         if(mksCfg.mkstouch==1)    
        LDR.N    R1,??draw_LevelingPara_0+0xC
        LDRSH    R0,[R5, #+28]
        LDRB     R1,[R1, #+256]
        CMP      R1,#+1
        ITTEE    EQ 
//  324            BUTTON_SetBmpFileName(BLtouchEnable.btnHandle, "bmp_enable.bin",1);
        MOVEQ    R2,#+1
        ADREQ.W  R1,`?<Constant "bmp_enable.bin">`
//  325         else
//  326            BUTTON_SetBmpFileName(BLtouchEnable.btnHandle, "bmp_disable.bin",1);
        MOVNE    R2,#+1
        ADRNE.W  R1,`?<Constant "bmp_disable.bin">`
          CFI FunCall BUTTON_SetBmpFileName
        BL       BUTTON_SetBmpFileName
//  327         if(mksCfg.z_min_probe_pin_mode==1)
        LDR.N    R1,??draw_LevelingPara_0+0xC
        LDR.N    R0,??draw_LevelingPara_0+0x10
        LDRB     R1,[R1, #+153]
        LDRSH    R0,[R0, #+0]
        CMP      R1,#+1
        ITTEE    EQ 
//  328            BUTTON_SetBmpFileName(ProbePort.btnHandle, "bmp_disable.bin",1);
        MOVEQ    R2,#+1
        ADREQ.W  R1,`?<Constant "bmp_disable.bin">`
//  329         else
//  330            BUTTON_SetBmpFileName(ProbePort.btnHandle, "bmp_enable.bin",1);
        MOVNE    R2,#+1
        ADRNE.W  R1,`?<Constant "bmp_enable.bin">`
          CFI FunCall BUTTON_SetBmpFileName
        BL       BUTTON_SetBmpFileName
//  331         
//  332         BUTTON_SetBmpFileName(ProbeXoffset_value.btnHandle, "bmp_value_blank.bin",1);
        LDR.N    R0,??draw_LevelingPara_0+0x10
        ADR.W    R1,`?<Constant "bmp_value_blank.bin">`
        LDRSH    R0,[R0, #+24]
        MOVS     R2,#+1
          CFI FunCall BUTTON_SetBmpFileName
        BL       BUTTON_SetBmpFileName
//  333         BUTTON_SetBmpFileName(ProbeXoffset_default.btnHandle, "bmp_default.bin",1); 
        LDRSH    R0,[R9, #+0]
        ADR.W    R1,`?<Constant "bmp_default.bin">`
        MOVS     R2,#+1
          CFI FunCall BUTTON_SetBmpFileName
        BL       BUTTON_SetBmpFileName
//  334         
//  335         BUTTON_SetBmpFileName(AutoLevelEnable_text.btnHandle,NULL,1);        
        MOVS     R1,#+0
        MOVS     R2,#+1
        LDRSH    R0,[R4, R1]
          CFI FunCall BUTTON_SetBmpFileName
        BL       BUTTON_SetBmpFileName
//  336         BUTTON_SetBmpFileName(BLtouchEnable_text.btnHandle,NULL,1);
        LDRSH    R0,[R4, #+24]
        MOVS     R2,#+1
        MOVS     R1,#+0
          CFI FunCall BUTTON_SetBmpFileName
        BL       BUTTON_SetBmpFileName
//  337         BUTTON_SetBmpFileName(ProbePort_text.btnHandle,NULL,1);
        LDRSH    R0,[R4, #+48]
        MOVS     R2,#+1
        MOVS     R1,#+0
          CFI FunCall BUTTON_SetBmpFileName
        BL       BUTTON_SetBmpFileName
//  338         BUTTON_SetBmpFileName(ProbeXoffset_text.btnHandle,NULL,1);
        LDRSH    R0,[R4, #+72]
        MOVS     R2,#+1
        MOVS     R1,#+0
          CFI FunCall BUTTON_SetBmpFileName
        BL       BUTTON_SetBmpFileName
//  339         
//  340         BUTTON_SetBitmapEx(AutoLevelEnable.btnHandle,0,&bmp_struct90X30,0,5);
        MOVS     R0,#+5
        STR      R0,[SP, #+0]
        MOVS     R3,#+0
        LDR.W    R8,??DataTable10_13
        LDRSH    R0,[R5, #+4]
        MOV      R2,R8
        MOVS     R1,#+0
          CFI FunCall BUTTON_SetBitmapEx
        BL       BUTTON_SetBitmapEx
//  341         BUTTON_SetBitmapEx(BLtouchEnable.btnHandle,0,&bmp_struct90X30,0,5);
        MOVS     R0,#+5
        STR      R0,[SP, #+0]
        MOVS     R3,#+0
        LDRSH    R0,[R5, #+28]
        MOV      R2,R8
        MOV      R1,R3
          CFI FunCall BUTTON_SetBitmapEx
        BL       BUTTON_SetBitmapEx
//  342         BUTTON_SetBitmapEx(ProbePort.btnHandle,0,&bmp_struct90X30,0,5);
        MOVS     R0,#+5
        STR      R0,[SP, #+0]
        MOVS     R3,#+0
        MOV      R1,R3
        LDR.N    R0,??draw_LevelingPara_0+0x10
        LDRSH    R0,[R0, R1]
        MOV      R2,R8
          CFI FunCall BUTTON_SetBitmapEx
        BL       BUTTON_SetBitmapEx
//  343         BUTTON_SetBitmapEx(ProbeXoffset_value.btnHandle,0,&bmp_struct70X28,0,0); 
        MOVS     R0,#+0
        STR      R0,[SP, #+0]
        MOV      R3,R0
        MOV      R1,R0
        LDR.N    R0,??draw_LevelingPara_0+0x10
        LDR.W    R8,??DataTable10_14
        LDRSH    R0,[R0, #+24]
        MOV      R2,R8
          CFI FunCall BUTTON_SetBitmapEx
        BL       BUTTON_SetBitmapEx
//  344         BUTTON_SetBitmapEx(ProbeXoffset_default.btnHandle,0,&bmp_struct70X28,0,0);
        MOVS     R0,#+0
        STR      R0,[SP, #+0]
        MOV      R3,R0
        MOV      R1,R0
        LDRSH    R0,[R9, #+0]
        MOV      R2,R8
          CFI FunCall BUTTON_SetBitmapEx
        BL       BUTTON_SetBitmapEx
//  345         
//  346         BUTTON_SetTextAlign(AutoLevelEnable_text.btnHandle,GUI_TA_LEFT|GUI_TA_VCENTER );
        LDRSH    R0,[R4, #+0]
        MOVS     R1,#+12
          CFI FunCall BUTTON_SetTextAlign
        BL       BUTTON_SetTextAlign
//  347         BUTTON_SetTextAlign(BLtouchEnable_text.btnHandle,GUI_TA_LEFT|GUI_TA_VCENTER );
        LDRSH    R0,[R4, #+24]
        MOVS     R1,#+12
          CFI FunCall BUTTON_SetTextAlign
        BL       BUTTON_SetTextAlign
//  348         BUTTON_SetTextAlign(ProbePort_text.btnHandle,GUI_TA_LEFT|GUI_TA_VCENTER );
        LDRSH    R0,[R4, #+48]
        MOVS     R1,#+12
          CFI FunCall BUTTON_SetTextAlign
        BL       BUTTON_SetTextAlign
//  349         BUTTON_SetTextAlign(ProbeXoffset_text.btnHandle,GUI_TA_LEFT|GUI_TA_VCENTER );   
        LDRSH    R0,[R4, #+72]
        MOVS     R1,#+12
          CFI FunCall BUTTON_SetTextAlign
        BL       BUTTON_SetTextAlign
//  350 
//  351         BUTTON_SetTextAlign(AutoLevelEnable.btnHandle,GUI_TA_HCENTER|GUI_TA_VCENTER );
        LDRSH    R0,[R5, #+4]
        MOVS     R1,#+14
          CFI FunCall BUTTON_SetTextAlign
        BL       BUTTON_SetTextAlign
//  352         BUTTON_SetTextAlign(BLtouchEnable.btnHandle,GUI_TA_HCENTER|GUI_TA_VCENTER );
        LDRSH    R0,[R5, #+28]
        MOVS     R1,#+14
          CFI FunCall BUTTON_SetTextAlign
        BL       BUTTON_SetTextAlign
//  353         BUTTON_SetTextAlign(ProbePort.btnHandle,GUI_TA_HCENTER|GUI_TA_VCENTER );
        LDR.N    R0,??draw_LevelingPara_0+0x10
        LDRSH    R0,[R0, #+0]
        MOVS     R1,#+14
          CFI FunCall BUTTON_SetTextAlign
        BL       BUTTON_SetTextAlign
//  354         BUTTON_SetTextAlign(ProbeXoffset_value.btnHandle,GUI_TA_HCENTER|GUI_TA_VCENTER ); 
        LDR.N    R0,??draw_LevelingPara_0+0x10
        LDRSH    R0,[R0, #+24]
        MOVS     R1,#+14
          CFI FunCall BUTTON_SetTextAlign
        BL       BUTTON_SetTextAlign
//  355         BUTTON_SetTextAlign(ProbeXoffset_default.btnHandle,GUI_TA_HCENTER|GUI_TA_VCENTER ); 
        LDRSH    R0,[R9, #+0]
        MOVS     R1,#+14
          CFI FunCall BUTTON_SetTextAlign
        BL       BUTTON_SetTextAlign
//  356 
//  357         button_next.btnHandle = BUTTON_CreateEx(320,270,70,40,hLevelingParaWnd,BUTTON_CF_SHOW,0,alloc_win_id());
          CFI FunCall alloc_win_id
        BL       alloc_win_id
        STR      R0,[SP, #+12]
        MOVS     R3,#+40
        MOVS     R0,#+0
        STR      R0,[SP, #+8]
        MOVS     R2,#+70
        MOVS     R0,#+2
        STR      R0,[SP, #+4]
        MOV      R1,#+270
        LDRSH    R0,[R5, R0]
        STR      R0,[SP, #+0]
        MOV      R0,#+320
          CFI FunCall BUTTON_CreateEx
        BL       BUTTON_CreateEx
        STRH     R0,[R10, #+24]
//  358         BUTTON_SetBmpFileName(button_next.btnHandle, "bmp_next.bin",1); 
        MOVS     R2,#+1
        ADR.W    R1,`?<Constant "bmp_next.bin">`
          CFI FunCall BUTTON_SetBmpFileName
        BL       BUTTON_SetBmpFileName
//  359     
//  360         BUTTON_SetBitmapEx(button_next.btnHandle, 0, &bmp_struct70X40,0, 0);
        LDR.W    R2,??DataTable10_15
        MOVS     R0,#+0
        STR      R0,[SP, #+0]
        MOV      R3,R0
        MOV      R1,R0
        LDRSH    R0,[R10, #+24]
          CFI FunCall BUTTON_SetBitmapEx
        BL       BUTTON_SetBitmapEx
//  361 
//  362         BUTTON_SetBkColor(ProbeXoffset_value.btnHandle, BUTTON_CI_PRESSED, gCfgItems.value_bk_color);
        LDR.W    R0,??DataTable10_16
        LDR      R2,[R0, #+4]
        LDR.N    R0,??draw_LevelingPara_0+0x10
        LDRSH    R0,[R0, #+24]
        MOVS     R1,#+1
          CFI FunCall BUTTON_SetBkColor
        BL       BUTTON_SetBkColor
//  363         BUTTON_SetBkColor(ProbeXoffset_value.btnHandle, BUTTON_CI_UNPRESSED, gCfgItems.value_bk_color); 
        LDR.W    R0,??DataTable10_16
        LDR      R2,[R0, #+4]
        LDR.N    R0,??draw_LevelingPara_0+0x10
        LDRSH    R0,[R0, #+24]
        MOVS     R1,#+0
          CFI FunCall BUTTON_SetBkColor
        BL       BUTTON_SetBkColor
//  364         BUTTON_SetTextColor(ProbeXoffset_value.btnHandle, BUTTON_CI_PRESSED, gCfgItems.value_text_color);
        LDR.N    R0,??draw_LevelingPara_0+0x10
        LDR      R2,[R6, #+4]
        LDRSH    R0,[R0, #+24]
        MOVS     R1,#+1
          CFI FunCall BUTTON_SetTextColor
        BL       BUTTON_SetTextColor
//  365         BUTTON_SetTextColor(ProbeXoffset_value.btnHandle, BUTTON_CI_UNPRESSED, gCfgItems.value_text_color); 
        LDR.N    R0,??draw_LevelingPara_0+0x10
        LDR      R2,[R6, #+4]
        LDRSH    R0,[R0, #+24]
        MOVS     R1,#+0
          CFI FunCall BUTTON_SetTextColor
        BL       BUTTON_SetTextColor
//  366         
//  367         BUTTON_SetBkColor(ProbeXoffset_default.btnHandle, BUTTON_CI_PRESSED, gCfgItems.default_bk_color);
        LDR      R2,[R6, #+8]
        LDRSH    R0,[R9, #+0]
        MOVS     R1,#+1
          CFI FunCall BUTTON_SetBkColor
        BL       BUTTON_SetBkColor
//  368         BUTTON_SetBkColor(ProbeXoffset_default.btnHandle, BUTTON_CI_UNPRESSED, gCfgItems.default_bk_color); 
        LDR      R2,[R6, #+8]
        LDRSH    R0,[R9, #+0]
        MOVS     R1,#+0
          CFI FunCall BUTTON_SetBkColor
        BL       BUTTON_SetBkColor
//  369         BUTTON_SetTextColor(ProbeXoffset_default.btnHandle, BUTTON_CI_PRESSED, gCfgItems.default_text_color);
        LDR      R2,[R6, #+12]
        LDRSH    R0,[R9, #+0]
        MOVS     R1,#+1
          CFI FunCall BUTTON_SetTextColor
        BL       BUTTON_SetTextColor
//  370         BUTTON_SetTextColor(ProbeXoffset_default.btnHandle, BUTTON_CI_UNPRESSED, gCfgItems.default_text_color); 
        LDR      R2,[R6, #+12]
        LDRSH    R0,[R9, #+0]
        MOVS     R1,#+0
          CFI FunCall BUTTON_SetTextColor
        BL       BUTTON_SetTextColor
//  371 
//  372         memset(cmd_code,0,sizeof(cmd_code));
        LDR.W    R8,??DataTable9_1
        MOVS     R1,#+201
        MOV      R0,R8
          CFI FunCall __aeabi_memclr
        BL       __aeabi_memclr
//  373         sprintf(cmd_code,"%.1f",mksCfg.x_probe_offset_from_extruder);
        LDR.N    R0,??draw_LevelingPara_0+0xC
        LDR      R0,[R0, #+108]
          CFI FunCall __aeabi_f2d
        BL       __aeabi_f2d
        MOV      R2,R0
        MOV      R3,R1
        ADR.W    R1,`?<Constant "%.1f">`
        MOV      R0,R8
          CFI FunCall sprintf
        BL       sprintf
//  374         BUTTON_SetText(ProbeXoffset_value.btnHandle,cmd_code);
        LDR.N    R0,??draw_LevelingPara_0+0x10
        LDRSH    R0,[R0, #+24]
        MOV      R1,R8
        B.N      ??draw_LevelingPara_4
        DATA
??draw_LevelingPara_0:
        DC32     button_previous
        DC32     current_page
        DC32     ProbeZSpeed_default
        DC32     mksCfg
        DC32     ProbePort
          CFI FunCall alloc_win_id
        THUMB
//  375 
//  376     }
//  377     else
//  378     {
//  379         ProbeYoffset_text.btnHandle = BUTTON_CreateEx(10,50,240,40,hLevelingParaWnd, BUTTON_CF_SHOW, 0, alloc_win_id());
??draw_LevelingPara_3:
        BL       alloc_win_id
        STR      R0,[SP, #+12]
        MOVS     R3,#+40
        MOVS     R0,#+0
        STR      R0,[SP, #+8]
        MOVS     R2,#+240
        MOVS     R0,#+2
        STR      R0,[SP, #+4]
        MOVS     R1,#+50
        LDRSH    R0,[R5, R0]
        STR      R0,[SP, #+0]
        MOVS     R0,#+10
          CFI FunCall BUTTON_CreateEx
        BL       BUTTON_CreateEx
        STRH     R0,[R4, #+96]
//  380         ProbeYoffset_value.btnHandle = BUTTON_CreateEx(270,50+5,VALUE_DEFAULT_X,VALUE_DEFAULT_Y,hLevelingParaWnd, BUTTON_CF_SHOW, 0, alloc_win_id());
          CFI FunCall alloc_win_id
        BL       alloc_win_id
        STR      R0,[SP, #+12]
        MOVS     R3,#+28
        MOVS     R0,#+0
        STR      R0,[SP, #+8]
        MOVS     R2,#+70
        MOVS     R0,#+2
        STR      R0,[SP, #+4]
        MOVS     R1,#+55
        LDRSH    R0,[R5, R0]
        STR      R0,[SP, #+0]
        MOV      R0,#+270
          CFI FunCall BUTTON_CreateEx
        BL       BUTTON_CreateEx
        LDR.W    R1,??draw_LevelingPara_1
        STRH     R0,[R1, #+0]
//  381         ProbeYoffset_default.btnHandle = BUTTON_CreateEx(370,50+5,VALUE_DEFAULT_X,VALUE_DEFAULT_Y,hLevelingParaWnd, BUTTON_CF_SHOW, 0, alloc_win_id());
          CFI FunCall alloc_win_id
        BL       alloc_win_id
        STR      R0,[SP, #+12]
        MOVS     R3,#+28
        MOVS     R0,#+0
        STR      R0,[SP, #+8]
        MOVS     R2,#+70
        MOVS     R0,#+2
        STR      R0,[SP, #+4]
        MOVS     R1,#+55
        LDRSH    R0,[R5, R0]
        STR      R0,[SP, #+0]
        MOV      R0,#+370
          CFI FunCall BUTTON_CreateEx
        BL       BUTTON_CreateEx
        STRH     R0,[R9, #+24]
//  382 
//  383         ProbeZoffset_text.btnHandle = BUTTON_CreateEx(10,100,240,40,hLevelingParaWnd, BUTTON_CF_SHOW, 0, alloc_win_id());
          CFI FunCall alloc_win_id
        BL       alloc_win_id
        STR      R0,[SP, #+12]
        MOVS     R3,#+40
        MOVS     R0,#+0
        STR      R0,[SP, #+8]
        MOVS     R2,#+240
        MOVS     R0,#+2
        STR      R0,[SP, #+4]
        MOVS     R1,#+100
        LDRSH    R0,[R5, R0]
        STR      R0,[SP, #+0]
        MOVS     R0,#+10
          CFI FunCall BUTTON_CreateEx
        BL       BUTTON_CreateEx
        STRH     R0,[R4, #+120]
//  384         ProbeZoffset_value.btnHandle = BUTTON_CreateEx(270,100+5,VALUE_DEFAULT_X,VALUE_DEFAULT_Y,hLevelingParaWnd, BUTTON_CF_SHOW, 0, alloc_win_id());
          CFI FunCall alloc_win_id
        BL       alloc_win_id
        STR      R0,[SP, #+12]
        MOVS     R3,#+28
        MOVS     R0,#+0
        STR      R0,[SP, #+8]
        MOVS     R2,#+70
        MOVS     R0,#+2
        STR      R0,[SP, #+4]
        MOVS     R1,#+105
        LDRSH    R0,[R5, R0]
        STR      R0,[SP, #+0]
        MOV      R0,#+270
          CFI FunCall BUTTON_CreateEx
        BL       BUTTON_CreateEx
        LDR.W    R1,??draw_LevelingPara_1
        STRH     R0,[R1, #+24]
//  385         ProbeZoffset_default.btnHandle = BUTTON_CreateEx(370,100+5,VALUE_DEFAULT_X,VALUE_DEFAULT_Y,hLevelingParaWnd, BUTTON_CF_SHOW, 0, alloc_win_id());
          CFI FunCall alloc_win_id
        BL       alloc_win_id
        STR      R0,[SP, #+12]
        MOVS     R3,#+28
        MOVS     R0,#+0
        STR      R0,[SP, #+8]
        MOVS     R2,#+70
        MOVS     R0,#+2
        STR      R0,[SP, #+4]
        MOVS     R1,#+105
        LDRSH    R0,[R5, R0]
        STR      R0,[SP, #+0]
        MOV      R0,#+370
          CFI FunCall BUTTON_CreateEx
        BL       BUTTON_CreateEx
        LDR.W    R1,??DataTable10_1
        STRH     R0,[R1, #+0]
//  386 
//  387         ProbeXYSpeed_text.btnHandle = BUTTON_CreateEx(10,150,240,40,hLevelingParaWnd, BUTTON_CF_SHOW, 0, alloc_win_id());
          CFI FunCall alloc_win_id
        BL       alloc_win_id
        STR      R0,[SP, #+12]
        MOVS     R3,#+40
        MOVS     R0,#+0
        STR      R0,[SP, #+8]
        MOVS     R2,#+240
        MOVS     R0,#+2
        STR      R0,[SP, #+4]
        MOVS     R1,#+150
        LDRSH    R0,[R5, R0]
        STR      R0,[SP, #+0]
        MOVS     R0,#+10
          CFI FunCall BUTTON_CreateEx
        BL       BUTTON_CreateEx
        STRH     R0,[R4, #+144]
//  388         ProbeXYSpeed_value.btnHandle = BUTTON_CreateEx(270,150+5,VALUE_DEFAULT_X,VALUE_DEFAULT_Y,hLevelingParaWnd, BUTTON_CF_SHOW, 0, alloc_win_id());
          CFI FunCall alloc_win_id
        BL       alloc_win_id
        STR      R0,[SP, #+12]
        MOVS     R3,#+28
        MOVS     R0,#+0
        STR      R0,[SP, #+8]
        MOVS     R2,#+70
        MOVS     R0,#+2
        STR      R0,[SP, #+4]
        MOVS     R1,#+155
        LDRSH    R0,[R5, R0]
        STR      R0,[SP, #+0]
        MOV      R0,#+270
          CFI FunCall BUTTON_CreateEx
        BL       BUTTON_CreateEx
        STRH     R0,[R11, #+0]
//  389         ProbeXYSpeed_default.btnHandle = BUTTON_CreateEx(370,150+5,VALUE_DEFAULT_X,VALUE_DEFAULT_Y,hLevelingParaWnd, BUTTON_CF_SHOW, 0, alloc_win_id());
          CFI FunCall alloc_win_id
        BL       alloc_win_id
        STR      R0,[SP, #+12]
        MOVS     R3,#+28
        MOVS     R0,#+0
        STR      R0,[SP, #+8]
        MOVS     R2,#+70
        MOVS     R0,#+2
        STR      R0,[SP, #+4]
        MOVS     R1,#+155
        LDRSH    R0,[R5, R0]
        STR      R0,[SP, #+0]
        MOV      R0,#+370
          CFI FunCall BUTTON_CreateEx
        BL       BUTTON_CreateEx
        LDR.W    R1,??DataTable10_1
        STRH     R0,[R1, #+24]
//  390 
//  391         ProbeZSpeed_text.btnHandle = BUTTON_CreateEx(10,200,240,40,hLevelingParaWnd, BUTTON_CF_SHOW, 0, alloc_win_id());
          CFI FunCall alloc_win_id
        BL       alloc_win_id
        STR      R0,[SP, #+12]
        MOVS     R3,#+40
        MOVS     R0,#+0
        STR      R0,[SP, #+8]
        MOVS     R2,#+240
        MOVS     R0,#+2
        STR      R0,[SP, #+4]
        MOVS     R1,#+200
        LDRSH    R0,[R5, R0]
        STR      R0,[SP, #+0]
        MOVS     R0,#+10
          CFI FunCall BUTTON_CreateEx
        BL       BUTTON_CreateEx
        STRH     R0,[R4, #+168]
//  392         ProbeZSpeed_value.btnHandle = BUTTON_CreateEx(270,200+5,VALUE_DEFAULT_X,VALUE_DEFAULT_Y,hLevelingParaWnd, BUTTON_CF_SHOW, 0, alloc_win_id());
          CFI FunCall alloc_win_id
        BL       alloc_win_id
        STR      R0,[SP, #+12]
        MOVS     R3,#+28
        MOVS     R0,#+0
        STR      R0,[SP, #+8]
        MOVS     R2,#+70
        MOVS     R0,#+2
        STR      R0,[SP, #+4]
        MOVS     R1,#+205
        LDRSH    R0,[R5, R0]
        STR      R0,[SP, #+0]
        MOV      R0,#+270
          CFI FunCall BUTTON_CreateEx
        BL       BUTTON_CreateEx
        STRH     R0,[R11, #+24]
//  393         ProbeZSpeed_default.btnHandle = BUTTON_CreateEx(370,200+5,VALUE_DEFAULT_X,VALUE_DEFAULT_Y,hLevelingParaWnd, BUTTON_CF_SHOW, 0, alloc_win_id());
          CFI FunCall alloc_win_id
        BL       alloc_win_id
        STR      R0,[SP, #+12]
        MOVS     R3,#+28
        MOVS     R0,#+0
        STR      R0,[SP, #+8]
        MOVS     R2,#+70
        MOVS     R0,#+2
        STR      R0,[SP, #+4]
        MOVS     R1,#+205
        LDRSH    R0,[R5, R0]
        STR      R0,[SP, #+0]
        MOV      R0,#+370
          CFI FunCall BUTTON_CreateEx
        BL       BUTTON_CreateEx
        STRH     R0,[R10, #+0]
//  394 
//  395         BUTTON_SetBmpFileName(ProbeYoffset_value.btnHandle, "bmp_value_blank.bin",1);
        MOVS     R2,#+1
        LDR.W    R0,??draw_LevelingPara_1
        ADR.W    R8,`?<Constant "bmp_value_blank.bin">`
        LDRSH    R0,[R0, #+0]
        MOV      R1,R8
          CFI FunCall BUTTON_SetBmpFileName
        BL       BUTTON_SetBmpFileName
//  396         BUTTON_SetBmpFileName(ProbeZoffset_value.btnHandle, "bmp_value_blank.bin",1);
        LDR.W    R0,??draw_LevelingPara_1
        LDRSH    R0,[R0, #+24]
        MOVS     R2,#+1
        MOV      R1,R8
          CFI FunCall BUTTON_SetBmpFileName
        BL       BUTTON_SetBmpFileName
//  397         BUTTON_SetBmpFileName(ProbeXYSpeed_value.btnHandle, "bmp_value_blank.bin",1);
        LDRSH    R0,[R11, #+0]
        MOVS     R2,#+1
        MOV      R1,R8
          CFI FunCall BUTTON_SetBmpFileName
        BL       BUTTON_SetBmpFileName
//  398         BUTTON_SetBmpFileName(ProbeZSpeed_value.btnHandle, "bmp_value_blank.bin",1);
        LDRSH    R0,[R11, #+24]
        MOVS     R2,#+1
        MOV      R1,R8
          CFI FunCall BUTTON_SetBmpFileName
        BL       BUTTON_SetBmpFileName
//  399 
//  400         BUTTON_SetBmpFileName(ProbeYoffset_default.btnHandle, "bmp_default.bin",1);
        ADR.W    R8,`?<Constant "bmp_default.bin">`
        LDRSH    R0,[R9, #+24]
        MOVS     R2,#+1
        MOV      R1,R8
          CFI FunCall BUTTON_SetBmpFileName
        BL       BUTTON_SetBmpFileName
//  401         BUTTON_SetBmpFileName(ProbeZoffset_default.btnHandle, "bmp_default.bin",1);
        LDR.W    R0,??DataTable10_1
        LDRSH    R0,[R0, #+0]
        MOVS     R2,#+1
        MOV      R1,R8
          CFI FunCall BUTTON_SetBmpFileName
        BL       BUTTON_SetBmpFileName
//  402         BUTTON_SetBmpFileName(ProbeXYSpeed_default.btnHandle, "bmp_default.bin",1);
        LDR.W    R0,??DataTable10_1
        LDRSH    R0,[R0, #+24]
        MOVS     R2,#+1
        MOV      R1,R8
          CFI FunCall BUTTON_SetBmpFileName
        BL       BUTTON_SetBmpFileName
//  403         BUTTON_SetBmpFileName(ProbeZSpeed_default.btnHandle, "bmp_default.bin",1);
        LDRSH    R0,[R10, #+0]
        MOVS     R2,#+1
        MOV      R1,R8
          CFI FunCall BUTTON_SetBmpFileName
        BL       BUTTON_SetBmpFileName
//  404         
//  405         BUTTON_SetBmpFileName(ProbeYoffset_text.btnHandle,NULL,1);
        LDRSH    R0,[R4, #+96]
        MOVS     R2,#+1
        MOVS     R1,#+0
          CFI FunCall BUTTON_SetBmpFileName
        BL       BUTTON_SetBmpFileName
//  406         BUTTON_SetBmpFileName(ProbeZoffset_text.btnHandle,NULL,1);  
        LDRSH    R0,[R4, #+120]
        MOVS     R2,#+1
        MOVS     R1,#+0
          CFI FunCall BUTTON_SetBmpFileName
        BL       BUTTON_SetBmpFileName
//  407         BUTTON_SetBmpFileName(ProbeXYSpeed_text.btnHandle,NULL,1);
        LDRSH    R0,[R4, #+144]
        MOVS     R2,#+1
        MOVS     R1,#+0
          CFI FunCall BUTTON_SetBmpFileName
        BL       BUTTON_SetBmpFileName
//  408         BUTTON_SetBmpFileName(ProbeZSpeed_text.btnHandle,NULL,1);  
        LDRSH    R0,[R4, #+168]
        MOVS     R2,#+1
        MOVS     R1,#+0
          CFI FunCall BUTTON_SetBmpFileName
        BL       BUTTON_SetBmpFileName
//  409         
//  410         BUTTON_SetBitmapEx(ProbeYoffset_value.btnHandle,0,&bmp_struct70X28,0,0);
        MOVS     R0,#+0
        STR      R0,[SP, #+0]
        MOV      R1,R0
        LDR.W    R0,??draw_LevelingPara_1
        LDR.W    R8,??DataTable10_14
        LDRSH    R0,[R0, R1]
        MOVS     R3,#+0
        MOV      R2,R8
          CFI FunCall BUTTON_SetBitmapEx
        BL       BUTTON_SetBitmapEx
//  411         BUTTON_SetBitmapEx(ProbeZoffset_value.btnHandle,0,&bmp_struct70X28,0,0); 
        MOVS     R0,#+0
        STR      R0,[SP, #+0]
        MOV      R3,R0
        MOV      R1,R0
        LDR.W    R0,??draw_LevelingPara_1
        LDRSH    R0,[R0, #+24]
        MOV      R2,R8
          CFI FunCall BUTTON_SetBitmapEx
        BL       BUTTON_SetBitmapEx
//  412         BUTTON_SetBitmapEx(ProbeXYSpeed_value.btnHandle,0,&bmp_struct70X28,0,0);
        MOVS     R0,#+0
        STR      R0,[SP, #+0]
        MOV      R3,R0
        MOV      R1,R0
        LDRSH    R0,[R11, #+0]
        MOV      R2,R8
          CFI FunCall BUTTON_SetBitmapEx
        BL       BUTTON_SetBitmapEx
//  413         BUTTON_SetBitmapEx(ProbeZSpeed_value.btnHandle,0,&bmp_struct70X28,0,0); 
        MOVS     R0,#+0
        STR      R0,[SP, #+0]
        MOV      R3,R0
        MOV      R1,R0
        LDRSH    R0,[R11, #+24]
        MOV      R2,R8
          CFI FunCall BUTTON_SetBitmapEx
        BL       BUTTON_SetBitmapEx
//  414         
//  415         BUTTON_SetBitmapEx(ProbeYoffset_default.btnHandle,0,&bmp_struct70X28,0,0);
        MOVS     R0,#+0
        STR      R0,[SP, #+0]
        MOV      R3,R0
        MOV      R1,R0
        LDRSH    R0,[R9, #+24]
        MOV      R2,R8
          CFI FunCall BUTTON_SetBitmapEx
        BL       BUTTON_SetBitmapEx
//  416         BUTTON_SetBitmapEx(ProbeZoffset_default.btnHandle,0,&bmp_struct70X28,0,0); 
        MOVS     R0,#+0
        STR      R0,[SP, #+0]
        MOV      R3,R0
        MOV      R1,R0
        LDR.W    R0,??DataTable10_1
        LDRSH    R0,[R0, R1]
        MOV      R2,R8
          CFI FunCall BUTTON_SetBitmapEx
        BL       BUTTON_SetBitmapEx
//  417         BUTTON_SetBitmapEx(ProbeXYSpeed_default.btnHandle,0,&bmp_struct70X28,0,0);
        MOVS     R0,#+0
        STR      R0,[SP, #+0]
        MOV      R3,R0
        MOV      R1,R0
        LDR.W    R0,??DataTable10_1
        LDRSH    R0,[R0, #+24]
        MOV      R2,R8
          CFI FunCall BUTTON_SetBitmapEx
        BL       BUTTON_SetBitmapEx
//  418         BUTTON_SetBitmapEx(ProbeZSpeed_default.btnHandle,0,&bmp_struct70X28,0,0); 
        MOVS     R0,#+0
        STR      R0,[SP, #+0]
        MOV      R3,R0
        MOV      R1,R0
        LDRSH    R0,[R10, #+0]
        MOV      R2,R8
          CFI FunCall BUTTON_SetBitmapEx
        BL       BUTTON_SetBitmapEx
//  419         
//  420         BUTTON_SetTextAlign(ProbeYoffset_text.btnHandle,GUI_TA_LEFT|GUI_TA_VCENTER );
        LDRSH    R0,[R4, #+96]
        MOVS     R1,#+12
          CFI FunCall BUTTON_SetTextAlign
        BL       BUTTON_SetTextAlign
//  421         BUTTON_SetTextAlign(ProbeZoffset_text.btnHandle,GUI_TA_LEFT|GUI_TA_VCENTER );   
        LDRSH    R0,[R4, #+120]
        MOVS     R1,#+12
          CFI FunCall BUTTON_SetTextAlign
        BL       BUTTON_SetTextAlign
//  422         BUTTON_SetTextAlign(ProbeXYSpeed_text.btnHandle,GUI_TA_LEFT|GUI_TA_VCENTER );
        LDRSH    R0,[R4, #+144]
        MOVS     R1,#+12
          CFI FunCall BUTTON_SetTextAlign
        BL       BUTTON_SetTextAlign
//  423         BUTTON_SetTextAlign(ProbeZSpeed_text.btnHandle,GUI_TA_LEFT|GUI_TA_VCENTER ); 
        LDRSH    R0,[R4, #+168]
        MOVS     R1,#+12
          CFI FunCall BUTTON_SetTextAlign
        BL       BUTTON_SetTextAlign
//  424         
//  425         BUTTON_SetTextAlign(ProbeYoffset_value.btnHandle,GUI_TA_HCENTER|GUI_TA_VCENTER );
        LDR.W    R0,??draw_LevelingPara_1
        LDRSH    R0,[R0, #+0]
        MOVS     R1,#+14
          CFI FunCall BUTTON_SetTextAlign
        BL       BUTTON_SetTextAlign
//  426         BUTTON_SetTextAlign(ProbeZoffset_value.btnHandle,GUI_TA_HCENTER|GUI_TA_VCENTER );   
        LDR.W    R0,??draw_LevelingPara_1
        LDRSH    R0,[R0, #+24]
        MOVS     R1,#+14
          CFI FunCall BUTTON_SetTextAlign
        BL       BUTTON_SetTextAlign
//  427         BUTTON_SetTextAlign(ProbeXYSpeed_value.btnHandle,GUI_TA_HCENTER|GUI_TA_VCENTER );
        LDRSH    R0,[R11, #+0]
        MOVS     R1,#+14
          CFI FunCall BUTTON_SetTextAlign
        BL       BUTTON_SetTextAlign
//  428         BUTTON_SetTextAlign(ProbeZSpeed_value.btnHandle,GUI_TA_HCENTER|GUI_TA_VCENTER ); 
        LDRSH    R0,[R11, #+24]
        MOVS     R1,#+14
          CFI FunCall BUTTON_SetTextAlign
        BL       BUTTON_SetTextAlign
//  429         BUTTON_SetTextAlign(ProbeYoffset_default.btnHandle,GUI_TA_HCENTER|GUI_TA_VCENTER );
        LDRSH    R0,[R9, #+24]
        MOVS     R1,#+14
          CFI FunCall BUTTON_SetTextAlign
        BL       BUTTON_SetTextAlign
//  430         BUTTON_SetTextAlign(ProbeZoffset_default.btnHandle,GUI_TA_HCENTER|GUI_TA_VCENTER );   
        LDR.W    R0,??DataTable10_1
        LDRSH    R0,[R0, #+0]
        MOVS     R1,#+14
          CFI FunCall BUTTON_SetTextAlign
        BL       BUTTON_SetTextAlign
//  431         BUTTON_SetTextAlign(ProbeXYSpeed_default.btnHandle,GUI_TA_HCENTER|GUI_TA_VCENTER );
        LDR.W    R0,??DataTable10_1
        LDRSH    R0,[R0, #+24]
        MOVS     R1,#+14
          CFI FunCall BUTTON_SetTextAlign
        BL       BUTTON_SetTextAlign
//  432         BUTTON_SetTextAlign(ProbeZSpeed_default.btnHandle,GUI_TA_HCENTER|GUI_TA_VCENTER );         
        LDRSH    R0,[R10, #+0]
        MOVS     R1,#+14
          CFI FunCall BUTTON_SetTextAlign
        BL       BUTTON_SetTextAlign
//  433 
//  434         button_previous.btnHandle = BUTTON_CreateEx(320,270,70,40,hLevelingParaWnd,BUTTON_CF_SHOW,0,alloc_win_id());
          CFI FunCall alloc_win_id
        BL       alloc_win_id
        STR      R0,[SP, #+12]
        MOVS     R3,#+40
        MOVS     R0,#+0
        STR      R0,[SP, #+8]
        MOVS     R2,#+70
        MOVS     R0,#+2
        STR      R0,[SP, #+4]
        MOV      R1,#+270
        LDRSH    R0,[R5, R0]
        STR      R0,[SP, #+0]
        MOV      R0,#+320
          CFI FunCall BUTTON_CreateEx
        BL       BUTTON_CreateEx
        LDR.W    R1,??DataTable10_17
        STRH     R0,[R1, #+0]
//  435         BUTTON_SetBmpFileName(button_previous.btnHandle, "bmp_previous.bin",1); 
        MOVS     R2,#+1
        ADR.W    R1,`?<Constant "bmp_previous.bin">`
          CFI FunCall BUTTON_SetBmpFileName
        BL       BUTTON_SetBmpFileName
//  436         
//  437         BUTTON_SetBitmapEx(button_previous.btnHandle, 0, &bmp_struct70X40,0, 0);
        LDR.W    R2,??DataTable10_15
        MOVS     R0,#+0
        STR      R0,[SP, #+0]
        MOV      R3,R0
        MOV      R1,R0
        LDR.W    R0,??DataTable10_17
        LDRSH    R0,[R0, R1]
          CFI FunCall BUTTON_SetBitmapEx
        BL       BUTTON_SetBitmapEx
//  438 
//  439         BUTTON_SetBkColor(ProbeYoffset_value.btnHandle, BUTTON_CI_PRESSED, gCfgItems.value_bk_color);
        LDR.W    R0,??DataTable10_16
        LDR      R2,[R0, #+4]
        LDR.W    R0,??draw_LevelingPara_1
        LDRSH    R0,[R0, #+0]
        MOVS     R1,#+1
          CFI FunCall BUTTON_SetBkColor
        BL       BUTTON_SetBkColor
//  440         BUTTON_SetBkColor(ProbeYoffset_value.btnHandle, BUTTON_CI_UNPRESSED, gCfgItems.value_bk_color); 
        LDR.W    R0,??DataTable10_16
        LDR      R2,[R0, #+4]
        LDR.W    R0,??draw_LevelingPara_1
        MOVS     R1,#+0
        LDRSH    R0,[R0, R1]
          CFI FunCall BUTTON_SetBkColor
        BL       BUTTON_SetBkColor
//  441         BUTTON_SetTextColor(ProbeYoffset_value.btnHandle, BUTTON_CI_PRESSED, gCfgItems.value_text_color);
        LDR.W    R0,??draw_LevelingPara_1
        LDR      R2,[R6, #+4]
        LDRSH    R0,[R0, #+0]
        MOVS     R1,#+1
          CFI FunCall BUTTON_SetTextColor
        BL       BUTTON_SetTextColor
//  442         BUTTON_SetTextColor(ProbeYoffset_value.btnHandle, BUTTON_CI_UNPRESSED, gCfgItems.value_text_color); 
        MOVS     R1,#+0
        LDR.W    R0,??draw_LevelingPara_1
        LDR      R2,[R6, #+4]
        LDRSH    R0,[R0, R1]
          CFI FunCall BUTTON_SetTextColor
        BL       BUTTON_SetTextColor
//  443         
//  444         BUTTON_SetBkColor(ProbeYoffset_default.btnHandle, BUTTON_CI_PRESSED, gCfgItems.default_bk_color);
        LDR      R2,[R6, #+8]
        LDRSH    R0,[R9, #+24]
        MOVS     R1,#+1
          CFI FunCall BUTTON_SetBkColor
        BL       BUTTON_SetBkColor
//  445         BUTTON_SetBkColor(ProbeYoffset_default.btnHandle, BUTTON_CI_UNPRESSED, gCfgItems.default_bk_color); 
        LDR      R2,[R6, #+8]
        LDRSH    R0,[R9, #+24]
        MOVS     R1,#+0
          CFI FunCall BUTTON_SetBkColor
        BL       BUTTON_SetBkColor
//  446         BUTTON_SetTextColor(ProbeYoffset_default.btnHandle, BUTTON_CI_PRESSED, gCfgItems.default_text_color);
        LDR      R2,[R6, #+12]
        LDRSH    R0,[R9, #+24]
        MOVS     R1,#+1
          CFI FunCall BUTTON_SetTextColor
        BL       BUTTON_SetTextColor
//  447         BUTTON_SetTextColor(ProbeYoffset_default.btnHandle, BUTTON_CI_UNPRESSED, gCfgItems.default_text_color); 
        LDR      R2,[R6, #+12]
        LDRSH    R0,[R9, #+24]
        MOVS     R1,#+0
          CFI FunCall BUTTON_SetTextColor
        BL       BUTTON_SetTextColor
//  448 
//  449         BUTTON_SetBkColor(ProbeZoffset_value.btnHandle, BUTTON_CI_PRESSED, gCfgItems.value_bk_color);
        LDR.W    R0,??DataTable10_16
        LDR      R2,[R0, #+4]
        LDR.N    R0,??draw_LevelingPara_1
        LDRSH    R0,[R0, #+24]
        MOVS     R1,#+1
          CFI FunCall BUTTON_SetBkColor
        BL       BUTTON_SetBkColor
//  450         BUTTON_SetBkColor(ProbeZoffset_value.btnHandle, BUTTON_CI_UNPRESSED, gCfgItems.value_bk_color); 
        LDR.W    R0,??DataTable10_16
        LDR      R2,[R0, #+4]
        LDR.N    R0,??draw_LevelingPara_1
        LDRSH    R0,[R0, #+24]
        MOVS     R1,#+0
          CFI FunCall BUTTON_SetBkColor
        BL       BUTTON_SetBkColor
//  451         BUTTON_SetTextColor(ProbeZoffset_value.btnHandle, BUTTON_CI_PRESSED, gCfgItems.value_text_color);
        LDR.N    R0,??draw_LevelingPara_1
        LDR      R2,[R6, #+4]
        LDRSH    R0,[R0, #+24]
        MOVS     R1,#+1
          CFI FunCall BUTTON_SetTextColor
        BL       BUTTON_SetTextColor
//  452         BUTTON_SetTextColor(ProbeZoffset_value.btnHandle, BUTTON_CI_UNPRESSED, gCfgItems.value_text_color); 
        LDR.N    R0,??draw_LevelingPara_1
        LDR      R2,[R6, #+4]
        LDRSH    R0,[R0, #+24]
        MOVS     R1,#+0
          CFI FunCall BUTTON_SetTextColor
        BL       BUTTON_SetTextColor
//  453         
//  454         BUTTON_SetBkColor(ProbeZoffset_default.btnHandle, BUTTON_CI_PRESSED, gCfgItems.default_bk_color);
        LDR.W    R0,??DataTable10_1
        LDR      R2,[R6, #+8]
        LDRSH    R0,[R0, #+0]
        MOVS     R1,#+1
          CFI FunCall BUTTON_SetBkColor
        BL       BUTTON_SetBkColor
//  455         BUTTON_SetBkColor(ProbeZoffset_default.btnHandle, BUTTON_CI_UNPRESSED, gCfgItems.default_bk_color); 
        MOVS     R1,#+0
        LDR.W    R0,??DataTable10_1
        LDR      R2,[R6, #+8]
        LDRSH    R0,[R0, R1]
          CFI FunCall BUTTON_SetBkColor
        BL       BUTTON_SetBkColor
//  456         BUTTON_SetTextColor(ProbeZoffset_default.btnHandle, BUTTON_CI_PRESSED, gCfgItems.default_text_color);
        LDR.W    R0,??DataTable10_1
        LDR      R2,[R6, #+12]
        LDRSH    R0,[R0, #+0]
        MOVS     R1,#+1
          CFI FunCall BUTTON_SetTextColor
        BL       BUTTON_SetTextColor
//  457         BUTTON_SetTextColor(ProbeZoffset_default.btnHandle, BUTTON_CI_UNPRESSED, gCfgItems.default_text_color); 
        MOVS     R1,#+0
        LDR.W    R0,??DataTable10_1
        LDR      R2,[R6, #+12]
        LDRSH    R0,[R0, R1]
          CFI FunCall BUTTON_SetTextColor
        BL       BUTTON_SetTextColor
//  458 
//  459         BUTTON_SetBkColor(ProbeXYSpeed_value.btnHandle, BUTTON_CI_PRESSED, gCfgItems.value_bk_color);
        LDR.W    R0,??DataTable10_16
        LDR      R2,[R0, #+4]
        LDRSH    R0,[R11, #+0]
        MOVS     R1,#+1
          CFI FunCall BUTTON_SetBkColor
        BL       BUTTON_SetBkColor
//  460         BUTTON_SetBkColor(ProbeXYSpeed_value.btnHandle, BUTTON_CI_UNPRESSED, gCfgItems.value_bk_color); 
        LDR.W    R0,??DataTable10_16
        LDR      R2,[R0, #+4]
        LDRSH    R0,[R11, #+0]
        MOVS     R1,#+0
          CFI FunCall BUTTON_SetBkColor
        BL       BUTTON_SetBkColor
//  461         BUTTON_SetTextColor(ProbeXYSpeed_value.btnHandle, BUTTON_CI_PRESSED, gCfgItems.value_text_color);
        LDR      R2,[R6, #+4]
        LDRSH    R0,[R11, #+0]
        MOVS     R1,#+1
          CFI FunCall BUTTON_SetTextColor
        BL       BUTTON_SetTextColor
//  462         BUTTON_SetTextColor(ProbeXYSpeed_value.btnHandle, BUTTON_CI_UNPRESSED, gCfgItems.value_text_color); 
        LDR      R2,[R6, #+4]
        LDRSH    R0,[R11, #+0]
        MOVS     R1,#+0
          CFI FunCall BUTTON_SetTextColor
        BL       BUTTON_SetTextColor
//  463         
//  464         BUTTON_SetBkColor(ProbeXYSpeed_default.btnHandle, BUTTON_CI_PRESSED, gCfgItems.default_bk_color);
        LDR.W    R0,??DataTable10_1
        LDR      R2,[R6, #+8]
        LDRSH    R0,[R0, #+24]
        MOVS     R1,#+1
          CFI FunCall BUTTON_SetBkColor
        BL       BUTTON_SetBkColor
//  465         BUTTON_SetBkColor(ProbeXYSpeed_default.btnHandle, BUTTON_CI_UNPRESSED, gCfgItems.default_bk_color); 
        LDR.N    R0,??DataTable10_1
        LDR      R2,[R6, #+8]
        LDRSH    R0,[R0, #+24]
        MOVS     R1,#+0
          CFI FunCall BUTTON_SetBkColor
        BL       BUTTON_SetBkColor
//  466         BUTTON_SetTextColor(ProbeXYSpeed_default.btnHandle, BUTTON_CI_PRESSED, gCfgItems.default_text_color);
        LDR.N    R0,??DataTable10_1
        LDR      R2,[R6, #+12]
        LDRSH    R0,[R0, #+24]
        MOVS     R1,#+1
          CFI FunCall BUTTON_SetTextColor
        BL       BUTTON_SetTextColor
//  467         BUTTON_SetTextColor(ProbeXYSpeed_default.btnHandle, BUTTON_CI_UNPRESSED, gCfgItems.default_text_color); 
        LDR.N    R0,??DataTable10_1
        LDR      R2,[R6, #+12]
        LDRSH    R0,[R0, #+24]
        MOVS     R1,#+0
          CFI FunCall BUTTON_SetTextColor
        BL       BUTTON_SetTextColor
//  468 
//  469         BUTTON_SetBkColor(ProbeZSpeed_value.btnHandle, BUTTON_CI_PRESSED, gCfgItems.value_bk_color);
        LDR.W    R0,??DataTable10_16
        LDR      R2,[R0, #+4]
        LDRSH    R0,[R11, #+24]
        MOVS     R1,#+1
          CFI FunCall BUTTON_SetBkColor
        BL       BUTTON_SetBkColor
//  470         BUTTON_SetBkColor(ProbeZSpeed_value.btnHandle, BUTTON_CI_UNPRESSED, gCfgItems.value_bk_color); 
        LDR.N    R0,??DataTable10_16
        LDR      R2,[R0, #+4]
        LDRSH    R0,[R11, #+24]
        MOVS     R1,#+0
          CFI FunCall BUTTON_SetBkColor
        BL       BUTTON_SetBkColor
//  471         BUTTON_SetTextColor(ProbeZSpeed_value.btnHandle, BUTTON_CI_PRESSED, gCfgItems.value_text_color);
        LDR      R2,[R6, #+4]
        LDRSH    R0,[R11, #+24]
        MOVS     R1,#+1
          CFI FunCall BUTTON_SetTextColor
        BL       BUTTON_SetTextColor
//  472         BUTTON_SetTextColor(ProbeZSpeed_value.btnHandle, BUTTON_CI_UNPRESSED, gCfgItems.value_text_color); 
        LDR      R2,[R6, #+4]
        LDRSH    R0,[R11, #+24]
        MOVS     R1,#+0
          CFI FunCall BUTTON_SetTextColor
        BL       BUTTON_SetTextColor
//  473         
//  474         BUTTON_SetBkColor(ProbeZSpeed_default.btnHandle, BUTTON_CI_PRESSED, gCfgItems.default_bk_color);
        LDR      R2,[R6, #+8]
        LDRSH    R0,[R10, #+0]
        MOVS     R1,#+1
          CFI FunCall BUTTON_SetBkColor
        BL       BUTTON_SetBkColor
//  475         BUTTON_SetBkColor(ProbeZSpeed_default.btnHandle, BUTTON_CI_UNPRESSED, gCfgItems.default_bk_color); 
        LDR      R2,[R6, #+8]
        LDRSH    R0,[R10, #+0]
        MOVS     R1,#+0
          CFI FunCall BUTTON_SetBkColor
        BL       BUTTON_SetBkColor
//  476         BUTTON_SetTextColor(ProbeZSpeed_default.btnHandle, BUTTON_CI_PRESSED, gCfgItems.default_text_color);
        LDR      R2,[R6, #+12]
        LDRSH    R0,[R10, #+0]
        MOVS     R1,#+1
          CFI FunCall BUTTON_SetTextColor
        BL       BUTTON_SetTextColor
//  477         BUTTON_SetTextColor(ProbeZSpeed_default.btnHandle, BUTTON_CI_UNPRESSED, gCfgItems.default_text_color); 
        LDR      R2,[R6, #+12]
        LDRSH    R0,[R10, #+0]
        MOVS     R1,#+0
          CFI FunCall BUTTON_SetTextColor
        BL       BUTTON_SetTextColor
//  478 
//  479         memset(cmd_code,0,sizeof(cmd_code));
        LDR.W    R8,??DataTable9_1
        MOVS     R1,#+201
        MOV      R0,R8
          CFI FunCall __aeabi_memclr
        BL       __aeabi_memclr
//  480         sprintf(cmd_code,"%.1f",mksCfg.y_probe_offset_from_extruder);
        LDR.N    R0,??DataTable10_18
        STR      R0,[SP, #+0]
        LDR      R0,[R0, #+4]
          CFI FunCall __aeabi_f2d
        BL       __aeabi_f2d
        MOV      R2,R0
        MOV      R3,R1
        ADR.W    R1,`?<Constant "%.1f">`
        MOV      R0,R8
          CFI FunCall sprintf
        BL       sprintf
//  481         BUTTON_SetText(ProbeYoffset_value.btnHandle,cmd_code);  
        LDR.N    R0,??draw_LevelingPara_1
        LDRSH    R0,[R0, #+0]
        MOV      R1,R8
          CFI FunCall BUTTON_SetText
        BL       BUTTON_SetText
//  482         memset(cmd_code,0,sizeof(cmd_code));
        MOVS     R1,#+201
        MOV      R0,R8
          CFI FunCall __aeabi_memclr
        BL       __aeabi_memclr
//  483         sprintf(cmd_code,"%.1f",zprobe_zoffset);
        LDR.N    R0,??DataTable10_2
        LDR      R0,[R0, #+0]
          CFI FunCall __aeabi_f2d
        BL       __aeabi_f2d
        MOV      R2,R0
        MOV      R3,R1
        ADR.W    R1,`?<Constant "%.1f">`
        MOV      R0,R8
          CFI FunCall sprintf
        BL       sprintf
//  484         BUTTON_SetText(ProbeZoffset_value.btnHandle,cmd_code);   
        LDR.N    R0,??draw_LevelingPara_1
        LDRSH    R0,[R0, #+24]
        MOV      R1,R8
          CFI FunCall BUTTON_SetText
        BL       BUTTON_SetText
//  485 
//  486         memset(cmd_code,0,sizeof(cmd_code));
        MOVS     R1,#+201
        MOV      R0,R8
          CFI FunCall __aeabi_memclr
        BL       __aeabi_memclr
//  487         sprintf(cmd_code,"%.1f",mksCfg.xy_probe_speed);
        LDR      R0,[SP, #+0]
        LDR      R0,[R0, #+8]
          CFI FunCall __aeabi_f2d
        BL       __aeabi_f2d
        MOV      R2,R0
        MOV      R3,R1
        ADR.W    R1,`?<Constant "%.1f">`
        MOV      R0,R8
          CFI FunCall sprintf
        BL       sprintf
//  488         BUTTON_SetText(ProbeXYSpeed_value.btnHandle,cmd_code); 
        LDRSH    R0,[R11, #+0]
        MOV      R1,R8
          CFI FunCall BUTTON_SetText
        BL       BUTTON_SetText
//  489         memset(cmd_code,0,sizeof(cmd_code));
        MOVS     R1,#+201
        MOV      R0,R8
          CFI FunCall __aeabi_memclr
        BL       __aeabi_memclr
//  490         sprintf(cmd_code,"%.1f",mksCfg.z_probe_speed_fast);
        LDR      R0,[SP, #+0]
        LDR      R0,[R0, #+12]
          CFI FunCall __aeabi_f2d
        BL       __aeabi_f2d
        MOV      R2,R0
        MOV      R3,R1
        ADR.W    R1,`?<Constant "%.1f">`
        MOV      R0,R8
          CFI FunCall sprintf
        BL       sprintf
//  491         BUTTON_SetText(ProbeZSpeed_value.btnHandle,cmd_code);        
        LDRSH    R0,[R11, #+24]
        MOV      R1,R8
??draw_LevelingPara_4:
          CFI FunCall BUTTON_SetText
        BL       BUTTON_SetText
//  492     }
//  493 
//  494      button_back.btnHandle = BUTTON_CreateEx(400,270,70,40,hLevelingParaWnd,BUTTON_CF_SHOW,0,alloc_win_id());
          CFI FunCall alloc_win_id
        BL       alloc_win_id
        STR      R0,[SP, #+12]
        MOVS     R3,#+40
        MOVS     R0,#+0
        STR      R0,[SP, #+8]
        MOVS     R2,#+70
        MOVS     R0,#+2
        STR      R0,[SP, #+4]
        MOV      R1,#+270
        LDRSH    R0,[R5, R0]
        STR      R0,[SP, #+0]
        MOV      R0,#+400
          CFI FunCall BUTTON_CreateEx
        BL       BUTTON_CreateEx
        LDR.N    R1,??DataTable10_17
        STRH     R0,[R1, #+24]
//  495      
//  496      BUTTON_SetBmpFileName(button_back.btnHandle, "bmp_back70x40.bin",1);        
        MOVS     R2,#+1
        ADR.W    R1,`?<Constant "bmp_back70x40.bin">`
          CFI FunCall BUTTON_SetBmpFileName
        BL       BUTTON_SetBmpFileName
//  497      BUTTON_SetBitmapEx(button_back.btnHandle, 0, &bmp_struct70X40,0, 0);
        LDR.N    R2,??DataTable10_15
        MOVS     R0,#+0
        STR      R0,[SP, #+0]
        MOV      R1,R0
        LDR.N    R0,??DataTable10_17
        LDRSH    R0,[R0, #+24]
        MOVS     R3,#+0
          CFI FunCall BUTTON_SetBitmapEx
        BL       BUTTON_SetBitmapEx
//  498         
//  499      BUTTON_SetBkColor(button_next.btnHandle, BUTTON_CI_PRESSED, gCfgItems.back_btn_color);
        LDR      R2,[R6, #+72]
        LDRSH    R0,[R10, #+24]
        MOVS     R1,#+1
          CFI FunCall BUTTON_SetBkColor
        BL       BUTTON_SetBkColor
//  500      BUTTON_SetBkColor(button_next.btnHandle, BUTTON_CI_UNPRESSED, gCfgItems.back_btn_color); 
        LDR      R2,[R6, #+72]
        LDRSH    R0,[R10, #+24]
        MOVS     R1,#+0
          CFI FunCall BUTTON_SetBkColor
        BL       BUTTON_SetBkColor
//  501      BUTTON_SetTextColor(button_next.btnHandle, BUTTON_CI_PRESSED, gCfgItems.back_btn_textcolor);
        LDR      R2,[R6, #+76]
        LDRSH    R0,[R10, #+24]
        MOVS     R1,#+1
          CFI FunCall BUTTON_SetTextColor
        BL       BUTTON_SetTextColor
//  502      BUTTON_SetTextColor(button_next.btnHandle, BUTTON_CI_UNPRESSED, gCfgItems.back_btn_textcolor);
        LDR      R2,[R6, #+76]
        LDRSH    R0,[R10, #+24]
        MOVS     R1,#+0
          CFI FunCall BUTTON_SetTextColor
        BL       BUTTON_SetTextColor
//  503      BUTTON_SetBkColor(button_previous.btnHandle, BUTTON_CI_PRESSED, gCfgItems.back_btn_color);
        LDR.N    R0,??DataTable10_17
        LDR      R2,[R6, #+72]
        LDRSH    R0,[R0, #+0]
        MOVS     R1,#+1
          CFI FunCall BUTTON_SetBkColor
        BL       BUTTON_SetBkColor
//  504      BUTTON_SetBkColor(button_previous.btnHandle, BUTTON_CI_UNPRESSED, gCfgItems.back_btn_color);    
        MOVS     R1,#+0
        LDR.N    R0,??DataTable10_17
        LDR      R2,[R6, #+72]
        LDRSH    R0,[R0, R1]
          CFI FunCall BUTTON_SetBkColor
        BL       BUTTON_SetBkColor
//  505      BUTTON_SetTextColor(button_previous.btnHandle, BUTTON_CI_PRESSED, gCfgItems.back_btn_textcolor);
        LDR.N    R0,??DataTable10_17
        LDR      R2,[R6, #+76]
        LDRSH    R0,[R0, #+0]
        MOVS     R1,#+1
          CFI FunCall BUTTON_SetTextColor
        BL       BUTTON_SetTextColor
//  506      BUTTON_SetTextColor(button_previous.btnHandle, BUTTON_CI_UNPRESSED, gCfgItems.back_btn_textcolor);    
        MOVS     R1,#+0
        LDR.N    R0,??DataTable10_17
        LDR      R2,[R6, #+76]
        LDRSH    R0,[R0, R1]
          CFI FunCall BUTTON_SetTextColor
        BL       BUTTON_SetTextColor
//  507      BUTTON_SetBkColor(button_back.btnHandle, BUTTON_CI_PRESSED, gCfgItems.back_btn_color);
        LDR.N    R0,??DataTable10_17
        LDR      R2,[R6, #+72]
        LDRSH    R0,[R0, #+24]
        MOVS     R1,#+1
          CFI FunCall BUTTON_SetBkColor
        BL       BUTTON_SetBkColor
//  508      BUTTON_SetBkColor(button_back.btnHandle, BUTTON_CI_UNPRESSED, gCfgItems.back_btn_color); 
        LDR.N    R0,??DataTable10_17
        LDR      R2,[R6, #+72]
        LDRSH    R0,[R0, #+24]
        MOVS     R1,#+0
          CFI FunCall BUTTON_SetBkColor
        BL       BUTTON_SetBkColor
//  509      BUTTON_SetTextColor(button_back.btnHandle, BUTTON_CI_PRESSED, gCfgItems.back_btn_textcolor);
        LDR.N    R0,??DataTable10_17
        LDR      R2,[R6, #+76]
        LDRSH    R0,[R0, #+24]
        MOVS     R1,#+1
          CFI FunCall BUTTON_SetTextColor
        BL       BUTTON_SetTextColor
//  510      BUTTON_SetTextColor(button_back.btnHandle, BUTTON_CI_UNPRESSED, gCfgItems.back_btn_textcolor); 
        LDR.N    R0,??DataTable10_17
        LDR      R2,[R6, #+76]
        LDRSH    R0,[R0, #+24]
        MOVS     R1,#+0
          CFI FunCall BUTTON_SetTextColor
        BL       BUTTON_SetTextColor
//  511      
//  512      BUTTON_SetTextAlign(button_next.btnHandle,GUI_TA_HCENTER|GUI_TA_VCENTER );
        LDRSH    R0,[R10, #+24]
        MOVS     R1,#+14
          CFI FunCall BUTTON_SetTextAlign
        BL       BUTTON_SetTextAlign
//  513      BUTTON_SetTextAlign(button_previous.btnHandle,GUI_TA_HCENTER|GUI_TA_VCENTER );
        LDR.N    R0,??DataTable10_17
        LDRSH    R0,[R0, #+0]
        MOVS     R1,#+14
          CFI FunCall BUTTON_SetTextAlign
        BL       BUTTON_SetTextAlign
//  514      BUTTON_SetTextAlign(button_back.btnHandle,GUI_TA_HCENTER|GUI_TA_VCENTER );
        LDR.N    R0,??DataTable10_17
        LDRSH    R0,[R0, #+24]
        MOVS     R1,#+14
          CFI FunCall BUTTON_SetTextAlign
        BL       BUTTON_SetTextAlign
//  515 
//  516      if(gCfgItems.multiple_language != 0)
        LDR.N    R0,??DataTable10_16
        LDRB     R0,[R0, #+463]
        CMP      R0,#+0
        BEQ.W    ??draw_LevelingPara_5
//  517      {
//  518         if(current_page != 1)
        LDRB     R0,[R5, #+0]
        CMP      R0,#+1
        BEQ.N    ??draw_LevelingPara_6
//  519         {
//  520             BUTTON_SetText(AutoLevelEnable_text.btnHandle, machine_menu.AutoLevelEnable);
        LDR      R1,[R7, #+200]
        LDRSH    R0,[R4, #+0]
          CFI FunCall BUTTON_SetText
        BL       BUTTON_SetText
//  521             BUTTON_SetText(BLtouchEnable_text.btnHandle, machine_menu.BLtouchEnable);
        LDR      R1,[R7, #+204]
        LDRSH    R0,[R4, #+24]
          CFI FunCall BUTTON_SetText
        BL       BUTTON_SetText
//  522             BUTTON_SetText(ProbePort_text.btnHandle, machine_menu.ProbePort);
        LDR      R1,[R7, #+208]
        LDRSH    R0,[R4, #+48]
          CFI FunCall BUTTON_SetText
        BL       BUTTON_SetText
//  523             BUTTON_SetText(ProbeXoffset_text.btnHandle, machine_menu.ProbeXoffset);
        LDR      R1,[R7, #+212]
        LDRSH    R0,[R4, #+72]
          CFI FunCall BUTTON_SetText
        BL       BUTTON_SetText
//  524             BUTTON_SetText(button_next.btnHandle,machine_menu.next);
        LDR      R1,[R7, #+4]
        LDRSH    R0,[R10, #+24]
          CFI FunCall BUTTON_SetText
        BL       BUTTON_SetText
//  525 
//  526             if(mksCfg.bed_leveling_method==8)
        LDR.N    R1,??DataTable10_19
        LDRSH    R0,[R5, #+4]
        LDRB     R1,[R1, #+66]
        CMP      R1,#+8
        ITE      EQ 
//  527                 BUTTON_SetText(AutoLevelEnable.btnHandle,machine_menu.enable);
        LDREQ    R1,[R7, #+232]
//  528             else
//  529                 BUTTON_SetText(AutoLevelEnable.btnHandle,machine_menu.disable);
        LDRNE    R1,[R7, #+236]
          CFI FunCall BUTTON_SetText
        BL       BUTTON_SetText
//  530 
//  531             if(mksCfg.mkstouch==1)
        LDR.N    R1,??DataTable10_19
        LDRSH    R0,[R5, #+28]
        LDRB     R1,[R1, #+256]
        CMP      R1,#+1
        ITE      EQ 
//  532                 BUTTON_SetText(BLtouchEnable.btnHandle,machine_menu.enable);
        LDREQ    R1,[R7, #+232]
//  533             else
//  534                 BUTTON_SetText(BLtouchEnable.btnHandle,machine_menu.disable); 
        LDRNE    R1,[R7, #+236]
          CFI FunCall BUTTON_SetText
        BL       BUTTON_SetText
//  535             
//  536             if(mksCfg.z_min_probe_pin_mode==1)
        LDR.N    R1,??DataTable10_19
        LDR.N    R0,??DataTable10_20
        LDRB     R1,[R1, #+153]
        LDRSH    R0,[R0, #+0]
        CMP      R1,#+1
        ITE      EQ 
//  537                 BUTTON_SetText(ProbePort.btnHandle,machine_menu.z_min);
        LDREQ    R1,[R7, #+240]
//  538             else
//  539                 BUTTON_SetText(ProbePort.btnHandle,machine_menu.z_max);  
        LDRNE    R1,[R7, #+244]
          CFI FunCall BUTTON_SetText
        BL       BUTTON_SetText
//  540 
//  541             BUTTON_SetText(ProbeXoffset_default.btnHandle, machine_menu.default_value);
        LDR      R1,[R7, #+0]
        LDRSH    R0,[R9, #+0]
        B.N      ??draw_LevelingPara_7
        DATA
??draw_LevelingPara_1:
        DC32     ProbeYoffset_value
        DC32     ProbeXYSpeed_value
        THUMB
//  542         }
//  543         else
//  544         {
//  545             BUTTON_SetText(ProbeYoffset_text.btnHandle,machine_menu.ProbeYoffset);
??draw_LevelingPara_6:
        LDR      R1,[R7, #+216]
        LDRSH    R0,[R4, #+96]
          CFI FunCall BUTTON_SetText
        BL       BUTTON_SetText
//  546             BUTTON_SetText(ProbeZoffset_text.btnHandle, machine_menu.ProbeZoffset); 
        LDR      R1,[R7, #+220]
        LDRSH    R0,[R4, #+120]
          CFI FunCall BUTTON_SetText
        BL       BUTTON_SetText
//  547             BUTTON_SetText(ProbeXYSpeed_text.btnHandle,machine_menu.ProbeXYspeed);
        LDR      R1,[R7, #+224]
        LDRSH    R0,[R4, #+144]
          CFI FunCall BUTTON_SetText
        BL       BUTTON_SetText
//  548             BUTTON_SetText(ProbeZSpeed_text.btnHandle, machine_menu.ProbeZspeed);            
        LDR      R1,[R7, #+228]
        LDRSH    R0,[R4, #+168]
          CFI FunCall BUTTON_SetText
        BL       BUTTON_SetText
//  549             BUTTON_SetText(button_previous.btnHandle,machine_menu.previous); 
        LDR.N    R0,??DataTable10_17
        LDR      R1,[R7, #+8]
        LDRSH    R0,[R0, #+0]
          CFI FunCall BUTTON_SetText
        BL       BUTTON_SetText
//  550 
//  551             BUTTON_SetText(ProbeYoffset_default.btnHandle, machine_menu.default_value);
        LDR      R1,[R7, #+0]
        LDRSH    R0,[R9, #+24]
          CFI FunCall BUTTON_SetText
        BL       BUTTON_SetText
//  552             BUTTON_SetText(ProbeZoffset_default.btnHandle, machine_menu.default_value);
        LDR.N    R0,??DataTable10_1
        LDR      R1,[R7, #+0]
        LDRSH    R0,[R0, #+0]
          CFI FunCall BUTTON_SetText
        BL       BUTTON_SetText
//  553             BUTTON_SetText(ProbeXYSpeed_default.btnHandle, machine_menu.default_value);
        LDR.N    R0,??DataTable10_1
        LDR      R1,[R7, #+0]
        LDRSH    R0,[R0, #+24]
          CFI FunCall BUTTON_SetText
        BL       BUTTON_SetText
//  554             BUTTON_SetText(ProbeZSpeed_default.btnHandle, machine_menu.default_value);
        LDR      R1,[R7, #+0]
        LDRSH    R0,[R10, #+0]
??draw_LevelingPara_7:
          CFI FunCall BUTTON_SetText
        BL       BUTTON_SetText
//  555         }
//  556          
//  557         BUTTON_SetText(button_back.btnHandle,common_menu.text_back);
        LDR.N    R0,??DataTable10_21
        LDR      R1,[R0, #+0]
        LDR.N    R0,??DataTable10_17
        LDRSH    R0,[R0, #+24]
        ADD      SP,SP,#+20
          CFI CFA R13+36
        POP      {R4-R11,LR}
          CFI R4 SameValue
          CFI R5 SameValue
          CFI R6 SameValue
          CFI R7 SameValue
          CFI R8 SameValue
          CFI R9 SameValue
          CFI R10 SameValue
          CFI R11 SameValue
          CFI R14 SameValue
          CFI CFA R13+0
          CFI FunCall BUTTON_SetText
        B.W      BUTTON_SetText
          CFI R4 Frame(CFA, -36)
          CFI R5 Frame(CFA, -32)
          CFI R6 Frame(CFA, -28)
          CFI R7 Frame(CFA, -24)
          CFI R8 Frame(CFA, -20)
          CFI R9 Frame(CFA, -16)
          CFI R10 Frame(CFA, -12)
          CFI R11 Frame(CFA, -8)
          CFI R14 Frame(CFA, -4)
          CFI CFA R13+56
//  558         
//  559               
//  560      }
//  561 
//  562 }
??draw_LevelingPara_5:
        ADD      SP,SP,#+20
          CFI CFA R13+36
        POP      {R4-R11,PC}      ;; return
          CFI EndBlock cfiBlock1

        SECTION `.text`:CODE:NOROOT(2)
        SECTION_TYPE SHT_PROGBITS, 0
        DATA
??DataTable9:
        DC32     ProbeXoffset_default

        SECTION `.text`:CODE:NOROOT(2)
        SECTION_TYPE SHT_PROGBITS, 0
        DATA
??DataTable9_1:
        DC32     cmd_code
//  563 
//  564 

        SECTION `.text`:CODE:NOROOT(1)
          CFI Block cfiBlock2 Using cfiCommon0
          CFI Function Clear_LevelingPara
        THUMB
//  565 void Clear_LevelingPara()
//  566 {
Clear_LevelingPara:
        PUSH     {R4,LR}
          CFI R14 Frame(CFA, -4)
          CFI R4 Frame(CFA, -8)
          CFI CFA R13+8
//  567 	GUI_SetBkColor(gCfgItems.background_color);
        LDR.N    R0,??DataTable10_16
        LDR      R0,[R0, #+20]
          CFI FunCall GUI_SetBkColor
        BL       GUI_SetBkColor
//  568 	if(WM_IsWindow(hLevelingParaWnd))
        LDR.N    R4,??DataTable10_22
        LDRSH    R0,[R4, #+2]
          CFI FunCall WM_IsWindow
        BL       WM_IsWindow
        CBZ.N    R0,??Clear_LevelingPara_0
//  569 	{
//  570 		WM_DeleteWindow(hLevelingParaWnd);
        LDRSH    R0,[R4, #+2]
        POP      {R4,LR}
          CFI R4 SameValue
          CFI R14 SameValue
          CFI CFA R13+0
          CFI FunCall WM_DeleteWindow
        B.W      WM_DeleteWindow
          CFI R4 Frame(CFA, -8)
          CFI R14 Frame(CFA, -4)
          CFI CFA R13+8
//  571 	}
//  572 }
??Clear_LevelingPara_0:
        POP      {R4,PC}          ;; return
          CFI EndBlock cfiBlock2

        SECTION `.text`:CODE:NOROOT(2)
        SECTION_TYPE SHT_PROGBITS, 0
        DATA
??DataTable10:
        DC32     `?<Constant "%.1f">`

        SECTION `.text`:CODE:NOROOT(2)
        SECTION_TYPE SHT_PROGBITS, 0
        DATA
??DataTable10_1:
        DC32     ProbeZoffset_default

        SECTION `.text`:CODE:NOROOT(2)
        SECTION_TYPE SHT_PROGBITS, 0
        DATA
??DataTable10_2:
        DC32     zprobe_zoffset

        SECTION `.text`:CODE:NOROOT(2)
        SECTION_TYPE SHT_PROGBITS, 0
        DATA
??DataTable10_3:
        DC32     0x457a0000

        SECTION `.text`:CODE:NOROOT(2)
        SECTION_TYPE SHT_PROGBITS, 0
        DATA
??DataTable10_4:
        DC32     0x44160000

        SECTION `.text`:CODE:NOROOT(2)
        SECTION_TYPE SHT_PROGBITS, 0
        DATA
??DataTable10_5:
        DC32     0x43960000

        SECTION `.text`:CODE:NOROOT(2)
        SECTION_TYPE SHT_PROGBITS, 0
        DATA
??DataTable10_6:
        DC32     AutoLevelEnable_text

        SECTION `.text`:CODE:NOROOT(2)
        SECTION_TYPE SHT_PROGBITS, 0
        DATA
??DataTable10_7:
        DC32     disp_state_stack

        SECTION `.text`:CODE:NOROOT(2)
        SECTION_TYPE SHT_PROGBITS, 0
        DATA
??DataTable10_8:
        DC32     disp_state

        SECTION `.text`:CODE:NOROOT(2)
        SECTION_TYPE SHT_PROGBITS, 0
        DATA
??DataTable10_9:
        DC32     gCfgItems+0x4

        SECTION `.text`:CODE:NOROOT(2)
        SECTION_TYPE SHT_PROGBITS, 0
        DATA
??DataTable10_10:
        DC32     machine_menu

        SECTION `.text`:CODE:NOROOT(2)
        SECTION_TYPE SHT_PROGBITS, 0
        DATA
??DataTable10_11:
        DC32     _Z17cbLevelingParaWinP10WM_MESSAGE

        SECTION `.text`:CODE:NOROOT(2)
        SECTION_TYPE SHT_PROGBITS, 0
        DATA
??DataTable10_12:
        DC32     mksCfg+0x100

        SECTION `.text`:CODE:NOROOT(2)
        SECTION_TYPE SHT_PROGBITS, 0
        DATA
??DataTable10_13:
        DC32     bmp_struct90X30

        SECTION `.text`:CODE:NOROOT(2)
        SECTION_TYPE SHT_PROGBITS, 0
        DATA
??DataTable10_14:
        DC32     bmp_struct70X28

        SECTION `.text`:CODE:NOROOT(2)
        SECTION_TYPE SHT_PROGBITS, 0
        DATA
??DataTable10_15:
        DC32     bmp_struct70X40

        SECTION `.text`:CODE:NOROOT(2)
        SECTION_TYPE SHT_PROGBITS, 0
        DATA
??DataTable10_16:
        DC32     gCfgItems

        SECTION `.text`:CODE:NOROOT(2)
        SECTION_TYPE SHT_PROGBITS, 0
        DATA
??DataTable10_17:
        DC32     button_previous

        SECTION `.text`:CODE:NOROOT(2)
        SECTION_TYPE SHT_PROGBITS, 0
        DATA
??DataTable10_18:
        DC32     mksCfg+0x6C

        SECTION `.text`:CODE:NOROOT(2)
        SECTION_TYPE SHT_PROGBITS, 0
        DATA
??DataTable10_19:
        DC32     mksCfg

        SECTION `.text`:CODE:NOROOT(2)
        SECTION_TYPE SHT_PROGBITS, 0
        DATA
??DataTable10_20:
        DC32     ProbePort

        SECTION `.text`:CODE:NOROOT(2)
        SECTION_TYPE SHT_PROGBITS, 0
        DATA
??DataTable10_21:
        DC32     common_menu

        SECTION `.text`:CODE:NOROOT(2)
        SECTION_TYPE SHT_PROGBITS, 0
        DATA
??DataTable10_22:
        DC32     current_page

        SECTION `.text`:CODE:NOROOT(2)
        SECTION_TYPE SHT_PROGBITS, 0
        DATA
`?<Constant "bmp_disable.bin">`:
        DC8 "bmp_disable.bin"

        SECTION `.text`:CODE:NOROOT(2)
        SECTION_TYPE SHT_PROGBITS, 0
        DATA
`?<Constant "bmp_enable.bin">`:
        DC8 "bmp_enable.bin"
        DC8 0

        SECTION `.text`:CODE:NOROOT(2)
        SECTION_TYPE SHT_PROGBITS, 0
        DATA
`?<Constant "%.1f">`:
        DC8 "%.1f"
        DC8 0, 0, 0

        SECTION `.text`:CODE:NOROOT(2)
        SECTION_TYPE SHT_PROGBITS, 0
        DATA
`?<Constant "bmp_value_blank.bin">`:
        DC8 "bmp_value_blank.bin"

        SECTION `.text`:CODE:NOROOT(2)
        SECTION_TYPE SHT_PROGBITS, 0
        DATA
`?<Constant "bmp_default.bin">`:
        DC8 "bmp_default.bin"

        SECTION `.text`:CODE:NOROOT(2)
        SECTION_TYPE SHT_PROGBITS, 0
        DATA
`?<Constant "bmp_next.bin">`:
        DC8 "bmp_next.bin"
        DC8 0, 0, 0

        SECTION `.text`:CODE:NOROOT(2)
        SECTION_TYPE SHT_PROGBITS, 0
        DATA
`?<Constant "bmp_previous.bin">`:
        DC8 "bmp_previous.bin"
        DC8 0, 0, 0

        SECTION `.text`:CODE:NOROOT(2)
        SECTION_TYPE SHT_PROGBITS, 0
        DATA
`?<Constant "bmp_back70x40.bin">`:
        DC8 "bmp_back70x40.bin"
        DC8 0, 0

        SECTION `.iar_vfe_header`:DATA:NOALLOC:NOROOT(2)
        SECTION_TYPE SHT_PROGBITS, 0
        DATA
        DC32 0

        SECTION __DLIB_PERTHREAD:DATA:REORDER:NOROOT(0)
        SECTION_TYPE SHT_PROGBITS, 0

        SECTION __DLIB_PERTHREAD_init:DATA:REORDER:NOROOT(0)
        SECTION_TYPE SHT_PROGBITS, 0

        SECTION `.rodata`:CONST:REORDER:NOROOT(0)
        SECTION_GROUP _ZTI5Print
// __absolute char const <Typeinfo for Print>
_ZTI5Print:
        DATA
        DC8 0

        END
//  573 
//  574 
//  575 
//  576 
//  577 
// 
//   580 bytes in section .bss
//     1 byte  in section .rodata
// 4 874 bytes in section .text
// 
// 4 874 bytes of CODE  memory
//     0 bytes of CONST memory (+ 1 byte shared)
//   580 bytes of DATA  memory
//
//Errors: none
//Warnings: 34
