///////////////////////////////////////////////////////////////////////////////
//
// IAR ANSI C/C++ Compiler V7.10.1.6676/W32 for ARM       13/Apr/2020  10:56:36
// Copyright 1999-2014 IAR Systems AB.
//
//    Cpu mode     =  thumb
//    Endian       =  little
//    Source file  =  
//        D:\MKS-Robin-Nano-Firmware-v2.x.x\MKS-Robin-Nano-Firmware\User\ui\draw_number_key.cpp
//    Command line =  
//        D:\MKS-Robin-Nano-Firmware-v2.x.x\MKS-Robin-Nano-Firmware\User\ui\draw_number_key.cpp
//        -D USE_HAL_DRIVER -D STM32F103xE -D STM32F10X_HD -D USE_HAL_LIB -D
//        MKS_ROBIN_NANO -D TFT35 -lC
//        D:\MKS-Robin-Nano-Firmware-v2.x.x\MKS-Robin-Nano-Firmware\EWARM\mksRobinNano/List\
//        -lA
//        D:\MKS-Robin-Nano-Firmware-v2.x.x\MKS-Robin-Nano-Firmware\EWARM\mksRobinNano/List\
//        --diag_suppress Pa050 -o
//        D:\MKS-Robin-Nano-Firmware-v2.x.x\MKS-Robin-Nano-Firmware\EWARM\mksRobinNano/Obj\
//        --debug --endian=little --cpu=Cortex-M3 -e --char_is_signed
//        --fpu=None --dlib_config "C:\Program Files (x86)\IAR Systems\Embedded
//        Workbench 7.0\arm\INC\c\DLib_Config_Full.h" -I
//        D:\MKS-Robin-Nano-Firmware-v2.x.x\MKS-Robin-Nano-Firmware\EWARM/../Inc\
//        -I
//        D:\MKS-Robin-Nano-Firmware-v2.x.x\MKS-Robin-Nano-Firmware\EWARM/../Src\
//        -I
//        D:\MKS-Robin-Nano-Firmware-v2.x.x\MKS-Robin-Nano-Firmware\EWARM/../Drivers/STM32F1xx_HAL_Driver/Inc\
//        -I
//        D:\MKS-Robin-Nano-Firmware-v2.x.x\MKS-Robin-Nano-Firmware\EWARM/../Drivers/STM32F1xx_HAL_Driver/Inc/Legacy\
//        -I
//        D:\MKS-Robin-Nano-Firmware-v2.x.x\MKS-Robin-Nano-Firmware\EWARM/../Middlewares/Third_Party/FatFs/src/drivers\
//        -I
//        D:\MKS-Robin-Nano-Firmware-v2.x.x\MKS-Robin-Nano-Firmware\EWARM/../Middlewares/ST/STM32_USB_Host_Library/Core/Inc\
//        -I
//        D:\MKS-Robin-Nano-Firmware-v2.x.x\MKS-Robin-Nano-Firmware\EWARM/../Middlewares/ST/STM32_USB_Host_Library/Class/MSC/Inc\
//        -I
//        D:\MKS-Robin-Nano-Firmware-v2.x.x\MKS-Robin-Nano-Firmware\EWARM/../Drivers/CMSIS/Device/ST/STM32F1xx/Include\
//        -I
//        D:\MKS-Robin-Nano-Firmware-v2.x.x\MKS-Robin-Nano-Firmware\EWARM/../Middlewares/Third_Party/FatFs/src\
//        -I
//        D:\MKS-Robin-Nano-Firmware-v2.x.x\MKS-Robin-Nano-Firmware\EWARM/../Middlewares/Third_Party/Marlin\
//        -I
//        D:\MKS-Robin-Nano-Firmware-v2.x.x\MKS-Robin-Nano-Firmware\EWARM/../Drivers/CMSIS/Include\
//        -I
//        D:\MKS-Robin-Nano-Firmware-v2.x.x\MKS-Robin-Nano-Firmware\EWARM/../Drivers/BSP/variant\
//        -I
//        D:\MKS-Robin-Nano-Firmware-v2.x.x\MKS-Robin-Nano-Firmware\EWARM/../Drivers/BSP/Components/at24cxx\
//        -I
//        D:\MKS-Robin-Nano-Firmware-v2.x.x\MKS-Robin-Nano-Firmware\EWARM/../Drivers/BSP/Components/w25qxx\
//        -I
//        D:\MKS-Robin-Nano-Firmware-v2.x.x\MKS-Robin-Nano-Firmware\EWARM/../Drivers/BSP/Components/lcd\
//        -I
//        D:\MKS-Robin-Nano-Firmware-v2.x.x\MKS-Robin-Nano-Firmware\EWARM/../Drivers/STM32F10x_StdPeriph_Driver/inc\
//        -I
//        D:\MKS-Robin-Nano-Firmware-v2.x.x\MKS-Robin-Nano-Firmware\EWARM/../Drivers/libstmf4/include\
//        -I
//        D:\MKS-Robin-Nano-Firmware-v2.x.x\MKS-Robin-Nano-Firmware\EWARM/../Middlewares/arduino/stm32/cores/arduino\
//        -I
//        D:\MKS-Robin-Nano-Firmware-v2.x.x\MKS-Robin-Nano-Firmware\EWARM/../User/ui\
//        -I
//        D:\MKS-Robin-Nano-Firmware-v2.x.x\MKS-Robin-Nano-Firmware\EWARM/../User/ui/Multi_language\
//        -I
//        D:\MKS-Robin-Nano-Firmware-v2.x.x\MKS-Robin-Nano-Firmware\EWARM/../User/ui/QRENCODE\
//        -I
//        D:\MKS-Robin-Nano-Firmware-v2.x.x\MKS-Robin-Nano-Firmware\EWARM\..\Middlewares\GUI\
//        -Oh --eec++ -I "C:\Program Files (x86)\IAR Systems\Embedded Workbench
//        7.0\arm\CMSIS\Include\"
//    List file    =  
//        D:\MKS-Robin-Nano-Firmware-v2.x.x\MKS-Robin-Nano-Firmware\EWARM\mksRobinNano/List\draw_number_key.s
//
///////////////////////////////////////////////////////////////////////////////

        RTMODEL "__CPP_Language", "EC++"
        RTMODEL "__SystemLibrary", "DLib"
        RTMODEL "__dlib_file_descriptor", "1"
        RTMODEL "__dlib_full_locale_support", "1"
        RTMODEL "__iar_require _Printf", "floats,widths"
        AAPCS BASE,INTERWORK
        PRESERVE8
        REQUIRE8

        #define SHT_PROGBITS 0x1

        EXTERN BUTTON_CreateEx
        EXTERN BUTTON_SetBkColor
        EXTERN BUTTON_SetBmpFileName
        EXTERN BUTTON_SetText
        EXTERN BUTTON_SetTextAlign
        EXTERN BUTTON_SetTextColor
        EXTERN GUI_Clear
        EXTERN GUI_SetBkColor
        EXTERN GUI_SetColor
        EXTERN TEXT_CreateEx
        EXTERN TEXT_SetBkColor
        EXTERN TEXT_SetText
        EXTERN TEXT_SetTextAlign
        EXTERN TEXT_SetTextColor
        EXTERN WM_CreateWindow
        EXTERN WM_DefaultProc
        EXTERN WM_DeleteWindow
        EXTERN WM_IsWindow
        EXTERN _ZN11Temperature16extrude_min_tempE
        EXTERN _ZN11Temperature2KdE
        EXTERN _ZN11Temperature2KiE
        EXTERN _ZN11Temperature2KpE
        EXTERN _ZN11Temperature4initEv
        EXTERN _ZN11Temperature5bedKdE
        EXTERN _ZN11Temperature5bedKiE
        EXTERN _ZN11Temperature5bedKpE
        EXTERN _ZN14MarlinSettings4saveEv
        EXTERN _ZN7Planner12accelerationE
        EXTERN _ZN7Planner17axis_steps_per_mmE
        EXTERN _ZN7Planner17max_feedrate_mm_sE
        EXTERN _ZN7Planner19travel_accelerationE
        EXTERN _ZN7Planner20retract_accelerationE
        EXTERN _ZN7Planner26max_acceleration_mm_per_s2E
        EXTERN _ZN7Planner8max_jerkE
        EXTERN __aeabi_d2f
        EXTERN __aeabi_d2iz
        EXTERN __aeabi_d2uiz
        EXTERN __aeabi_dadd
        EXTERN __aeabi_ddiv
        EXTERN __aeabi_dmul
        EXTERN __aeabi_f2d
        EXTERN __aeabi_f2iz
        EXTERN __aeabi_f2uiz
        EXTERN __aeabi_fsub
        EXTERN __aeabi_memclr
        EXTERN __aeabi_memclr4
        EXTERN __aeabi_ui2d
        EXTERN __aeabi_ui2f
        EXTERN __iar_Stod
        EXTERN __iar_Stoul
        EXTERN __iar_Strchr
        EXTERN alloc_win_id
        EXTERN base_home_pos_P
        EXTERN base_max_pos_P
        EXTERN base_min_pos_P
        EXTERN cmd_code
        EXTERN delta_calibration_radius
        EXTERN delta_diagonal_rod
        EXTERN delta_radius
        EXTERN disp_state
        EXTERN disp_state_stack
        EXTERN draw_return_ui
        EXTERN epr_write_data
        EXTERN gCfgItems
        EXTERN last_disp_state
        EXTERN machine_menu
        EXTERN max_length_P
        EXTERN mksCfg
        EXTERN soft_endstop_max
        EXTERN soft_endstop_min
        EXTERN sprintf
        EXTERN strcpy
        EXTERN strlen
        EXTERN thermalManager
        EXTERN value
        EXTERN zprobe_zoffset

        PUBLIC Clear_NumberKey
        PUBLIC _Z10disp_valuev
        PUBLIC _Z17set_value_confirmv
        PUBLIC _ZTI5Print
        PUBLIC draw_NumberKey
        PUBLIC key_value
        
          CFI Names cfiNames0
          CFI StackFrame CFA R13 DATA
          CFI Resource R0:32, R1:32, R2:32, R3:32, R4:32, R5:32, R6:32, R7:32
          CFI Resource R8:32, R9:32, R10:32, R11:32, R12:32, R13:32, R14:32
          CFI EndNames cfiNames0
        
          CFI Common cfiCommon0 Using cfiNames0
          CFI CodeAlign 2
          CFI DataAlign 4
          CFI ReturnAddress R14 CODE
          CFI CFA R13+0
          CFI R0 Undefined
          CFI R1 Undefined
          CFI R2 Undefined
          CFI R3 Undefined
          CFI R4 SameValue
          CFI R5 SameValue
          CFI R6 SameValue
          CFI R7 SameValue
          CFI R8 SameValue
          CFI R9 SameValue
          CFI R10 SameValue
          CFI R11 SameValue
          CFI R12 Undefined
          CFI R14 SameValue
          CFI EndCommon cfiCommon0
        
// D:\MKS-Robin-Nano-Firmware-v2.x.x\MKS-Robin-Nano-Firmware\User\ui\draw_number_key.cpp
//    1 #include "gui.h"
//    2 #include "button.h"
//    3 #include "draw_ui.h"
//    4 #include "Marlin.h"
//    5 #include "cardreader.h"
//    6 
//    7 #ifndef GUI_FLASH
//    8 #define GUI_FLASH
//    9 #endif
//   10 
//   11 static GUI_HWIN hNumberKeyWnd;

        SECTION `.bss`:DATA:REORDER:NOROOT(2)
//   12 static BUTTON_STRUCT NumberKey_1,NumberKey_2,NumberKey_3,NumberKey_4,NumberKey_5;
NumberKey_2:
        DS8 24
        DS8 24

        SECTION `.bss`:DATA:REORDER:NOROOT(2)
NumberKey_4:
        DS8 24
        DS8 24

        SECTION `.bss`:DATA:REORDER:NOROOT(2)
//   13 static BUTTON_STRUCT NumberKey_6,NumberKey_7,NumberKey_8,NumberKey_9,NumberKey_0;
NumberKey_6:
        DS8 24
        DS8 24

        SECTION `.bss`:DATA:REORDER:NOROOT(2)
NumberKey_8:
        DS8 24
        DS8 24

        SECTION `.bss`:DATA:REORDER:NOROOT(2)
NumberKey_0:
        DS8 24
        DS8 24

        SECTION `.bss`:DATA:REORDER:NOROOT(2)
//   14 static BUTTON_STRUCT KeyPoint,KeyConfirm,KeyReset,KeyBack;
KeyConfirm:
        DS8 24
        DS8 24

        SECTION `.bss`:DATA:REORDER:NOROOT(2)
KeyBack:
        DS8 24
        DS8 24

        SECTION `.data`:DATA:REORDER:NOROOT(2)
//   15 static BUTTON_STRUCT KeyValue,Nagetive;
//   16 
//   17 static TEXT_Handle textKeyNumb;
//   18 
//   19 inline void gcode_M500() {
//   20   (void)settings.save();
//   21 }
//   22 
//   23 char key_value[11]={0};
//   24 static char cnt=0;
cnt:
        DATA
        DC8 0
        DC8 1
        DC8 0, 0
key_value:
        DC8 0, 0, 0, 0, 0, 0, 0, 0, 0, 0, 0, 0
        DC8 0, 0
        DC8 0, 0
        DC8 0, 0, 0, 0, 0, 0, 0, 0, 0, 0, 0, 0, 0, 0, 0, 0
        DC8 0, 0, 0, 0, 0, 0, 0, 0
//   25 static char point_flg = 1;
//   26 void set_value_confirm();
//   27 

        SECTION `.text`:CODE:NOROOT(1)
          CFI Block cfiBlock0 Using cfiCommon0
          CFI Function _Z14cbNumberKeyWinP10WM_MESSAGE
        THUMB
//   28 static void cbNumberKeyWin(WM_MESSAGE * pMsg) {
//   29 
//   30     struct PressEvt *press_event;
//   31     switch (pMsg->MsgId)
_Z14cbNumberKeyWinP10WM_MESSAGE:
        LDR      R1,[R0, #+0]
        CMP      R1,#+12
        BNE.N    ??cbNumberKeyWin_0
        BX       LR
??cbNumberKeyWin_0:
        PUSH     {R4,LR}
          CFI R14 Frame(CFA, -4)
          CFI R4 Frame(CFA, -8)
          CFI CFA R13+8
        CMP      R1,#+13
        IT       NE 
        CMPNE    R1,#+15
        BEQ.W    ??cbNumberKeyWin_1
        CMP      R1,#+38
        BNE.W    ??cbNumberKeyWin_2
//   32     {
//   33     	case WM_PAINT:
//   34 
//   35     		break;
//   36     	case WM_TOUCH:
//   37     	 	press_event = (struct PressEvt *)pMsg->Data.p;
//   38     		
//   39     		break;
//   40     	case WM_TOUCH_CHILD:
//   41     		press_event = (struct PressEvt *)pMsg->Data.p;
//   42 
//   43     		break;
//   44     		
//   45     	case WM_NOTIFY_PARENT:
//   46     		if(pMsg->Data.v == WM_NOTIFICATION_RELEASED)
        LDR      R1,[R0, #+8]
        CMP      R1,#+2
        BNE.W    ??cbNumberKeyWin_1
//   47     		{
//   48                  
//   49     			if(pMsg->hWinSrc == NumberKey_1.btnHandle)
        LDR.W    R4,??DataTable5
        LDRSH    R0,[R0, #+6]
        LDRSH    R1,[R4, #+20]
        CMP      R0,R1
        BNE.N    ??cbNumberKeyWin_3
//   50     			{
//   51                     if(cnt<=10)
        LDRSB    R0,[R4, #+0]
        CMP      R0,#+11
        BGE.W    ??cbNumberKeyWin_1
//   52                     {         
//   53                         key_value[cnt]='1';
        ADDS     R0,R0,R4
        MOVS     R1,#+49
        STRB     R1,[R0, #+4]
//   54                         TEXT_SetText(textKeyNumb, key_value);
        B.N      ??cbNumberKeyWin_4
//   55                         cnt++;
//   56                     }
//   57 
//   58     			}
//   59     			else if(pMsg->hWinSrc == NumberKey_2.btnHandle)
??cbNumberKeyWin_3:
        LDR.W    R1,??DataTable5_1
        LDRSH    R2,[R1, #+0]
        CMP      R0,R2
        BNE.N    ??cbNumberKeyWin_5
//   60     			{
//   61                     if(cnt<=10)
        LDRSB    R0,[R4, #+0]
        CMP      R0,#+11
        BGE.W    ??cbNumberKeyWin_1
//   62                     {         
//   63                         key_value[cnt]='2';
        ADDS     R0,R0,R4
        MOVS     R1,#+50
        STRB     R1,[R0, #+4]
//   64                         TEXT_SetText(textKeyNumb, key_value);
        B.N      ??cbNumberKeyWin_4
//   65                         cnt++;
//   66                     }	
//   67     			}
//   68     			else if(pMsg->hWinSrc == NumberKey_3.btnHandle)
??cbNumberKeyWin_5:
        LDRSH    R1,[R1, #+24]
        CMP      R0,R1
        BNE.N    ??cbNumberKeyWin_6
//   69     			{
//   70                     if(cnt<=10)
        LDRSB    R0,[R4, #+0]
        CMP      R0,#+11
        BGE.W    ??cbNumberKeyWin_1
//   71                     {         
//   72                         key_value[cnt]='3';
        ADDS     R0,R0,R4
        MOVS     R1,#+51
        STRB     R1,[R0, #+4]
//   73                         TEXT_SetText(textKeyNumb, key_value);
        B.N      ??cbNumberKeyWin_4
//   74                         cnt++;
//   75                     }
//   76 
//   77     			}  
//   78     			else if(pMsg->hWinSrc == NumberKey_4.btnHandle)
??cbNumberKeyWin_6:
        LDR.W    R1,??DataTable5_2
        LDRSH    R2,[R1, #+0]
        CMP      R0,R2
        BNE.N    ??cbNumberKeyWin_7
//   79     			{
//   80                     if(cnt<=10)
        LDRSB    R0,[R4, #+0]
        CMP      R0,#+11
        BGE.W    ??cbNumberKeyWin_1
//   81                     {         
//   82                         key_value[cnt]='4';
        ADDS     R0,R0,R4
        MOVS     R1,#+52
        STRB     R1,[R0, #+4]
//   83                         TEXT_SetText(textKeyNumb, key_value);
        B.N      ??cbNumberKeyWin_4
//   84                         cnt++;
//   85                     }
//   86 
//   87     			}  
//   88     			else if(pMsg->hWinSrc == NumberKey_5.btnHandle)
??cbNumberKeyWin_7:
        LDRSH    R1,[R1, #+24]
        CMP      R0,R1
        BNE.N    ??cbNumberKeyWin_8
//   89     			{
//   90                     if(cnt<=10)
        LDRSB    R0,[R4, #+0]
        CMP      R0,#+11
        BGE.W    ??cbNumberKeyWin_1
//   91                     {         
//   92                         key_value[cnt]='5';
        ADDS     R0,R0,R4
        MOVS     R1,#+53
        STRB     R1,[R0, #+4]
//   93                         TEXT_SetText(textKeyNumb, key_value);
        B.N      ??cbNumberKeyWin_4
//   94                         cnt++;
//   95                     }
//   96 
//   97     			} 
//   98     			else if(pMsg->hWinSrc == NumberKey_6.btnHandle)
??cbNumberKeyWin_8:
        LDR.W    R1,??DataTable5_3
        LDRSH    R2,[R1, #+0]
        CMP      R0,R2
        BNE.N    ??cbNumberKeyWin_9
//   99     			{
//  100                     if(cnt<=10)
        LDRSB    R0,[R4, #+0]
        CMP      R0,#+11
        BGE.W    ??cbNumberKeyWin_1
//  101                     {         
//  102                         key_value[cnt]='6';
        ADDS     R0,R0,R4
        MOVS     R1,#+54
        STRB     R1,[R0, #+4]
//  103                         TEXT_SetText(textKeyNumb, key_value);
        B.N      ??cbNumberKeyWin_4
//  104                         cnt++;
//  105                     }
//  106 
//  107     			}  
//  108     			else if(pMsg->hWinSrc == NumberKey_7.btnHandle)
??cbNumberKeyWin_9:
        LDRSH    R1,[R1, #+24]
        CMP      R0,R1
        BNE.N    ??cbNumberKeyWin_10
//  109     			{
//  110                     if(cnt<=10)
        LDRSB    R0,[R4, #+0]
        CMP      R0,#+11
        BGE.W    ??cbNumberKeyWin_1
//  111                     {         
//  112                         key_value[cnt]='7';
        ADDS     R0,R0,R4
        MOVS     R1,#+55
        STRB     R1,[R0, #+4]
//  113                         TEXT_SetText(textKeyNumb, key_value);
        B.N      ??cbNumberKeyWin_4
//  114                         cnt++;
//  115                     }
//  116 
//  117     			} 
//  118     			else if(pMsg->hWinSrc == NumberKey_8.btnHandle)
??cbNumberKeyWin_10:
        LDR.W    R1,??DataTable5_4
        LDRSH    R2,[R1, #+0]
        CMP      R0,R2
        BNE.N    ??cbNumberKeyWin_11
//  119     			{
//  120                     if(cnt<=10)
        LDRSB    R0,[R4, #+0]
        CMP      R0,#+11
        BGE.W    ??cbNumberKeyWin_1
//  121                     {         
//  122                         key_value[cnt]='8';
        ADDS     R0,R0,R4
        MOVS     R1,#+56
        STRB     R1,[R0, #+4]
//  123                         TEXT_SetText(textKeyNumb, key_value);
        B.N      ??cbNumberKeyWin_4
//  124                         cnt++;
//  125                     }
//  126 
//  127     			} 
//  128     			else if(pMsg->hWinSrc == NumberKey_9.btnHandle)
??cbNumberKeyWin_11:
        LDRSH    R1,[R1, #+24]
        CMP      R0,R1
        BNE.N    ??cbNumberKeyWin_12
//  129     			{
//  130                     if(cnt<=10)
        LDRSB    R0,[R4, #+0]
        CMP      R0,#+11
        BGE.W    ??cbNumberKeyWin_1
//  131                     {         
//  132                         key_value[cnt]='9';
        ADDS     R0,R0,R4
        MOVS     R1,#+57
        STRB     R1,[R0, #+4]
//  133                         TEXT_SetText(textKeyNumb, key_value);
        B.N      ??cbNumberKeyWin_4
//  134                         cnt++;
//  135                     }
//  136 
//  137     			}
//  138     			else if(pMsg->hWinSrc == NumberKey_0.btnHandle)
??cbNumberKeyWin_12:
        LDR.W    R1,??DataTable5_5
        LDRSH    R2,[R1, #+0]
        CMP      R0,R2
        BNE.N    ??cbNumberKeyWin_13
//  139     			{
//  140                     if(cnt<=10)
        LDRSB    R0,[R4, #+0]
        CMP      R0,#+11
        BGE.N    ??cbNumberKeyWin_1
//  141                     {         
//  142                         key_value[cnt]='0';
        ADDS     R0,R0,R4
        MOVS     R1,#+48
        STRB     R1,[R0, #+4]
//  143                         TEXT_SetText(textKeyNumb, key_value);
        B.N      ??cbNumberKeyWin_4
//  144                         cnt++;
//  145                     }
//  146 
//  147     			}  
//  148     			else if(pMsg->hWinSrc == KeyPoint.btnHandle)
??cbNumberKeyWin_13:
        LDRSH    R1,[R1, #+24]
        CMP      R0,R1
        BNE.N    ??cbNumberKeyWin_14
//  149     			{
//  150                     if((cnt!=0)&&(point_flg==1))
        LDRSB    R0,[R4, #+0]
        CMP      R0,#+0
        BEQ.N    ??cbNumberKeyWin_1
        LDRSB    R1,[R4, #+1]
        CMP      R1,#+1
        BNE.N    ??cbNumberKeyWin_1
//  151                     {  
//  152                         point_flg = 0;
        MOVS     R1,#+0
        STRB     R1,[R4, #+1]
//  153                         key_value[cnt]='.';
        ADDS     R0,R0,R4
        MOVS     R1,#+46
        STRB     R1,[R0, #+4]
//  154                         TEXT_SetText(textKeyNumb, key_value);
        B.N      ??cbNumberKeyWin_4
//  155                         cnt++;
//  156                     }
//  157     			}
//  158     			else if(pMsg->hWinSrc == KeyBack.btnHandle)
??cbNumberKeyWin_14:
        LDR.W    R1,??DataTable5_6
        LDRSH    R2,[R1, #+0]
        CMP      R0,R2
        BNE.N    ??cbNumberKeyWin_15
//  159     			{
//  160                     if(cnt>0)
        LDRSB    R0,[R4, #+0]
        CMP      R0,#+1
        ITT      GE 
//  161                     {   
//  162                        cnt--;  
        SUBGE    R0,R0,#+1
        STRBGE   R0,[R4, #+0]
//  163                     }
//  164                     if(key_value[cnt]=='.')point_flg=1;
        LDRSB    R0,[R4, #+0]
        ADDS     R0,R0,R4
        LDRSB    R1,[R0, #+4]
        CMP      R1,#+46
        ITT      EQ 
        MOVEQ    R1,#+1
        STRBEQ   R1,[R4, #+1]
//  165                     key_value[cnt]=0;
        MOVS     R1,#+0
        STRB     R1,[R0, #+4]
//  166                     TEXT_SetText(textKeyNumb, key_value);
        B.N      ??cbNumberKeyWin_16
//  167 
//  168     			}
//  169     			else if(pMsg->hWinSrc == KeyReset.btnHandle)
??cbNumberKeyWin_15:
        LDR.W    R2,??DataTable5_7
        LDRSH    R3,[R2, #+24]
        CMP      R0,R3
        BNE.N    ??cbNumberKeyWin_17
//  170     			{
//  171                     //if(cnt<=10)
//  172                     {        
//  173                         memset(key_value,0,sizeof(key_value));
        MOVS     R1,#+11
        ADDS     R0,R4,#+4
          CFI FunCall __aeabi_memclr4
        BL       __aeabi_memclr4
//  174                         cnt=0;
        MOVS     R0,#+0
        STRB     R0,[R4, #+0]
//  175                         key_value[cnt]='0';
        MOVS     R0,#+48
        STRB     R0,[R4, #+4]
//  176                         point_flg = 1;
        MOVS     R0,#+1
        STRB     R0,[R4, #+1]
//  177                         TEXT_SetText(textKeyNumb, key_value);
//  178                         
//  179                     }
//  180 
//  181     			}   
??cbNumberKeyWin_16:
        B.W      ?Subroutine0
//  182 			else if(pMsg->hWinSrc == Nagetive.btnHandle)
??cbNumberKeyWin_17:
        LDRSH    R1,[R1, #+24]
        CMP      R0,R1
        BNE.N    ??cbNumberKeyWin_18
//  183 			{
//  184 				if(cnt==0)
        LDRSB    R0,[R4, #+0]
        CBNZ.N   R0,??cbNumberKeyWin_1
//  185 	                    {         
//  186 	                        key_value[cnt]='-';
        MOVS     R0,#+45
        STRB     R0,[R4, #+4]
//  187 	                        TEXT_SetText(textKeyNumb, key_value);
??cbNumberKeyWin_4:
        ADDS     R1,R4,#+4
        LDRSH    R0,[R4, #+18]
          CFI FunCall TEXT_SetText
        BL       TEXT_SetText
//  188 	                        cnt++;
        LDRB     R0,[R4, #+0]
        ADDS     R0,R0,#+1
        STRB     R0,[R4, #+0]
        POP      {R4,PC}
//  189 	                    }
//  190 			}
//  191     			else if(pMsg->hWinSrc == KeyConfirm.btnHandle)
??cbNumberKeyWin_18:
        LDRSH    R1,[R2, #+0]
        CMP      R0,R1
        BNE.N    ??cbNumberKeyWin_1
//  192     			{
//  193     				last_disp_state = NUMBER_KEY_UI;
        LDR.W    R1,??DataTable5_8
        MOVS     R0,#+61
        STRB     R0,[R1, #+0]
//  194                     if(strlen(key_value)!=0)
        ADDS     R0,R4,#+4
          CFI FunCall strlen
        BL       strlen
        CBZ.N    R0,??cbNumberKeyWin_19
//  195                         set_value_confirm();
          CFI FunCall _Z17set_value_confirmv
        BL       _Z17set_value_confirmv
//  196                     Clear_NumberKey();
??cbNumberKeyWin_19:
        LDR.W    R0,??DataTable5_9
        LDR      R0,[R0, #+20]
          CFI FunCall GUI_SetBkColor
        BL       GUI_SetBkColor
        LDRSH    R0,[R4, #+16]
          CFI FunCall WM_IsWindow
        BL       WM_IsWindow
        CBZ.N    R0,??cbNumberKeyWin_20
        LDRSH    R0,[R4, #+16]
          CFI FunCall WM_DeleteWindow
        BL       WM_DeleteWindow
//  197                     draw_return_ui();
??cbNumberKeyWin_20:
        POP      {R4,LR}
          CFI R4 SameValue
          CFI R14 SameValue
          CFI CFA R13+0
          CFI FunCall draw_return_ui
        B.W      draw_return_ui
          CFI R4 Frame(CFA, -8)
          CFI R14 Frame(CFA, -4)
          CFI CFA R13+8
//  198     			}  
//  199                
//  200     		}
//  201     		break;
//  202     		
//  203     	default:
//  204     		WM_DefaultProc(pMsg);
??cbNumberKeyWin_2:
        POP      {R4,LR}
          CFI R4 SameValue
          CFI R14 SameValue
          CFI CFA R13+0
          CFI FunCall WM_DefaultProc
        B.W      WM_DefaultProc
          CFI R4 Frame(CFA, -8)
          CFI R14 Frame(CFA, -4)
          CFI CFA R13+8
//  205     	}
//  206 }
??cbNumberKeyWin_1:
        POP      {R4,PC}          ;; return
          CFI EndBlock cfiBlock0

        SECTION `.text`:CODE:NOROOT(2)
          CFI Block cfiBlock1 Using cfiCommon0
          CFI Function _Z17set_value_confirmv
        THUMB
//  207 void set_value_confirm()
//  208 {
//  209     switch(value)
_Z17set_value_confirmv:
        LDR.W    R0,??DataTable5_10
        LDRSB    R0,[R0, #+0]
        CMP      R0,#+69
        BLS.N    ??set_value_confirm_1
        BX       LR
??set_value_confirm_1:
        PUSH     {R3-R7,LR}
          CFI R14 Frame(CFA, -4)
          CFI R7 Frame(CFA, -8)
          CFI R6 Frame(CFA, -12)
          CFI R5 Frame(CFA, -16)
          CFI R4 Frame(CFA, -20)
          CFI CFA R13+24
        TBH      [PC, R0, LSL #+1]
        DATA
??set_value_confirm_0:
        DC16     0x46,0xC0,0xF1,0x5F
        DC16     0x8E,0xA7,0x122,0x133
        DC16     0x144,0x173,0x184,0x195
        DC16     0x1C3,0x1D6,0x1E9,0x1F4
        DC16     0x207,0x228,0x233,0x23E
        DC16     0x251,0x264,0x277,0x28A
        DC16     0x295,0x2B9,0x2DB,0x2FD
        DC16     0x31F,0x2A6,0x2CA,0x2EC
        DC16     0x30E,0x330,0x341,0x34C
        DC16     0x358,0x364,0x370,0x37C
        DC16     0x387,0x392,0x39C,0x3A6
        DC16     0x3B1,0x3BB,0x3C5,0x3CF
        DC16     0x3D8,0x3E2,0x3EC,0x3F6
        DC16     0x3FF,0x409,0x413,0x41D
        DC16     0x427,0x438,0x449,0x45C
        DC16     0x474,0x48E,0x4A6,0x4AF
        DC16     0x4BC,0x4DA,0x4C9,0x4F1
        DC16     0x4FA,0x507
        THUMB
//  210     {
//  211        case X_stroke:
//  212 	       mksCfg.x_max_pos = base_max_pos_P[0] = soft_endstop_max[0] = atof(key_value);
??set_value_confirm_2:
        MOVS     R2,#+0
        MOVS     R1,#+0
        LDR.W    R0,??DataTable5_11
          CFI FunCall __iar_Stod
        BL       __iar_Stod
          CFI FunCall __aeabi_d2f
        BL       __aeabi_d2f
        LDR.W    R1,??DataTable5_12
        LDR.W    R4,??DataTable5_13
        STR      R0,[R1, #+0]
        ADD      R5,R4,#+8
        LDR.W    R1,??DataTable5_14
        STR      R0,[R5, #+12]
        STR      R0,[R1, #+0]
//  213 	       epr_write_data(EPR_X_MAX_POS, (uint8_t *)&mksCfg.x_max_pos,sizeof(float));   
        MOVS     R2,#+4
        ADD      R1,R4,#+20
        MOVW     R0,#+1474
        B.N      ??set_value_confirm_3
//  214 
//  215 		max_length_P[0] = mksCfg.x_max_pos - mksCfg.x_min_pos;
//  216 		if(MACHINETPYE != DELTA)
//  217 		{
//  218 	    		base_home_pos_P[0] = (mksCfg.x_home_dir < 0 ? mksCfg.x_min_pos : mksCfg.x_max_pos); 
//  219 		}
//  220         break;
//  221        case X_stroke_min:
//  222 	       mksCfg.x_min_pos = base_min_pos_P[0] = soft_endstop_min[0] = atof(key_value);
??set_value_confirm_4:
        MOVS     R2,#+0
        MOVS     R1,#+0
        LDR.W    R0,??DataTable5_11
          CFI FunCall __iar_Stod
        BL       __iar_Stod
          CFI FunCall __aeabi_d2f
        BL       __aeabi_d2f
        LDR.W    R1,??DataTable5_15
        LDR.W    R4,??DataTable5_13
        STR      R0,[R1, #+0]
        STR      R0,[R4, #+8]
//  223 	       epr_write_data(EPR_X_MIN_POS, (uint8_t *)&mksCfg.x_min_pos,sizeof(float));   
        ADD      R5,R4,#+8
        LDR.W    R1,??DataTable5_16
        STR      R0,[R1, #+0]
        MOVS     R2,#+4
        MOV      R1,R5
        MOVW     R0,#+1462
??set_value_confirm_3:
          CFI FunCall epr_write_data
        BL       epr_write_data
//  224 
//  225 		max_length_P[0] = mksCfg.x_max_pos - mksCfg.x_min_pos;
        LDR      R0,[R5, #+12]
        LDR      R1,[R4, #+8]
          CFI FunCall __aeabi_fsub
        BL       __aeabi_fsub
        LDR.W    R1,??DataTable5_17
        STR      R0,[R1, #+0]
//  226 		if(MACHINETPYE != DELTA)
        LDRSH    R0,[R5, #+80]
        CMP      R0,#+2
        BEQ.W    ??set_value_confirm_5
//  227 		{
//  228 	    		base_home_pos_P[0] = (mksCfg.x_home_dir < 0 ? mksCfg.x_min_pos : mksCfg.x_max_pos); 
        LDRSB    R0,[R4, #+5]
        CMP      R0,#+0
        ITE      MI 
        LDRMI    R0,[R4, #+8]
        LDRPL    R0,[R5, #+12]
        LDR.W    R1,??DataTable5_18
        STR      R0,[R1, #+0]
        POP      {R0,R4-R7,PC}
//  229 		}
//  230         break;
//  231 	case Y_stroke_min:
//  232 	       mksCfg.y_min_pos = base_min_pos_P[1] = soft_endstop_min[1] = atof(key_value);
??set_value_confirm_6:
        MOVS     R2,#+0
        MOVS     R1,#+0
        LDR.W    R0,??DataTable5_11
          CFI FunCall __iar_Stod
        BL       __iar_Stod
          CFI FunCall __aeabi_d2f
        BL       __aeabi_d2f
        LDR.W    R1,??DataTable5_15
        LDR.W    R4,??DataTable5_13
        STR      R0,[R1, #+4]
        ADD      R5,R4,#+8
        LDR.W    R1,??DataTable5_16
        STR      R0,[R5, #+4]
        STR      R0,[R1, #+4]
//  233 	       epr_write_data(EPR_Y_MIN_POS, (uint8_t *)&mksCfg.y_min_pos,sizeof(float));   
        MOVS     R2,#+4
        ADD      R1,R4,#+12
        MOVW     R0,#+1466
        B.N      ??set_value_confirm_7
//  234 
//  235 		max_length_P[1] = mksCfg.y_max_pos - mksCfg.y_min_pos;
//  236 		if(MACHINETPYE != DELTA)
//  237 		{
//  238 	    		base_home_pos_P[1] = (mksCfg.y_home_dir < 0 ? mksCfg.y_min_pos : mksCfg.y_max_pos); 
//  239 		}
//  240         break;
//  241 	case Z_stroke_min:
//  242 	       mksCfg.z_min_pos = base_min_pos_P[2] = soft_endstop_min[2] = atof(key_value);
??set_value_confirm_8:
        MOVS     R2,#+0
        MOVS     R1,#+0
        LDR.W    R0,??DataTable5_11
          CFI FunCall __iar_Stod
        BL       __iar_Stod
          CFI FunCall __aeabi_d2f
        BL       __aeabi_d2f
        LDR.W    R1,??DataTable5_15
        LDR.W    R4,??DataTable5_13
        STR      R0,[R1, #+8]
        ADD      R5,R4,#+8
        LDR.W    R1,??DataTable5_16
        STR      R0,[R5, #+8]
        STR      R0,[R1, #+8]
//  243 	       epr_write_data(EPR_Z_MIN_POS, (uint8_t *)&mksCfg.z_min_pos,sizeof(float));   
        MOVS     R2,#+4
        ADD      R1,R4,#+16
        MOVW     R0,#+1470
        B.N      ??set_value_confirm_9
//  244 
//  245 		max_length_P[2] = mksCfg.z_max_pos - mksCfg.z_min_pos;
//  246 		if(MACHINETPYE != DELTA)
//  247 		{
//  248 	    		base_home_pos_P[2] = (mksCfg.z_home_dir < 0 ? mksCfg.z_min_pos : mksCfg.z_max_pos); 
//  249 		}
//  250         break;
//  251        case Y_stroke:
//  252 	       mksCfg.y_max_pos = base_max_pos_P[1] = soft_endstop_max[1] = atof(key_value); 
??set_value_confirm_10:
        MOVS     R2,#+0
        MOVS     R1,#+0
        LDR.W    R0,??DataTable5_11
          CFI FunCall __iar_Stod
        BL       __iar_Stod
          CFI FunCall __aeabi_d2f
        BL       __aeabi_d2f
        LDR.W    R1,??DataTable5_12
        LDR.W    R4,??DataTable5_13
        STR      R0,[R1, #+4]
        ADD      R5,R4,#+8
        LDR.W    R1,??DataTable5_14
        STR      R0,[R5, #+16]
        STR      R0,[R1, #+4]
//  253             
//  254               epr_write_data(EPR_Y_MAX_POS, (uint8_t *)&mksCfg.y_max_pos,sizeof(float));
        MOVS     R2,#+4
        ADD      R1,R4,#+24
        MOVW     R0,#+1478
??set_value_confirm_7:
          CFI FunCall epr_write_data
        BL       epr_write_data
//  255 
//  256       	       max_length_P[1] = mksCfg.y_max_pos - mksCfg.y_min_pos;
        LDR      R0,[R5, #+16]
        LDR      R1,[R5, #+4]
          CFI FunCall __aeabi_fsub
        BL       __aeabi_fsub
        LDR.W    R1,??DataTable5_17
        STR      R0,[R1, #+4]
//  257               if(MACHINETPYE != DELTA)
        LDRSH    R0,[R5, #+80]
        CMP      R0,#+2
        BEQ.W    ??set_value_confirm_5
//  258 		{
//  259 	    		base_home_pos_P[1] = (mksCfg.y_home_dir < 0 ? mksCfg.y_min_pos : mksCfg.y_max_pos); 
        ADDS     R0,R4,#+5
        LDRSB    R0,[R0, #+1]
        CMP      R0,#+0
        ITE      MI 
        LDRMI    R0,[R5, #+4]
        LDRPL    R0,[R5, #+16]
        LDR.W    R1,??DataTable5_18
        STR      R0,[R1, #+4]
        POP      {R0,R4-R7,PC}
//  260 		}
//  261         
//  262         break;
//  263        case Z_stroke:
//  264 	   	mksCfg.z_max_pos = base_max_pos_P[2] = soft_endstop_max[2] = atof(key_value);  
??set_value_confirm_11:
        MOVS     R2,#+0
        MOVS     R1,#+0
        LDR.W    R0,??DataTable5_11
          CFI FunCall __iar_Stod
        BL       __iar_Stod
          CFI FunCall __aeabi_d2f
        BL       __aeabi_d2f
        LDR.W    R1,??DataTable5_12
        LDR.W    R4,??DataTable5_13
        STR      R0,[R1, #+8]
        ADD      R5,R4,#+8
        LDR.W    R1,??DataTable5_14
        STR      R0,[R5, #+20]
        STR      R0,[R1, #+8]
//  265               
//  266               epr_write_data(EPR_Z_MAX_POS, (uint8_t *)&mksCfg.z_max_pos,sizeof(float));
        MOVS     R2,#+4
        ADD      R1,R4,#+28
        MOVW     R0,#+1482
??set_value_confirm_9:
          CFI FunCall epr_write_data
        BL       epr_write_data
//  267               max_length_P[2] = mksCfg.z_max_pos - mksCfg.z_min_pos;
        LDR      R0,[R5, #+20]
        LDR      R1,[R5, #+8]
          CFI FunCall __aeabi_fsub
        BL       __aeabi_fsub
        LDR.W    R1,??DataTable5_17
        STR      R0,[R1, #+8]
//  268 		if(MACHINETPYE != DELTA)
        LDRSH    R0,[R5, #+80]
        CMP      R0,#+2
        BEQ.W    ??set_value_confirm_5
//  269 		{
//  270 	    		base_home_pos_P[2] = (mksCfg.z_home_dir < 0 ? mksCfg.z_min_pos : mksCfg.z_max_pos); 
        ADDS     R0,R4,#+5
        LDRSB    R0,[R0, #+2]
        CMP      R0,#+0
        ITE      MI 
        LDRMI    R0,[R5, #+8]
        LDRPL    R0,[R5, #+20]
        LDR.W    R1,??DataTable5_18
        STR      R0,[R1, #+8]
        POP      {R0,R4-R7,PC}
//  271 		}
//  272         break;
//  273 
//  274        case Load_Temper_limit:
//  275         gCfgItems.filament_load_limit_temper = atoi(key_value);
??set_value_confirm_12:
        MOVS     R2,#+10
        LDR.W    R7,??DataTable5_9
        LDR.W    R0,??DataTable5_11
        MOVS     R1,#+0
          CFI FunCall __iar_Stoul
        BL       __iar_Stoul
        ADD      R1,R7,#+236
//  276         epr_write_data(EPR_FILAMENT_LOAD_LIMIT_TEMPER, (uint8_t *)&gCfgItems.filament_load_limit_temper,sizeof(uint32_t));        
        MOVS     R2,#+4
        STR      R0,[R1, #+16]
        ADD      R1,R7,#+252
        MOV      R0,#+1776
        B.N      ??set_value_confirm_13
//  277         break;
//  278        case Load_Speed:
//  279         gCfgItems.filamentchange_load_speed = atoi(key_value);
??set_value_confirm_14:
        LDR.W    R7,??DataTable5_9
        LDR.W    R0,??DataTable5_11
        MOVS     R2,#+10
        MOVS     R1,#+0
          CFI FunCall __iar_Stoul
        BL       __iar_Stoul
        STR      R0,[R7, #+236]
//  280         epr_write_data(EPR_FILAMENT_LOAD_SPEED, (uint8_t *)&gCfgItems.filamentchange_load_speed,sizeof(uint32_t)); 
        ADD      R6,R7,#+236
        MOVS     R2,#+4
        MOV      R1,R6
        MOVW     R0,#+1772
        B.N      ??set_value_confirm_15
//  281 	 gCfgItems.filament_loading_time = (uint32_t)((gCfgItems.filamentchange_load_length*60.0/gCfgItems.filamentchange_load_speed)+0.5);
//  282         break;
//  283        case Load_Length:
//  284         gCfgItems.filamentchange_load_length = atoi(key_value);
??set_value_confirm_16:
        LDR.W    R7,??DataTable5_9
        LDR.W    R0,??DataTable5_11
        ADD      R6,R7,#+236
        MOVS     R2,#+10
        MOVS     R1,#+0
          CFI FunCall __iar_Stoul
        BL       __iar_Stoul
        STR      R0,[R6, #+8]
//  285         epr_write_data(EPR_FILAMENT_LOAD_LENGTH, (uint8_t *)&gCfgItems.filamentchange_load_length,sizeof(uint32_t));   
        MOVS     R2,#+4
        ADD      R1,R7,#+244
        MOV      R0,#+1768
??set_value_confirm_15:
          CFI FunCall epr_write_data
        BL       epr_write_data
//  286 	 gCfgItems.filament_loading_time = (uint32_t)((gCfgItems.filamentchange_load_length*60.0/gCfgItems.filamentchange_load_speed)+0.5);
        LDR      R0,[R6, #+8]
          CFI FunCall __aeabi_ui2d
        BL       __aeabi_ui2d
        MOVS     R2,#+0
        LDR.W    R3,??DataTable5_19  ;; 0x404e0000
          CFI FunCall __aeabi_dmul
        BL       __aeabi_dmul
        MOV      R4,R0
        LDR      R0,[R7, #+236]
        MOV      R5,R1
          CFI FunCall __aeabi_ui2d
        BL       __aeabi_ui2d
        MOV      R2,R0
        MOV      R3,R1
        MOV      R0,R4
        MOV      R1,R5
          CFI FunCall __aeabi_ddiv
        BL       __aeabi_ddiv
        MOVS     R2,#+0
        LDR.W    R3,??DataTable5_20  ;; 0x3fe00000
          CFI FunCall __aeabi_dadd
        BL       __aeabi_dadd
          CFI FunCall __aeabi_d2uiz
        BL       __aeabi_d2uiz
        STR      R0,[R6, #+24]
//  287         break;   
        POP      {R0,R4-R7,PC}
//  288        case Unload_Temper_limit:
//  289         gCfgItems.filament_unload_limit_temper = atoi(key_value);
??set_value_confirm_17:
        LDR.W    R7,??DataTable5_9
        LDR.W    R0,??DataTable5_11
        MOVS     R2,#+10
        MOVS     R1,#+0
          CFI FunCall __iar_Stoul
        BL       __iar_Stoul
        ADD      R1,R7,#+236
//  290         epr_write_data(EPR_FILAMENT_UNLOAD_LIMIT_TEMPER, (uint8_t *)&gCfgItems.filament_unload_limit_temper,sizeof(uint32_t));        
        MOVS     R2,#+4
        STR      R0,[R1, #+20]
        ADD      R1,R7,#+256
        MOVW     R0,#+1788
        B.N      ??set_value_confirm_13
//  291         break;
//  292        case Unload_Speed:
//  293         gCfgItems.filamentchange_unload_speed = atoi(key_value);
??set_value_confirm_18:
        LDR.W    R7,??DataTable5_9
        LDR.W    R0,??DataTable5_11
        ADD      R6,R7,#+236
        MOVS     R2,#+10
        MOVS     R1,#+0
          CFI FunCall __iar_Stoul
        BL       __iar_Stoul
        STR      R0,[R6, #+4]
//  294         epr_write_data(EPR_FILAMENT_UNLOAD_SPEED, (uint8_t *)&gCfgItems.filamentchange_unload_speed,sizeof(uint32_t));        
        MOVS     R2,#+4
        ADD      R1,R7,#+240
        MOV      R0,#+1784
        B.N      ??set_value_confirm_19
//  295   	 gCfgItems.filament_unloading_time = (uint32_t)((gCfgItems.filamentchange_unload_length*60.0/gCfgItems.filamentchange_unload_speed)+0.5);
//  296 	break;
//  297        case Unload_Length:
//  298         gCfgItems.filamentchange_unload_length = atoi(key_value);
??set_value_confirm_20:
        LDR.W    R7,??DataTable5_9
        LDR.W    R0,??DataTable5_11
        ADD      R6,R7,#+236
        MOVS     R2,#+10
        MOVS     R1,#+0
          CFI FunCall __iar_Stoul
        BL       __iar_Stoul
        STR      R0,[R6, #+12]
//  299         epr_write_data(EPR_FILAMENT_UNLOAD_LENGTH, (uint8_t *)&gCfgItems.filamentchange_unload_length,sizeof(uint32_t));   
        MOVS     R2,#+4
        ADD      R1,R7,#+248
        MOVW     R0,#+1780
??set_value_confirm_19:
          CFI FunCall epr_write_data
        BL       epr_write_data
//  300 	 
//  301   	 gCfgItems.filament_unloading_time = (uint32_t)((gCfgItems.filamentchange_unload_length*60.0/gCfgItems.filamentchange_unload_speed)+0.5);
        LDR      R0,[R6, #+12]
          CFI FunCall __aeabi_ui2d
        BL       __aeabi_ui2d
        MOVS     R2,#+0
        LDR.W    R3,??DataTable5_19  ;; 0x404e0000
          CFI FunCall __aeabi_dmul
        BL       __aeabi_dmul
        MOV      R4,R0
        LDR      R0,[R6, #+4]
        MOV      R5,R1
          CFI FunCall __aeabi_ui2d
        BL       __aeabi_ui2d
        MOV      R2,R0
        MOV      R3,R1
        MOV      R0,R4
        MOV      R1,R5
          CFI FunCall __aeabi_ddiv
        BL       __aeabi_ddiv
        MOVS     R2,#+0
        LDR.W    R3,??DataTable5_20  ;; 0x3fe00000
          CFI FunCall __aeabi_dadd
        BL       __aeabi_dadd
          CFI FunCall __aeabi_d2uiz
        BL       __aeabi_d2uiz
        STR      R0,[R6, #+28]
//  302         break;
        POP      {R0,R4-R7,PC}
//  303        case xoffset:
//  304         mksCfg.x_probe_offset_from_extruder = atof(key_value);   
??set_value_confirm_21:
        LDR.W    R4,??DataTable5_13
        LDR.W    R0,??DataTable5_11
        MOVS     R2,#+0
        MOVS     R1,#+0
          CFI FunCall __iar_Stod
        BL       __iar_Stod
          CFI FunCall __aeabi_d2f
        BL       __aeabi_d2f
        ADD      R1,R4,#+8
//  305         epr_write_data(EPR_X_PROBE_OFFSET_FROM_EXTRUDER, (uint8_t *)&mksCfg.x_probe_offset_from_extruder,sizeof(float));
        MOVS     R2,#+4
        STR      R0,[R1, #+100]
        ADD      R1,R4,#+108
        MOVW     R0,#+1555
        B.N      ??set_value_confirm_13
//  306         break; 
//  307        case yoffset:
//  308         mksCfg.y_probe_offset_from_extruder = atof(key_value);   
??set_value_confirm_22:
        LDR.W    R4,??DataTable5_13
        LDR.W    R0,??DataTable5_11
        MOVS     R2,#+0
        MOVS     R1,#+0
          CFI FunCall __iar_Stod
        BL       __iar_Stod
          CFI FunCall __aeabi_d2f
        BL       __aeabi_d2f
        ADD      R1,R4,#+8
//  309         epr_write_data(EPR_Y_PROBE_OFFSET_FROM_EXTRUDER, (uint8_t *)&mksCfg.y_probe_offset_from_extruder,sizeof(float));
        MOVS     R2,#+4
        STR      R0,[R1, #+104]
        ADD      R1,R4,#+112
        MOVW     R0,#+1559
        B.N      ??set_value_confirm_13
//  310         break;
//  311        case zoffset:
//  312         zprobe_zoffset = atof(key_value);   
??set_value_confirm_23:
        MOVS     R2,#+0
        MOVS     R1,#+0
        LDR.W    R0,??DataTable5_11
          CFI FunCall __iar_Stod
        BL       __iar_Stod
          CFI FunCall __aeabi_d2f
        BL       __aeabi_d2f
        LDR.W    R1,??DataTable5_21
        B.N      ??set_value_confirm_24
//  313         gcode_M500();	//保存参数
//  314         break; 
//  315        case xyspeed:
//  316         mksCfg.xy_probe_speed = atof(key_value);   
??set_value_confirm_25:
        LDR.W    R4,??DataTable5_13
        LDR.W    R0,??DataTable5_11
        MOVS     R2,#+0
        MOVS     R1,#+0
          CFI FunCall __iar_Stod
        BL       __iar_Stod
          CFI FunCall __aeabi_d2f
        BL       __aeabi_d2f
        ADD      R1,R4,#+8
//  317         epr_write_data(EPR_XY_PROBE_SPEED, (uint8_t *)&mksCfg.xy_probe_speed,sizeof(float));
        MOVS     R2,#+4
        STR      R0,[R1, #+108]
        ADD      R1,R4,#+116
        MOVW     R0,#+1563
        B.N      ??set_value_confirm_13
//  318         break;
//  319        case zspeed:
//  320         mksCfg.z_probe_speed_fast = atof(key_value);   
??set_value_confirm_26:
        LDR.W    R4,??DataTable5_13
        LDR.W    R0,??DataTable5_11
        ADD      R5,R4,#+8
        MOVS     R2,#+0
        MOVS     R1,#+0
          CFI FunCall __iar_Stod
        BL       __iar_Stod
          CFI FunCall __aeabi_d2f
        BL       __aeabi_d2f
        STR      R0,[R5, #+112]
//  321         epr_write_data(EPR_Z_PROBE_SPEED_FAST, (uint8_t *)&mksCfg.z_probe_speed_fast,sizeof(float));
        MOVS     R2,#+4
        ADD      R1,R4,#+120
        MOVW     R0,#+1567
          CFI FunCall epr_write_data
        BL       epr_write_data
//  322         mksCfg.z_probe_speed_slow= (float)((uint32_t)mksCfg.z_probe_speed_fast>>1);  //慢速为快速的一半 
        LDR      R0,[R5, #+112]
          CFI FunCall __aeabi_f2uiz
        BL       __aeabi_f2uiz
        LSRS     R0,R0,#+1
          CFI FunCall __aeabi_ui2f
        BL       __aeabi_ui2f
        STR      R0,[R5, #+116]
//  323         epr_write_data(EPR_Z_PROBE_SPEED_SLOW, (uint8_t *)&mksCfg.z_probe_speed_slow,sizeof(float));
        MOVS     R2,#+4
        ADD      R1,R4,#+124
        MOVW     R0,#+1571
        B.N      ??set_value_confirm_13
//  324         break; 
//  325        case DeltaRadius:
//  326         delta_radius=atof(key_value);
??set_value_confirm_27:
        MOVS     R2,#+0
        MOVS     R1,#+0
        LDR.W    R0,??DataTable5_11
          CFI FunCall __iar_Stod
        BL       __iar_Stod
          CFI FunCall __aeabi_d2f
        BL       __aeabi_d2f
        LDR.W    R1,??DataTable5_22
        B.N      ??set_value_confirm_24
//  327         gcode_M500();	//保存参数
//  328         break;
//  329        case DeltaDiagonalRod:
//  330         delta_diagonal_rod=atof(key_value);
??set_value_confirm_28:
        LDR.W    R0,??DataTable5_11
        MOVS     R2,#+0
        MOVS     R1,#+0
          CFI FunCall __iar_Stod
        BL       __iar_Stod
          CFI FunCall __aeabi_d2f
        BL       __aeabi_d2f
        LDR.W    R1,??DataTable5_23
        B.N      ??set_value_confirm_24
//  331         gcode_M500();	//保存参数       
//  332         break;
//  333        case PrintableRadius:
//  334         mksCfg.delta_printable_radius=atof(key_value);
??set_value_confirm_29:
        LDR.W    R4,??DataTable5_13
        LDR.W    R0,??DataTable5_11
        MOVS     R2,#+0
        MOVS     R1,#+0
          CFI FunCall __iar_Stod
        BL       __iar_Stod
          CFI FunCall __aeabi_d2f
        BL       __aeabi_d2f
        ADD      R1,R4,#+8
//  335         epr_write_data(EPR_DELTA_PRINTABLE_RADIUS,(uint8_t *)&mksCfg.delta_printable_radius,sizeof(float));        
        MOVS     R2,#+4
        STR      R0,[R1, #+76]
        ADD      R1,R4,#+84
        MOVW     R0,#+1533
        B.N      ??set_value_confirm_13
//  336         break;
//  337        case DeltaHeight:
//  338         mksCfg.delta_height=atof(key_value);
??set_value_confirm_30:
        LDR.W    R4,??DataTable5_13
        LDR.W    R0,??DataTable5_11
        MOVS     R2,#+0
        MOVS     R1,#+0
          CFI FunCall __iar_Stod
        BL       __iar_Stod
          CFI FunCall __aeabi_d2f
        BL       __aeabi_d2f
        ADD      R1,R4,#+8
//  339         epr_write_data(EPR_DELTA_HEIGHT,(uint8_t *)&mksCfg.delta_height,sizeof(float));        
        MOVS     R2,#+4
        STR      R0,[R1, #+72]
        ADD      R1,R4,#+80
        MOVW     R0,#+1529
        B.N      ??set_value_confirm_13
//  340        
//  341         break;   
//  342        case SmoothRodOffset:
//  343         mksCfg.delta_smooth_rod_offset=atof(key_value);
??set_value_confirm_31:
        LDR.W    R4,??DataTable5_13
        LDR.W    R0,??DataTable5_11
        MOVS     R2,#+0
        MOVS     R1,#+0
          CFI FunCall __iar_Stod
        BL       __iar_Stod
          CFI FunCall __aeabi_d2f
        BL       __aeabi_d2f
        ADD      R1,R4,#+8
//  344         epr_write_data(EPR_DELTA_SMOOTH_ROD_OFFSET,(uint8_t *)&mksCfg.delta_smooth_rod_offset,sizeof(float));    
        MOVS     R2,#+4
        STR      R0,[R1, #+60]
        ADD      R1,R4,#+68
        MOVW     R0,#+1517
        B.N      ??set_value_confirm_13
//  345         break;  
//  346        case EffectorOffset:
//  347 
//  348         mksCfg.delta_effector_offset=atof(key_value);
??set_value_confirm_32:
        LDR.W    R4,??DataTable5_13
        LDR.W    R0,??DataTable5_11
        MOVS     R2,#+0
        MOVS     R1,#+0
          CFI FunCall __iar_Stod
        BL       __iar_Stod
          CFI FunCall __aeabi_d2f
        BL       __aeabi_d2f
        ADD      R1,R4,#+8
//  349         epr_write_data(EPR_DELTA_EFFECTOR_OFFSET,(uint8_t *)&mksCfg.delta_effector_offset,sizeof(float));    
        MOVS     R2,#+4
        STR      R0,[R1, #+64]
        ADD      R1,R4,#+72
        MOVW     R0,#+1521
        B.N      ??set_value_confirm_13
//  350        
//  351         break;  
//  352        case CalibrationRadius:
//  353        delta_calibration_radius=atof(key_value);
??set_value_confirm_33:
        MOVS     R2,#+0
        MOVS     R1,#+0
        LDR.W    R0,??DataTable5_11
          CFI FunCall __iar_Stod
        BL       __iar_Stod
          CFI FunCall __aeabi_d2f
        BL       __aeabi_d2f
        LDR.W    R1,??DataTable5_24
        B.N      ??set_value_confirm_24
//  354        gcode_M500();   //保存参数       
//  355         break; 
//  356        case Point1_x:
//  357        gCfgItems.leveling_point1_x=atoi(key_value);
??set_value_confirm_34:
        LDR.W    R7,??DataTable5_9
        LDR.W    R0,??DataTable5_11
        MOVS     R2,#+10
        MOVS     R1,#+0
          CFI FunCall __iar_Stoul
        BL       __iar_Stoul
        ADD      R1,R7,#+236
//  358 	epr_write_data(EPR_LEVELING_POINT1_X,(uint8_t *)&gCfgItems.leveling_point1_x,sizeof(gCfgItems.leveling_point1_x));      
        MOVS     R2,#+2
        STRH     R0,[R1, #+34]
        ADD      R1,R7,#+270
        MOVW     R0,#+1806
        B.N      ??set_value_confirm_13
//  359         break;   
//  360 	case Point1_y:
//  361        gCfgItems.leveling_point1_y=atof(key_value);
??set_value_confirm_35:
        LDR.W    R7,??DataTable5_9
        LDR.W    R0,??DataTable5_11
        MOVS     R2,#+0
        MOVS     R1,#+0
          CFI FunCall __iar_Stod
        BL       __iar_Stod
          CFI FunCall __aeabi_d2iz
        BL       __aeabi_d2iz
        ADD      R1,R7,#+236
//  362 	epr_write_data(EPR_LEVELING_POINT1_Y,(uint8_t *)&gCfgItems.leveling_point1_y,sizeof(gCfgItems.leveling_point1_y));	
        MOVS     R2,#+2
        STRH     R0,[R1, #+36]
        ADD      R1,R7,#+272
        MOV      R0,#+1808
        B.N      ??set_value_confirm_13
//  363       
//  364         break; 
//  365        case Point2_x:
//  366        gCfgItems.leveling_point2_x=atoi(key_value);
??set_value_confirm_36:
        LDR.W    R7,??DataTable5_9
        LDR.W    R0,??DataTable5_11
        MOVS     R2,#+10
        MOVS     R1,#+0
          CFI FunCall __iar_Stoul
        BL       __iar_Stoul
        ADD      R1,R7,#+236
//  367 	epr_write_data(EPR_LEVELING_POINT2_X,(uint8_t *)&gCfgItems.leveling_point2_x,sizeof(gCfgItems.leveling_point2_x));      
        MOVS     R2,#+2
        STRH     R0,[R1, #+38]
        ADD      R1,R7,#+274
        MOVW     R0,#+1810
        B.N      ??set_value_confirm_13
//  368         break;   
//  369 	case Point2_y:
//  370        gCfgItems.leveling_point2_y=atoi(key_value);
??set_value_confirm_37:
        LDR.W    R7,??DataTable5_9
        LDR.W    R0,??DataTable5_11
        MOVS     R2,#+10
        MOVS     R1,#+0
          CFI FunCall __iar_Stoul
        BL       __iar_Stoul
        ADD      R1,R7,#+236
//  371 	epr_write_data(EPR_LEVELING_POINT2_Y,(uint8_t *)&gCfgItems.leveling_point2_y,sizeof(gCfgItems.leveling_point2_y));	
        MOVS     R2,#+2
        STRH     R0,[R1, #+40]
        ADD      R1,R7,#+276
        MOVW     R0,#+1812
        B.N      ??set_value_confirm_13
//  372       
//  373         break;   
//  374        case Point3_x:
//  375        gCfgItems.leveling_point3_x=atoi(key_value);
??set_value_confirm_38:
        LDR.W    R7,??DataTable5_9
        LDR.W    R0,??DataTable5_11
        MOVS     R2,#+10
        MOVS     R1,#+0
          CFI FunCall __iar_Stoul
        BL       __iar_Stoul
        ADD      R1,R7,#+236
//  376 	epr_write_data(EPR_LEVELING_POINT3_X,(uint8_t *)&gCfgItems.leveling_point3_x,sizeof(gCfgItems.leveling_point3_x));      
        MOVS     R2,#+2
        STRH     R0,[R1, #+42]
        ADD      R1,R7,#+278
        MOVW     R0,#+1814
        B.N      ??set_value_confirm_13
//  377         break;   
//  378 	case Point3_y:
//  379        gCfgItems.leveling_point3_y=atoi(key_value);
??set_value_confirm_39:
        LDR.W    R7,??DataTable5_9
        LDR.W    R0,??DataTable5_11
        MOVS     R2,#+10
        MOVS     R1,#+0
          CFI FunCall __iar_Stoul
        BL       __iar_Stoul
        ADD      R1,R7,#+236
//  380 	epr_write_data(EPR_LEVELING_POINT3_Y,(uint8_t *)&gCfgItems.leveling_point3_y,sizeof(gCfgItems.leveling_point3_y));	
        MOVS     R2,#+2
        STRH     R0,[R1, #+44]
        ADD      R1,R7,#+280
        MOV      R0,#+1816
        B.N      ??set_value_confirm_13
//  381       
//  382         break;  
//  383 	case Point4_x:
//  384        gCfgItems.leveling_point4_x=atoi(key_value);
??set_value_confirm_40:
        LDR.W    R7,??DataTable5_9
        LDR.W    R0,??DataTable5_11
        MOVS     R2,#+10
        MOVS     R1,#+0
          CFI FunCall __iar_Stoul
        BL       __iar_Stoul
        ADD      R1,R7,#+236
//  385 	epr_write_data(EPR_LEVELING_POINT4_X,(uint8_t *)&gCfgItems.leveling_point4_x,sizeof(gCfgItems.leveling_point4_x));      
        MOVS     R2,#+2
        STRH     R0,[R1, #+46]
        ADD      R1,R7,#+282
        MOVW     R0,#+1818
        B.N      ??set_value_confirm_13
//  386         break;   
//  387 	case Point4_y:
//  388        gCfgItems.leveling_point4_y=atoi(key_value);
??set_value_confirm_41:
        LDR.W    R7,??DataTable5_9
        LDR.W    R0,??DataTable5_11
        MOVS     R2,#+10
        MOVS     R1,#+0
          CFI FunCall __iar_Stoul
        BL       __iar_Stoul
        ADD      R1,R7,#+236
//  389 	epr_write_data(EPR_LEVELING_POINT4_Y,(uint8_t *)&gCfgItems.leveling_point4_y,sizeof(gCfgItems.leveling_point4_y));	
        MOVS     R2,#+2
        STRH     R0,[R1, #+48]
        ADD      R1,R7,#+284
        MOVW     R0,#+1820
        B.N      ??set_value_confirm_13
//  390       
//  391         break; 
//  392 	case Point5_x:
//  393        gCfgItems.leveling_point5_x=atoi(key_value);
??set_value_confirm_42:
        LDR.W    R7,??DataTable5_9
        LDR.W    R0,??DataTable5_11
        MOVS     R2,#+10
        MOVS     R1,#+0
          CFI FunCall __iar_Stoul
        BL       __iar_Stoul
        ADD      R1,R7,#+236
//  394 	epr_write_data(EPR_LEVELING_POINT5_X,(uint8_t *)&gCfgItems.leveling_point5_x,sizeof(gCfgItems.leveling_point5_x));      
        MOVS     R2,#+2
        STRH     R0,[R1, #+50]
        ADD      R1,R7,#+286
        MOVW     R0,#+1822
        B.N      ??set_value_confirm_13
//  395         break;   
//  396 	case Point5_y:
//  397        gCfgItems.leveling_point5_y=atoi(key_value);
??set_value_confirm_43:
        LDR.W    R7,??DataTable5_9
        LDR.W    R0,??DataTable5_11
        MOVS     R2,#+10
        MOVS     R1,#+0
          CFI FunCall __iar_Stoul
        BL       __iar_Stoul
        ADD      R1,R7,#+236
//  398 	epr_write_data(EPR_LEVELING_POINT5_Y,(uint8_t *)&gCfgItems.leveling_point5_y,sizeof(gCfgItems.leveling_point5_y));	
        MOVS     R2,#+2
        STRH     R0,[R1, #+52]
        ADD      R1,R7,#+288
        MOV      R0,#+1824
        B.N      ??set_value_confirm_13
//  399       
//  400         break; 
//  401        case XMaxFeedRate:
//  402         planner.max_feedrate_mm_s[X_AXIS]=atof(key_value);
??set_value_confirm_44:
        MOVS     R2,#+0
        MOVS     R1,#+0
        LDR.W    R0,??DataTable5_11
          CFI FunCall __iar_Stod
        BL       __iar_Stod
          CFI FunCall __aeabi_d2f
        BL       __aeabi_d2f
        LDR.W    R1,??DataTable5_25
        B.N      ??set_value_confirm_24
//  403         gcode_M500();   //保存参数          
//  404         break;
//  405        case YMaxFeedRate:
//  406         planner.max_feedrate_mm_s[Y_AXIS]=atof(key_value);
??set_value_confirm_45:
        LDR.W    R0,??DataTable5_11
        MOVS     R2,#+0
        MOVS     R1,#+0
          CFI FunCall __iar_Stod
        BL       __iar_Stod
          CFI FunCall __aeabi_d2f
        BL       __aeabi_d2f
        LDR.W    R1,??DataTable5_25
        STR      R0,[R1, #+4]
//  407         gcode_M500();   //保存参数            
        B.N      ??set_value_confirm_46
//  408         break; 
//  409        case ZMaxFeedRate:
//  410         planner.max_feedrate_mm_s[Z_AXIS]=atof(key_value);
??set_value_confirm_47:
        MOVS     R2,#+0
        MOVS     R1,#+0
        LDR.W    R0,??DataTable5_11
          CFI FunCall __iar_Stod
        BL       __iar_Stod
          CFI FunCall __aeabi_d2f
        BL       __aeabi_d2f
        LDR.W    R1,??DataTable5_25
        STR      R0,[R1, #+8]
//  411         gcode_M500();   //保存参数            
        B.N      ??set_value_confirm_46
//  412         break;  
//  413        case E0MaxFeedRate:
//  414         planner.max_feedrate_mm_s[E_AXIS]=atof(key_value);
??set_value_confirm_48:
        MOVS     R2,#+0
        MOVS     R1,#+0
        LDR.W    R0,??DataTable5_11
          CFI FunCall __iar_Stod
        BL       __iar_Stod
          CFI FunCall __aeabi_d2f
        BL       __aeabi_d2f
        LDR.W    R1,??DataTable5_25
        STR      R0,[R1, #+12]
//  415         gcode_M500();   //保存参数             
        B.N      ??set_value_confirm_46
//  416         break;
//  417        case E1MaxFeedRate:
//  418         planner.max_feedrate_mm_s[XYZE]=atof(key_value);
??set_value_confirm_49:
        MOVS     R2,#+0
        MOVS     R1,#+0
        LDR.W    R0,??DataTable5_11
          CFI FunCall __iar_Stod
        BL       __iar_Stod
          CFI FunCall __aeabi_d2f
        BL       __aeabi_d2f
        LDR.W    R1,??DataTable5_25
        STR      R0,[R1, #+16]
//  419         gcode_M500();   //保存参数           
        B.N      ??set_value_confirm_46
//  420         break;   
//  421        case PrintAcceleration:
//  422         planner.acceleration=atof(key_value);
??set_value_confirm_50:
        MOVS     R2,#+0
        MOVS     R1,#+0
        LDR.W    R0,??DataTable5_11
          CFI FunCall __iar_Stod
        BL       __iar_Stod
          CFI FunCall __aeabi_d2f
        BL       __aeabi_d2f
        LDR.W    R1,??DataTable5_26
        B.N      ??set_value_confirm_24
//  423         gcode_M500();   //保存参数   
//  424        
//  425         break;   
//  426        case RetractAcceleration:
//  427         planner.retract_acceleration=atof(key_value);
??set_value_confirm_51:
        LDR.W    R0,??DataTable5_11
        MOVS     R2,#+0
        MOVS     R1,#+0
          CFI FunCall __iar_Stod
        BL       __iar_Stod
          CFI FunCall __aeabi_d2f
        BL       __aeabi_d2f
        LDR.W    R1,??DataTable5_27
        B.N      ??set_value_confirm_24
//  428         gcode_M500();   //保存参数         
//  429         break;   
//  430        case TravelAcceleration:
//  431         planner.travel_acceleration=atof(key_value);
??set_value_confirm_52:
        MOVS     R2,#+0
        MOVS     R1,#+0
        LDR.N    R0,??DataTable5_11
          CFI FunCall __iar_Stod
        BL       __iar_Stod
          CFI FunCall __aeabi_d2f
        BL       __aeabi_d2f
        LDR.W    R1,??DataTable5_28
        B.N      ??set_value_confirm_24
//  432         gcode_M500();   //保存参数               
//  433         break;  
//  434        case XAcceleration:
//  435         planner.max_acceleration_mm_per_s2[X_AXIS]=atof(key_value);
??set_value_confirm_53:
        LDR.N    R0,??DataTable5_11
        MOVS     R2,#+0
        MOVS     R1,#+0
          CFI FunCall __iar_Stod
        BL       __iar_Stod
          CFI FunCall __aeabi_d2uiz
        BL       __aeabi_d2uiz
        LDR.W    R1,??DataTable5_29
        B.N      ??set_value_confirm_24
//  436         gcode_M500();   //保存参数            
//  437         break; 
//  438        case YAcceleration:
//  439         planner.max_acceleration_mm_per_s2[Y_AXIS]=atof(key_value);
??set_value_confirm_54:
        MOVS     R2,#+0
        MOVS     R1,#+0
        LDR.N    R0,??DataTable5_11
          CFI FunCall __iar_Stod
        BL       __iar_Stod
          CFI FunCall __aeabi_d2uiz
        BL       __aeabi_d2uiz
        LDR.W    R1,??DataTable5_29
        STR      R0,[R1, #+4]
//  440         gcode_M500();   //保存参数                
        B.N      ??set_value_confirm_46
//  441         break; 
//  442        case ZAcceleration:
//  443         planner.max_acceleration_mm_per_s2[Z_AXIS]=atof(key_value);
??set_value_confirm_55:
        MOVS     R2,#+0
        MOVS     R1,#+0
        LDR.N    R0,??DataTable5_11
          CFI FunCall __iar_Stod
        BL       __iar_Stod
          CFI FunCall __aeabi_d2uiz
        BL       __aeabi_d2uiz
        LDR.N    R1,??DataTable5_29
        STR      R0,[R1, #+8]
//  444         gcode_M500();   //保存参数           
        B.N      ??set_value_confirm_46
//  445      
//  446         break;
//  447        case E0Acceleration:
//  448         planner.max_acceleration_mm_per_s2[E_AXIS]=atof(key_value);
??set_value_confirm_56:
        MOVS     R2,#+0
        MOVS     R1,#+0
        LDR.N    R0,??DataTable5_11
          CFI FunCall __iar_Stod
        BL       __iar_Stod
          CFI FunCall __aeabi_d2uiz
        BL       __aeabi_d2uiz
        LDR.N    R1,??DataTable5_29
        STR      R0,[R1, #+12]
//  449         gcode_M500();   //保存参数        
        B.N      ??set_value_confirm_46
//  450       
//  451         break; 
//  452        case E1Acceleration:
//  453         planner.max_acceleration_mm_per_s2[XYZE]=atof(key_value);
??set_value_confirm_57:
        MOVS     R2,#+0
        MOVS     R1,#+0
        LDR.N    R0,??DataTable5_11
          CFI FunCall __iar_Stod
        BL       __iar_Stod
          CFI FunCall __aeabi_d2uiz
        BL       __aeabi_d2uiz
        LDR.N    R1,??DataTable5_29
        STR      R0,[R1, #+16]
//  454         gcode_M500();   //保存参数    
        B.N      ??set_value_confirm_46
//  455      
//  456         break;  
//  457        case XJerk:
//  458         planner.max_jerk[X_AXIS]=atof(key_value);
??set_value_confirm_58:
        MOVS     R2,#+0
        MOVS     R1,#+0
        LDR.N    R0,??DataTable5_11
          CFI FunCall __iar_Stod
        BL       __iar_Stod
          CFI FunCall __aeabi_d2f
        BL       __aeabi_d2f
        LDR.N    R1,??DataTable5_30
        B.N      ??set_value_confirm_24
//  459         gcode_M500();   //保存参数    
//  460      
//  461         break; 
//  462        case YJerk:
//  463         planner.max_jerk[Y_AXIS]=atof(key_value);
??set_value_confirm_59:
        LDR.N    R0,??DataTable5_11
        MOVS     R2,#+0
        MOVS     R1,#+0
          CFI FunCall __iar_Stod
        BL       __iar_Stod
          CFI FunCall __aeabi_d2f
        BL       __aeabi_d2f
        LDR.N    R1,??DataTable5_30
        STR      R0,[R1, #+4]
//  464         gcode_M500();   //保存参数    
        B.N      ??set_value_confirm_46
//  465      
//  466         break; 
//  467        case ZJerk:
//  468         planner.max_jerk[Z_AXIS]=atof(key_value);
??set_value_confirm_60:
        MOVS     R2,#+0
        MOVS     R1,#+0
        LDR.N    R0,??DataTable5_11
          CFI FunCall __iar_Stod
        BL       __iar_Stod
          CFI FunCall __aeabi_d2f
        BL       __aeabi_d2f
        LDR.N    R1,??DataTable5_30
        STR      R0,[R1, #+8]
//  469         gcode_M500();   //保存参数    
        B.N      ??set_value_confirm_46
//  470      
//  471         break; 
//  472        case EJerk:
//  473         planner.max_jerk[E_AXIS]=atof(key_value);
??set_value_confirm_61:
        MOVS     R2,#+0
        MOVS     R1,#+0
        LDR.N    R0,??DataTable5_11
          CFI FunCall __iar_Stod
        BL       __iar_Stod
          CFI FunCall __aeabi_d2f
        BL       __aeabi_d2f
        LDR.N    R1,??DataTable5_30
        STR      R0,[R1, #+12]
//  474         gcode_M500();   //保存参数    
        B.N      ??set_value_confirm_46
//  475      
//  476         break; 
//  477        case Xstep:
//  478         planner.axis_steps_per_mm[X_AXIS]=atof(key_value);
??set_value_confirm_62:
        MOVS     R2,#+0
        MOVS     R1,#+0
        LDR.N    R0,??DataTable5_11
          CFI FunCall __iar_Stod
        BL       __iar_Stod
          CFI FunCall __aeabi_d2f
        BL       __aeabi_d2f
        LDR.N    R1,??DataTable5_31
        B.N      ??set_value_confirm_24
//  479         gcode_M500();   //保存参数            
//  480         break;
//  481        case Ystep:
//  482         planner.axis_steps_per_mm[Y_AXIS]=atof(key_value);
??set_value_confirm_63:
        LDR.N    R0,??DataTable5_11
        MOVS     R2,#+0
        MOVS     R1,#+0
          CFI FunCall __iar_Stod
        BL       __iar_Stod
          CFI FunCall __aeabi_d2f
        BL       __aeabi_d2f
        LDR.N    R1,??DataTable5_31
        STR      R0,[R1, #+4]
//  483         gcode_M500();   //保存参数            
        B.N      ??set_value_confirm_46
//  484         break;  
//  485        case Zstep:
//  486         planner.axis_steps_per_mm[Z_AXIS]=atof(key_value);
??set_value_confirm_64:
        MOVS     R2,#+0
        MOVS     R1,#+0
        LDR.N    R0,??DataTable5_11
          CFI FunCall __iar_Stod
        BL       __iar_Stod
          CFI FunCall __aeabi_d2f
        BL       __aeabi_d2f
        LDR.N    R1,??DataTable5_31
        STR      R0,[R1, #+8]
//  487         gcode_M500();   //保存参数            
        B.N      ??set_value_confirm_46
//  488         break;  
//  489        case E0step:
//  490         planner.axis_steps_per_mm[E_AXIS]=atof(key_value);
??set_value_confirm_65:
        MOVS     R2,#+0
        MOVS     R1,#+0
        LDR.N    R0,??DataTable5_11
          CFI FunCall __iar_Stod
        BL       __iar_Stod
          CFI FunCall __aeabi_d2f
        BL       __aeabi_d2f
        LDR.N    R1,??DataTable5_31
        STR      R0,[R1, #+12]
//  491         gcode_M500();   //保存参数            
        B.N      ??set_value_confirm_46
//  492         break;
//  493        case E1step:
//  494         planner.axis_steps_per_mm[XYZE]=atof(key_value);
??set_value_confirm_66:
        MOVS     R2,#+0
        MOVS     R1,#+0
        LDR.N    R0,??DataTable5_11
          CFI FunCall __iar_Stod
        BL       __iar_Stod
          CFI FunCall __aeabi_d2f
        BL       __aeabi_d2f
        LDR.N    R1,??DataTable5_31
        STR      R0,[R1, #+16]
//  495         gcode_M500();   //保存参数            
        B.N      ??set_value_confirm_46
//  496         break;  
//  497        case XYspeed:
//  498 		mksCfg.homing_feedrate_xy=atof(key_value);
??set_value_confirm_67:
        MOVS     R2,#+0
        LDR.N    R4,??DataTable5_13
        LDR.N    R0,??DataTable5_11
        MOVS     R1,#+0
          CFI FunCall __iar_Stod
        BL       __iar_Stod
          CFI FunCall __aeabi_d2f
        BL       __aeabi_d2f
        ADD      R1,R4,#+8
//  499 		epr_write_data(EPR_HOMING_FEEDRATE_XY,(uint8_t *)&mksCfg.homing_feedrate_xy,sizeof(float)); 		
        MOVS     R2,#+4
        STR      R0,[R1, #+28]
        ADD      R1,R4,#+36
        MOV      R0,#+1488
        B.N      ??set_value_confirm_13
//  500 
//  501         break;
//  502        case Zspeed:
//  503 		mksCfg.homing_feedrate_z=atof(key_value);
??set_value_confirm_68:
        LDR.N    R4,??DataTable5_13
        LDR.N    R0,??DataTable5_11
        MOVS     R2,#+0
        MOVS     R1,#+0
          CFI FunCall __iar_Stod
        BL       __iar_Stod
          CFI FunCall __aeabi_d2f
        BL       __aeabi_d2f
        ADD      R1,R4,#+8
//  504 		epr_write_data(EPR_HOMING_FEEDRATE_Z,(uint8_t *)&mksCfg.homing_feedrate_z,sizeof(float)); 		
        MOVS     R2,#+4
        STR      R0,[R1, #+32]
        ADD      R1,R4,#+40
        MOVW     R0,#+1492
        B.N      ??set_value_confirm_13
//  505 
//  506         break;	
//  507        case Nozzle_Cnt:
//  508         mksCfg.extruders=atoi(key_value);
??set_value_confirm_69:
        MOVS     R2,#+10
        MOVS     R1,#+0
        LDR.N    R0,??DataTable5_11
          CFI FunCall __iar_Stoul
        BL       __iar_Stoul
//  509         if(mksCfg.extruders>2)
        UXTB     R0,R0
        CMP      R0,#+3
        IT       GE 
//  510             mksCfg.extruders=2;
        MOVGE    R0,#+2
        LDR.N    R4,??DataTable5_13
        ADD      R1,R4,#+240
//  511 		epr_write_data(EPR_EXTRUDERS,(uint8_t *)&mksCfg.extruders,1); 		
        MOVS     R2,#+1
        STRB     R0,[R1, #+7]
        ADD      R1,R4,#+247
        MOV      R0,#+1680
        B.N      ??set_value_confirm_13
//  512         
//  513         break;
//  514 
//  515         case Nozzle_min:
//  516          mksCfg.heater_0_mintemp=atoi(key_value);   
??set_value_confirm_70:
        LDR.N    R4,??DataTable5_13
        LDR.N    R0,??DataTable5_11
        MOVS     R2,#+10
        MOVS     R1,#+0
          CFI FunCall __iar_Stoul
        BL       __iar_Stoul
        STRH     R0,[R4, #+240]
//  517          mksCfg.heater_1_mintemp=mksCfg.heater_0_mintemp;
        ADD      R1,R4,#+240
        LDRH     R0,[R4, #+240]
        STRB     R0,[R1, #+2]
//  518          epr_write_data(EPR_HEATER_0_MINTEMP,(uint8_t *)&mksCfg.heater_0_mintemp,sizeof(int16_t));       
        MOVS     R2,#+2
        MOVW     R0,#+1674
          CFI FunCall epr_write_data
        BL       epr_write_data
//  519          epr_write_data(EPR_HEATER_1_MINTEMP,(uint8_t *)&mksCfg.heater_1_mintemp,sizeof(int8_t));
        MOVS     R2,#+1
        ADD      R1,R4,#+242
        MOVW     R0,#+1676
        B.N      ??set_value_confirm_71
//  520 	  
//  521 	  //thermalManager.minttemp_raw[1] =HEATER_1_RAW_LO_TEMP;
//  522 	  thermalManager.init();
//  523          break;
//  524         case Nozzle_max:
//  525          mksCfg.heater_0_maxtemp=atoi(key_value);
??set_value_confirm_72:
        LDR.N    R4,??DataTable5_13
        LDR.N    R0,??DataTable5_11
        ADD      R5,R4,#+8
        MOVS     R2,#+10
        MOVS     R1,#+0
          CFI FunCall __iar_Stoul
        BL       __iar_Stoul
        STRH     R0,[R5, #+40]
//  526          mksCfg.heater_1_maxtemp=mksCfg.heater_0_maxtemp;
        ADD      R1,R4,#+240
        LDRH     R0,[R5, #+40]
        STRH     R0,[R1, #+4]
//  527          epr_write_data(EPR_HEATER_0_MAXTEMP,(uint8_t *)&mksCfg.heater_0_maxtemp,sizeof(int16_t));       
        MOVS     R2,#+2
        ADD      R1,R4,#+48
        MOVW     R0,#+1500
          CFI FunCall epr_write_data
        BL       epr_write_data
//  528          epr_write_data(EPR_HEATER_1_MAXTEMP,(uint8_t *)&mksCfg.heater_1_maxtemp,sizeof(int16_t));
        MOVS     R2,#+2
        ADD      R1,R4,#+244
        MOVW     R0,#+1677
        B.N      ??set_value_confirm_71
//  529 	  //thermalManager.maxttemp_raw[0] =HEATER_0_RAW_HI_TEMP; 
//  530 	  //thermalManager.maxttemp_raw[1] =HEATER_1_RAW_HI_TEMP;
//  531 	  thermalManager.init();
//  532             break;
//  533         case Extrude_min_temper:
//  534           mksCfg.extrude_mintemp=atof(key_value);
??set_value_confirm_73:
        LDR.N    R4,??DataTable5_13
        LDR.N    R0,??DataTable5_11
        ADD      R5,R4,#+8
        MOVS     R2,#+0
        MOVS     R1,#+0
          CFI FunCall __iar_Stod
        BL       __iar_Stod
          CFI FunCall __aeabi_d2f
        BL       __aeabi_d2f
        STR      R0,[R5, #+36]
//  535 	   thermalManager.extrude_min_temp = mksCfg.extrude_mintemp;
          CFI FunCall __aeabi_f2iz
        BL       __aeabi_f2iz
        LDR.N    R1,??DataTable5_32
        STRH     R0,[R1, #+0]
//  536           epr_write_data(EPR_EXTRUDE_MINTEMP,(uint8_t *)&mksCfg.extrude_mintemp,sizeof(float));       
        MOVS     R2,#+4
        ADD      R1,R4,#+44
        MOV      R0,#+1496
??set_value_confirm_13:
        POP      {R3-R7,LR}
          CFI R4 SameValue
          CFI R5 SameValue
          CFI R6 SameValue
          CFI R7 SameValue
          CFI R14 SameValue
          CFI CFA R13+0
          CFI FunCall epr_write_data
        B.W      epr_write_data
          CFI R4 Frame(CFA, -20)
          CFI R5 Frame(CFA, -16)
          CFI R6 Frame(CFA, -12)
          CFI R7 Frame(CFA, -8)
          CFI R14 Frame(CFA, -4)
          CFI CFA R13+24
//  537           
//  538             break;
//  539          case Nozzle_pid_p:
//  540             thermalManager.Kp=atof(key_value);
??set_value_confirm_74:
        MOVS     R2,#+0
        MOVS     R1,#+0
        LDR.N    R0,??DataTable5_11
          CFI FunCall __iar_Stod
        BL       __iar_Stod
          CFI FunCall __aeabi_d2f
        BL       __aeabi_d2f
        LDR.N    R1,??DataTable5_33
        B.N      ??set_value_confirm_24
//  541             gcode_M500();   //保存参数                        
//  542             break;
//  543          case Nozzle_pid_i:
//  544             thermalManager.Ki=scalePID_i(atof(key_value));
??set_value_confirm_75:
        LDR.N    R0,??DataTable5_11
        MOVS     R2,#+0
        MOVS     R1,#+0
          CFI FunCall __iar_Stod
        BL       __iar_Stod
        LDR.N    R2,??DataTable5_34  ;; 0x88e368f1
        LDR.N    R3,??DataTable5_35  ;; 0x3fc4f8b5
          CFI FunCall __aeabi_dmul
        BL       __aeabi_dmul
          CFI FunCall __aeabi_d2f
        BL       __aeabi_d2f
        LDR.N    R1,??DataTable5_36
        B.N      ??set_value_confirm_24
//  545             gcode_M500();   //保存参数                        
//  546             break;
//  547          case Nozzle_pid_d:
//  548             thermalManager.Kd=scalePID_d(atof(key_value));
??set_value_confirm_76:
        LDR.N    R0,??DataTable5_11
        MOVS     R2,#+0
        MOVS     R1,#+0
          CFI FunCall __iar_Stod
        BL       __iar_Stod
        LDR.N    R2,??DataTable5_34  ;; 0x88e368f1
        LDR.N    R3,??DataTable5_35  ;; 0x3fc4f8b5
          CFI FunCall __aeabi_ddiv
        BL       __aeabi_ddiv
          CFI FunCall __aeabi_d2f
        BL       __aeabi_d2f
        LDR.N    R1,??DataTable5_37
        B.N      ??set_value_confirm_24
//  549             gcode_M500();   //保存参数                        
//  550             break;  
//  551             
//  552         case HotBed_max:
//  553           mksCfg.bed_maxtemp=atof(key_value);
??set_value_confirm_77:
        LDR.N    R4,??DataTable5_13
        LDR.N    R0,??DataTable5_11
        MOVS     R2,#+0
        MOVS     R1,#+0
          CFI FunCall __iar_Stod
        BL       __iar_Stod
          CFI FunCall __aeabi_d2iz
        BL       __aeabi_d2iz
        ADD      R1,R4,#+8
//  554           epr_write_data(EPR_BED_MAXTEMP,(uint8_t *)&mksCfg.bed_maxtemp,sizeof(int16_t));       
        MOVS     R2,#+2
        STRH     R0,[R1, #+42]
        ADD      R1,R4,#+50
        MOVW     R0,#+1502
        B.N      ??set_value_confirm_71
//  555           thermalManager.init();
//  556             break;
//  557 	case HotBed_min:
//  558           mksCfg.bed_mintemp=atof(key_value);
??set_value_confirm_78:
        LDR.N    R4,??DataTable5_13
        LDR.N    R0,??DataTable5_11
        MOVS     R2,#+0
        MOVS     R1,#+0
          CFI FunCall __iar_Stod
        BL       __iar_Stod
          CFI FunCall __aeabi_d2iz
        BL       __aeabi_d2iz
        ADD      R1,R4,#+8
//  559           epr_write_data(EPR_BED_MINTEMP,(uint8_t *)&mksCfg.bed_mintemp,sizeof(int16_t));       
        MOVS     R2,#+2
        STRH     R0,[R1, #+44]
        ADD      R1,R4,#+52
        MOVW     R0,#+1852
??set_value_confirm_71:
          CFI FunCall epr_write_data
        BL       epr_write_data
//  560           thermalManager.init();
        POP      {R1,R4-R7,LR}
          CFI R4 SameValue
          CFI R5 SameValue
          CFI R6 SameValue
          CFI R7 SameValue
          CFI R14 SameValue
          CFI CFA R13+0
        LDR.N    R0,??DataTable5_38
          CFI FunCall _ZN11Temperature4initEv
        B.W      _ZN11Temperature4initEv
          CFI R4 Frame(CFA, -20)
          CFI R5 Frame(CFA, -16)
          CFI R6 Frame(CFA, -12)
          CFI R7 Frame(CFA, -8)
          CFI R14 Frame(CFA, -4)
          CFI CFA R13+24
//  561             break;
//  562             
//  563          case HotBed_pid_p:
//  564             thermalManager.bedKp=atof(key_value);
??set_value_confirm_79:
        LDR.N    R0,??DataTable5_11
        MOVS     R2,#+0
        MOVS     R1,#+0
          CFI FunCall __iar_Stod
        BL       __iar_Stod
          CFI FunCall __aeabi_d2f
        BL       __aeabi_d2f
        LDR.N    R1,??DataTable5_39
        B.N      ??set_value_confirm_24
//  565             gcode_M500();   //保存参数                        
//  566             break;
//  567          case HotBed_pid_i:
//  568             thermalManager.bedKi=scalePID_i(atof(key_value));
??set_value_confirm_80:
        MOVS     R2,#+0
        MOVS     R1,#+0
        LDR.N    R0,??DataTable5_11
          CFI FunCall __iar_Stod
        BL       __iar_Stod
        LDR.N    R2,??DataTable5_34  ;; 0x88e368f1
        LDR.N    R3,??DataTable5_35  ;; 0x3fc4f8b5
          CFI FunCall __aeabi_dmul
        BL       __aeabi_dmul
          CFI FunCall __aeabi_d2f
        BL       __aeabi_d2f
        LDR.N    R1,??DataTable5_40
        B.N      ??set_value_confirm_24
//  569             gcode_M500();   //保存参数                        
//  570             break;
//  571          case HotBed_pid_d:
//  572             thermalManager.bedKd=scalePID_d(atof(key_value));
??set_value_confirm_81:
        LDR.N    R0,??DataTable5_11
        MOVS     R2,#+0
        MOVS     R1,#+0
          CFI FunCall __iar_Stod
        BL       __iar_Stod
        LDR.N    R2,??DataTable5_34  ;; 0x88e368f1
        LDR.N    R3,??DataTable5_35  ;; 0x3fc4f8b5
          CFI FunCall __aeabi_ddiv
        BL       __aeabi_ddiv
          CFI FunCall __aeabi_d2f
        BL       __aeabi_d2f
        LDR.N    R1,??DataTable5_41
??set_value_confirm_24:
        STR      R0,[R1, #+0]
//  573             gcode_M500();   //保存参数                        
??set_value_confirm_46:
        POP      {R0,R4-R7,LR}
          CFI R4 SameValue
          CFI R5 SameValue
          CFI R6 SameValue
          CFI R7 SameValue
          CFI R14 SameValue
          CFI CFA R13+0
          CFI FunCall _ZN14MarlinSettings4saveEv
        B.W      _ZN14MarlinSettings4saveEv
          CFI R4 Frame(CFA, -20)
          CFI R5 Frame(CFA, -16)
          CFI R6 Frame(CFA, -12)
          CFI R7 Frame(CFA, -8)
          CFI R14 Frame(CFA, -4)
          CFI CFA R13+24
//  574             break;             
//  575     }    
//  576 }
??set_value_confirm_5:
        POP      {R0,R4-R7,PC}    ;; return
          CFI EndBlock cfiBlock1

        SECTION `.text`:CODE:NOROOT(2)
        SECTION_TYPE SHT_PROGBITS, 0
        DATA
??DataTable5:
        DC32     cnt

        SECTION `.text`:CODE:NOROOT(2)
        SECTION_TYPE SHT_PROGBITS, 0
        DATA
??DataTable5_1:
        DC32     NumberKey_2

        SECTION `.text`:CODE:NOROOT(2)
        SECTION_TYPE SHT_PROGBITS, 0
        DATA
??DataTable5_2:
        DC32     NumberKey_4

        SECTION `.text`:CODE:NOROOT(2)
        SECTION_TYPE SHT_PROGBITS, 0
        DATA
??DataTable5_3:
        DC32     NumberKey_6

        SECTION `.text`:CODE:NOROOT(2)
        SECTION_TYPE SHT_PROGBITS, 0
        DATA
??DataTable5_4:
        DC32     NumberKey_8

        SECTION `.text`:CODE:NOROOT(2)
        SECTION_TYPE SHT_PROGBITS, 0
        DATA
??DataTable5_5:
        DC32     NumberKey_0

        SECTION `.text`:CODE:NOROOT(2)
        SECTION_TYPE SHT_PROGBITS, 0
        DATA
??DataTable5_6:
        DC32     KeyBack

        SECTION `.text`:CODE:NOROOT(2)
        SECTION_TYPE SHT_PROGBITS, 0
        DATA
??DataTable5_7:
        DC32     KeyConfirm

        SECTION `.text`:CODE:NOROOT(2)
        SECTION_TYPE SHT_PROGBITS, 0
        DATA
??DataTable5_8:
        DC32     last_disp_state

        SECTION `.text`:CODE:NOROOT(2)
        SECTION_TYPE SHT_PROGBITS, 0
        DATA
??DataTable5_9:
        DC32     gCfgItems

        SECTION `.text`:CODE:NOROOT(2)
        SECTION_TYPE SHT_PROGBITS, 0
        DATA
??DataTable5_10:
        DC32     value

        SECTION `.text`:CODE:NOROOT(2)
        SECTION_TYPE SHT_PROGBITS, 0
        DATA
??DataTable5_11:
        DC32     cnt+0x4

        SECTION `.text`:CODE:NOROOT(2)
        SECTION_TYPE SHT_PROGBITS, 0
        DATA
??DataTable5_12:
        DC32     soft_endstop_max

        SECTION `.text`:CODE:NOROOT(2)
        SECTION_TYPE SHT_PROGBITS, 0
        DATA
??DataTable5_13:
        DC32     mksCfg

        SECTION `.text`:CODE:NOROOT(2)
        SECTION_TYPE SHT_PROGBITS, 0
        DATA
??DataTable5_14:
        DC32     base_max_pos_P

        SECTION `.text`:CODE:NOROOT(2)
        SECTION_TYPE SHT_PROGBITS, 0
        DATA
??DataTable5_15:
        DC32     soft_endstop_min

        SECTION `.text`:CODE:NOROOT(2)
        SECTION_TYPE SHT_PROGBITS, 0
        DATA
??DataTable5_16:
        DC32     base_min_pos_P

        SECTION `.text`:CODE:NOROOT(2)
        SECTION_TYPE SHT_PROGBITS, 0
        DATA
??DataTable5_17:
        DC32     max_length_P

        SECTION `.text`:CODE:NOROOT(2)
        SECTION_TYPE SHT_PROGBITS, 0
        DATA
??DataTable5_18:
        DC32     base_home_pos_P

        SECTION `.text`:CODE:NOROOT(2)
        SECTION_TYPE SHT_PROGBITS, 0
        DATA
??DataTable5_19:
        DC32     0x404e0000

        SECTION `.text`:CODE:NOROOT(2)
        SECTION_TYPE SHT_PROGBITS, 0
        DATA
??DataTable5_20:
        DC32     0x3fe00000

        SECTION `.text`:CODE:NOROOT(2)
        SECTION_TYPE SHT_PROGBITS, 0
        DATA
??DataTable5_21:
        DC32     zprobe_zoffset

        SECTION `.text`:CODE:NOROOT(2)
        SECTION_TYPE SHT_PROGBITS, 0
        DATA
??DataTable5_22:
        DC32     delta_radius

        SECTION `.text`:CODE:NOROOT(2)
        SECTION_TYPE SHT_PROGBITS, 0
        DATA
??DataTable5_23:
        DC32     delta_diagonal_rod

        SECTION `.text`:CODE:NOROOT(2)
        SECTION_TYPE SHT_PROGBITS, 0
        DATA
??DataTable5_24:
        DC32     delta_calibration_radius

        SECTION `.text`:CODE:NOROOT(2)
        SECTION_TYPE SHT_PROGBITS, 0
        DATA
??DataTable5_25:
        DC32     _ZN7Planner17max_feedrate_mm_sE

        SECTION `.text`:CODE:NOROOT(2)
        SECTION_TYPE SHT_PROGBITS, 0
        DATA
??DataTable5_26:
        DC32     _ZN7Planner12accelerationE

        SECTION `.text`:CODE:NOROOT(2)
        SECTION_TYPE SHT_PROGBITS, 0
        DATA
??DataTable5_27:
        DC32     _ZN7Planner20retract_accelerationE

        SECTION `.text`:CODE:NOROOT(2)
        SECTION_TYPE SHT_PROGBITS, 0
        DATA
??DataTable5_28:
        DC32     _ZN7Planner19travel_accelerationE

        SECTION `.text`:CODE:NOROOT(2)
        SECTION_TYPE SHT_PROGBITS, 0
        DATA
??DataTable5_29:
        DC32     _ZN7Planner26max_acceleration_mm_per_s2E

        SECTION `.text`:CODE:NOROOT(2)
        SECTION_TYPE SHT_PROGBITS, 0
        DATA
??DataTable5_30:
        DC32     _ZN7Planner8max_jerkE

        SECTION `.text`:CODE:NOROOT(2)
        SECTION_TYPE SHT_PROGBITS, 0
        DATA
??DataTable5_31:
        DC32     _ZN7Planner17axis_steps_per_mmE

        SECTION `.text`:CODE:NOROOT(2)
        SECTION_TYPE SHT_PROGBITS, 0
        DATA
??DataTable5_32:
        DC32     _ZN11Temperature16extrude_min_tempE

        SECTION `.text`:CODE:NOROOT(2)
        SECTION_TYPE SHT_PROGBITS, 0
        DATA
??DataTable5_33:
        DC32     _ZN11Temperature2KpE

        SECTION `.text`:CODE:NOROOT(2)
        SECTION_TYPE SHT_PROGBITS, 0
        DATA
??DataTable5_34:
        DC32     0x88e368f1

        SECTION `.text`:CODE:NOROOT(2)
        SECTION_TYPE SHT_PROGBITS, 0
        DATA
??DataTable5_35:
        DC32     0x3fc4f8b5

        SECTION `.text`:CODE:NOROOT(2)
        SECTION_TYPE SHT_PROGBITS, 0
        DATA
??DataTable5_36:
        DC32     _ZN11Temperature2KiE

        SECTION `.text`:CODE:NOROOT(2)
        SECTION_TYPE SHT_PROGBITS, 0
        DATA
??DataTable5_37:
        DC32     _ZN11Temperature2KdE

        SECTION `.text`:CODE:NOROOT(2)
        SECTION_TYPE SHT_PROGBITS, 0
        DATA
??DataTable5_38:
        DC32     thermalManager

        SECTION `.text`:CODE:NOROOT(2)
        SECTION_TYPE SHT_PROGBITS, 0
        DATA
??DataTable5_39:
        DC32     _ZN11Temperature5bedKpE

        SECTION `.text`:CODE:NOROOT(2)
        SECTION_TYPE SHT_PROGBITS, 0
        DATA
??DataTable5_40:
        DC32     _ZN11Temperature5bedKiE

        SECTION `.text`:CODE:NOROOT(2)
        SECTION_TYPE SHT_PROGBITS, 0
        DATA
??DataTable5_41:
        DC32     _ZN11Temperature5bedKdE

        SECTION `.text`:CODE:NOROOT(2)
          CFI Block cfiBlock2 Using cfiCommon0
          CFI Function _Z10disp_valuev
        THUMB
//  577 void disp_value()
//  578 {
_Z10disp_valuev:
        PUSH     {R4,LR}
          CFI R14 Frame(CFA, -4)
          CFI R4 Frame(CFA, -8)
          CFI CFA R13+8
//  579     char *temp;
//  580     
//  581     switch(value)
        LDR.W    R0,??disp_value_1+0x4
        LDRSB    R0,[R0, #+0]
        CMP      R0,#+69
        BHI.W    ??disp_value_2
        TBH      [PC, R0, LSL #+1]
        DATA
??disp_value_0:
        DC16     0x46,0x56,0x66,0x3D1
        DC16     0x3D1,0x3D1,0x76,0x80
        DC16     0x8B,0x95,0x9F,0xA9
        DC16     0xB3,0xC3,0xD3,0xE3
        DC16     0xF3,0x103,0x113,0x123
        DC16     0x133,0x143,0x153,0x163
        DC16     0x173,0x189,0x19F,0x1B5
        DC16     0x1CB,0x17E,0x194,0x1AA
        DC16     0x1C0,0x1D6,0x1E1,0x1F1
        DC16     0x201,0x211,0x221,0x231
        DC16     0x240,0x24F,0x25E,0x267
        DC16     0x270,0x279,0x282,0x28B
        DC16     0x29A,0x2A9,0x2B8,0x2C7
        DC16     0x2D6,0x2E5,0x2F4,0x303
        DC16     0x312,0x320,0x32E,0x337
        DC16     0x340,0x349,0x357,0x362
        DC16     0x373,0x384,0x37B,0x391
        DC16     0x39C,0x3BA
        THUMB
//  582     {
//  583        case X_stroke:
//  584         memset(cmd_code,0,sizeof(cmd_code));
??disp_value_3:
        LDR.W    R4,??disp_value_4
        MOVS     R1,#+201
        MOV      R0,R4
          CFI FunCall __aeabi_memclr
        BL       __aeabi_memclr
//  585         sprintf(cmd_code,"%.1f",mksCfg.x_max_pos);
        LDR.W    R0,??disp_value_1+0x8
        LDR      R0,[R0, #+20]
          CFI FunCall __aeabi_f2d
        BL       __aeabi_f2d
        MOV      R3,R1
        MOV      R2,R0
        ADR.W    R1,`?<Constant "%.1f">`
        B.N      ??disp_value_5
//  586         break;
//  587        case Y_stroke:
//  588         memset(cmd_code,0,sizeof(cmd_code));
??disp_value_6:
        LDR.W    R4,??disp_value_4
        MOVS     R1,#+201
        MOV      R0,R4
          CFI FunCall __aeabi_memclr
        BL       __aeabi_memclr
//  589         sprintf(cmd_code,"%.1f",mksCfg.y_max_pos); 
        LDR.W    R0,??disp_value_1+0xC
        LDR      R0,[R0, #+4]
          CFI FunCall __aeabi_f2d
        BL       __aeabi_f2d
        MOV      R3,R1
        MOV      R2,R0
        ADR.W    R1,`?<Constant "%.1f">`
        B.N      ??disp_value_5
//  590         break;
//  591        case Z_stroke:
//  592         memset(cmd_code,0,sizeof(cmd_code));
??disp_value_7:
        LDR.W    R4,??disp_value_4
        MOVS     R1,#+201
        MOV      R0,R4
          CFI FunCall __aeabi_memclr
        BL       __aeabi_memclr
//  593         sprintf(cmd_code,"%.1f",mksCfg.z_max_pos);
        LDR.W    R0,??disp_value_1+0xC
        LDR      R0,[R0, #+8]
          CFI FunCall __aeabi_f2d
        BL       __aeabi_f2d
        MOV      R3,R1
        MOV      R2,R0
        ADR.W    R1,`?<Constant "%.1f">`
        B.N      ??disp_value_5
//  594         break; 
//  595        case Load_Temper_limit:
//  596         memset(cmd_code,0,sizeof(cmd_code));
??disp_value_8:
        LDR.W    R4,??disp_value_4
        MOVS     R1,#+201
        MOV      R0,R4
          CFI FunCall __aeabi_memclr
        BL       __aeabi_memclr
//  597         sprintf(cmd_code,"%d",gCfgItems.filament_load_limit_temper);
        LDR.W    R0,??disp_value_1+0x10
        LDR      R2,[R0, #+16]
        B.N      ??disp_value_9
//  598         break;
//  599        case Load_Speed:
//  600         memset(cmd_code,0,sizeof(cmd_code));
??disp_value_10:
        LDR.W    R4,??disp_value_4
        MOVS     R1,#+201
        MOV      R0,R4
          CFI FunCall __aeabi_memclr
        BL       __aeabi_memclr
//  601         sprintf(cmd_code,"%d",gCfgItems.filamentchange_load_speed);       
        LDR.W    R0,??disp_value_1+0x14
        LDR      R2,[R0, #+236]
        B.N      ??disp_value_9
//  602         break;
//  603        case Load_Length:
//  604         memset(cmd_code,0,sizeof(cmd_code));
??disp_value_11:
        LDR.W    R4,??disp_value_4
        MOVS     R1,#+201
        MOV      R0,R4
          CFI FunCall __aeabi_memclr
        BL       __aeabi_memclr
//  605         sprintf(cmd_code,"%d",gCfgItems.filamentchange_load_length);        
        LDR.W    R0,??disp_value_1+0x10
        LDR      R2,[R0, #+8]
        B.N      ??disp_value_9
//  606         break;
//  607        case Unload_Temper_limit:
//  608         memset(cmd_code,0,sizeof(cmd_code));
??disp_value_12:
        LDR.W    R4,??disp_value_4
        MOVS     R1,#+201
        MOV      R0,R4
          CFI FunCall __aeabi_memclr
        BL       __aeabi_memclr
//  609         sprintf(cmd_code,"%d",gCfgItems.filament_unload_limit_temper);
        LDR.W    R0,??disp_value_1+0x10
        LDR      R2,[R0, #+20]
        B.N      ??disp_value_9
//  610         break;
//  611        case Unload_Speed:
//  612         memset(cmd_code,0,sizeof(cmd_code));
??disp_value_13:
        LDR.W    R4,??disp_value_4
        MOVS     R1,#+201
        MOV      R0,R4
          CFI FunCall __aeabi_memclr
        BL       __aeabi_memclr
//  613         sprintf(cmd_code,"%d",gCfgItems.filamentchange_unload_speed);       
        LDR.W    R0,??disp_value_1+0x10
        LDR      R2,[R0, #+4]
        B.N      ??disp_value_9
//  614         break;
//  615        case Unload_Length:
//  616         memset(cmd_code,0,sizeof(cmd_code));
??disp_value_14:
        LDR.W    R4,??disp_value_4
        MOVS     R1,#+201
        MOV      R0,R4
          CFI FunCall __aeabi_memclr
        BL       __aeabi_memclr
//  617         sprintf(cmd_code,"%d",gCfgItems.filamentchange_unload_length);        
        LDR.W    R0,??disp_value_1+0x10
        LDR      R2,[R0, #+12]
        B.N      ??disp_value_9
//  618         break;   
//  619        case xoffset:
//  620         memset(cmd_code,0,sizeof(cmd_code));
??disp_value_15:
        LDR.W    R4,??disp_value_4
        MOVS     R1,#+201
        MOV      R0,R4
          CFI FunCall __aeabi_memclr
        BL       __aeabi_memclr
//  621         sprintf(cmd_code,"%.1f",mksCfg.x_probe_offset_from_extruder);       
        LDR.W    R0,??disp_value_1+0xC
        LDR      R0,[R0, #+88]
          CFI FunCall __aeabi_f2d
        BL       __aeabi_f2d
        MOV      R3,R1
        MOV      R2,R0
        ADR.W    R1,`?<Constant "%.1f">`
        B.N      ??disp_value_5
//  622         break;  
//  623        case yoffset:
//  624         memset(cmd_code,0,sizeof(cmd_code));
??disp_value_16:
        LDR.W    R4,??disp_value_4
        MOVS     R1,#+201
        MOV      R0,R4
          CFI FunCall __aeabi_memclr
        BL       __aeabi_memclr
//  625         sprintf(cmd_code,"%.1f",mksCfg.y_probe_offset_from_extruder);       
        LDR.W    R0,??disp_value_1+0xC
        LDR      R0,[R0, #+92]
          CFI FunCall __aeabi_f2d
        BL       __aeabi_f2d
        MOV      R3,R1
        MOV      R2,R0
        ADR.W    R1,`?<Constant "%.1f">`
        B.N      ??disp_value_5
//  626         break;  
//  627        case zoffset:
//  628         memset(cmd_code,0,sizeof(cmd_code));
??disp_value_17:
        LDR.W    R4,??disp_value_4
        MOVS     R1,#+201
        MOV      R0,R4
          CFI FunCall __aeabi_memclr
        BL       __aeabi_memclr
//  629         sprintf(cmd_code,"%.1f",zprobe_zoffset);       
        LDR.W    R0,??DataTable6
        LDR      R0,[R0, #+0]
          CFI FunCall __aeabi_f2d
        BL       __aeabi_f2d
        MOV      R3,R1
        MOV      R2,R0
        ADR.W    R1,`?<Constant "%.1f">`
        B.N      ??disp_value_5
//  630         break; 
//  631        case xyspeed:
//  632         memset(cmd_code,0,sizeof(cmd_code));
??disp_value_18:
        LDR.W    R4,??disp_value_4
        MOVS     R1,#+201
        MOV      R0,R4
          CFI FunCall __aeabi_memclr
        BL       __aeabi_memclr
//  633         sprintf(cmd_code,"%.1f",mksCfg.xy_probe_speed);       
        LDR.W    R0,??disp_value_1+0xC
        LDR      R0,[R0, #+96]
          CFI FunCall __aeabi_f2d
        BL       __aeabi_f2d
        MOV      R3,R1
        MOV      R2,R0
        ADR.W    R1,`?<Constant "%.1f">`
        B.N      ??disp_value_5
//  634         break; 
//  635        case zspeed:
//  636         memset(cmd_code,0,sizeof(cmd_code));
??disp_value_19:
        LDR.W    R4,??disp_value_4
        MOVS     R1,#+201
        MOV      R0,R4
          CFI FunCall __aeabi_memclr
        BL       __aeabi_memclr
//  637         sprintf(cmd_code,"%.1f",mksCfg.z_probe_speed_fast);       
        LDR.W    R0,??disp_value_1+0xC
        LDR      R0,[R0, #+100]
          CFI FunCall __aeabi_f2d
        BL       __aeabi_f2d
        MOV      R3,R1
        MOV      R2,R0
        ADR.W    R1,`?<Constant "%.1f">`
        B.N      ??disp_value_5
//  638         break; 
//  639        case DeltaRadius:
//  640         memset(cmd_code,0,sizeof(cmd_code));
??disp_value_20:
        LDR.W    R4,??disp_value_4
        MOVS     R1,#+201
        MOV      R0,R4
          CFI FunCall __aeabi_memclr
        BL       __aeabi_memclr
//  641         sprintf(cmd_code,"%.1f",delta_radius);
        LDR.W    R0,??DataTable6_1
        LDR      R0,[R0, #+0]
          CFI FunCall __aeabi_f2d
        BL       __aeabi_f2d
        MOV      R3,R1
        MOV      R2,R0
        ADR.W    R1,`?<Constant "%.1f">`
        B.N      ??disp_value_5
//  642         break;
//  643        case DeltaDiagonalRod:
//  644         memset(cmd_code,0,sizeof(cmd_code));
??disp_value_21:
        LDR.W    R4,??disp_value_4
        MOVS     R1,#+201
        MOV      R0,R4
          CFI FunCall __aeabi_memclr
        BL       __aeabi_memclr
//  645         sprintf(cmd_code,"%.1f",delta_diagonal_rod);        
        LDR.W    R0,??DataTable6_2
        LDR      R0,[R0, #+0]
          CFI FunCall __aeabi_f2d
        BL       __aeabi_f2d
        MOV      R3,R1
        MOV      R2,R0
        ADR.W    R1,`?<Constant "%.1f">`
        B.N      ??disp_value_5
//  646         break;
//  647        case PrintableRadius:
//  648         memset(cmd_code,0,sizeof(cmd_code));
??disp_value_22:
        LDR.W    R4,??disp_value_4
        MOVS     R1,#+201
        MOV      R0,R4
          CFI FunCall __aeabi_memclr
        BL       __aeabi_memclr
//  649         sprintf(cmd_code,"%.1f",mksCfg.delta_printable_radius);        
        LDR.W    R0,??disp_value_1+0xC
        LDR      R0,[R0, #+64]
          CFI FunCall __aeabi_f2d
        BL       __aeabi_f2d
        MOV      R3,R1
        MOV      R2,R0
        ADR.W    R1,`?<Constant "%.1f">`
        B.N      ??disp_value_5
//  650         break;
//  651        case DeltaHeight:
//  652         memset(cmd_code,0,sizeof(cmd_code));
??disp_value_23:
        LDR.W    R4,??disp_value_4
        MOVS     R1,#+201
        MOV      R0,R4
          CFI FunCall __aeabi_memclr
        BL       __aeabi_memclr
//  653         sprintf(cmd_code,"%.1f",mksCfg.delta_height);        
        LDR.W    R0,??disp_value_1+0xC
        LDR      R0,[R0, #+60]
          CFI FunCall __aeabi_f2d
        BL       __aeabi_f2d
        MOV      R3,R1
        MOV      R2,R0
        ADR.W    R1,`?<Constant "%.1f">`
        B.N      ??disp_value_5
//  654         break;   
//  655        case SmoothRodOffset:
//  656         memset(cmd_code,0,sizeof(cmd_code));
??disp_value_24:
        LDR.W    R4,??disp_value_4
        MOVS     R1,#+201
        MOV      R0,R4
          CFI FunCall __aeabi_memclr
        BL       __aeabi_memclr
//  657         sprintf(cmd_code,"%.1f",mksCfg.delta_smooth_rod_offset);        
        LDR.W    R0,??disp_value_1+0xC
        LDR      R0,[R0, #+48]
          CFI FunCall __aeabi_f2d
        BL       __aeabi_f2d
        MOV      R3,R1
        MOV      R2,R0
        ADR.W    R1,`?<Constant "%.1f">`
        B.N      ??disp_value_5
//  658         break;  
//  659        case EffectorOffset:
//  660         memset(cmd_code,0,sizeof(cmd_code));
??disp_value_25:
        LDR.W    R4,??disp_value_4
        MOVS     R1,#+201
        MOV      R0,R4
          CFI FunCall __aeabi_memclr
        BL       __aeabi_memclr
//  661         sprintf(cmd_code,"%.1f",mksCfg.delta_effector_offset);        
        LDR.W    R0,??disp_value_1+0xC
        LDR      R0,[R0, #+52]
          CFI FunCall __aeabi_f2d
        BL       __aeabi_f2d
        MOV      R3,R1
        MOV      R2,R0
        ADR.W    R1,`?<Constant "%.1f">`
        B.N      ??disp_value_5
//  662         break;  
//  663        case CalibrationRadius:
//  664         memset(cmd_code,0,sizeof(cmd_code));
??disp_value_26:
        LDR.W    R4,??disp_value_4
        MOVS     R1,#+201
        MOV      R0,R4
          CFI FunCall __aeabi_memclr
        BL       __aeabi_memclr
//  665         sprintf(cmd_code,"%.1f",delta_calibration_radius);        
        LDR.W    R0,??DataTable7
        LDR      R0,[R0, #+0]
          CFI FunCall __aeabi_f2d
        BL       __aeabi_f2d
        MOV      R3,R1
        MOV      R2,R0
        ADR.W    R1,`?<Constant "%.1f">`
        B.N      ??disp_value_5
//  666         break; 
//  667        case Point1_x:
//  668         memset(cmd_code,0,sizeof(cmd_code));
??disp_value_27:
        LDR.W    R4,??disp_value_4
        MOVS     R1,#+201
        MOV      R0,R4
          CFI FunCall __aeabi_memclr
        BL       __aeabi_memclr
//  669         sprintf(cmd_code,"%d",gCfgItems.leveling_point1_x);        
        LDR.W    R0,??disp_value_1+0x10
        LDRSH    R2,[R0, #+34]
        B.N      ??disp_value_9
//  670         break; 
//  671 	case Point1_y:
//  672         memset(cmd_code,0,sizeof(cmd_code));
??disp_value_28:
        LDR.W    R4,??disp_value_4
        MOVS     R1,#+201
        MOV      R0,R4
          CFI FunCall __aeabi_memclr
        BL       __aeabi_memclr
//  673         sprintf(cmd_code,"%d",gCfgItems.leveling_point1_y);        
        LDR.W    R0,??disp_value_1+0x10
        LDRSH    R2,[R0, #+36]
        B.N      ??disp_value_9
//  674         break;
//  675        case Point2_x:
//  676         memset(cmd_code,0,sizeof(cmd_code));
??disp_value_29:
        LDR.W    R4,??disp_value_4
        MOVS     R1,#+201
        MOV      R0,R4
          CFI FunCall __aeabi_memclr
        BL       __aeabi_memclr
//  677         sprintf(cmd_code,"%d",gCfgItems.leveling_point2_x);        
        LDR.W    R0,??disp_value_1+0x10
        LDRSH    R2,[R0, #+38]
        B.N      ??disp_value_9
//  678         break;
//  679 	case Point2_y:
//  680         memset(cmd_code,0,sizeof(cmd_code));
??disp_value_30:
        LDR.W    R4,??disp_value_4
        MOVS     R1,#+201
        MOV      R0,R4
          CFI FunCall __aeabi_memclr
        BL       __aeabi_memclr
//  681         sprintf(cmd_code,"%d",gCfgItems.leveling_point2_y);        
        LDR.W    R0,??disp_value_1+0x10
        LDRSH    R2,[R0, #+40]
        B.N      ??disp_value_9
//  682         break;
//  683        case Point3_x:
//  684         memset(cmd_code,0,sizeof(cmd_code));
??disp_value_31:
        LDR.W    R4,??disp_value_4
        MOVS     R1,#+201
        MOV      R0,R4
          CFI FunCall __aeabi_memclr
        BL       __aeabi_memclr
//  685         sprintf(cmd_code,"%d",gCfgItems.leveling_point3_x);        
        LDR.W    R0,??disp_value_1+0x10
        LDRSH    R2,[R0, #+42]
        B.N      ??disp_value_9
//  686         break;   
//  687 	case Point3_y:
//  688         memset(cmd_code,0,sizeof(cmd_code));
??disp_value_32:
        LDR.W    R4,??disp_value_4
        MOVS     R1,#+201
        MOV      R0,R4
          CFI FunCall __aeabi_memclr
        BL       __aeabi_memclr
//  689         sprintf(cmd_code,"%d",gCfgItems.leveling_point3_y);        
        LDR.W    R0,??disp_value_1+0x10
        LDRSH    R2,[R0, #+44]
        B.N      ??disp_value_9
//  690         break;
//  691        case Point4_x:
//  692         memset(cmd_code,0,sizeof(cmd_code));
??disp_value_33:
        LDR.W    R4,??disp_value_4
        MOVS     R1,#+201
        MOV      R0,R4
          CFI FunCall __aeabi_memclr
        BL       __aeabi_memclr
//  693         sprintf(cmd_code,"%d",gCfgItems.leveling_point4_x);        
        LDR.W    R0,??disp_value_1+0x10
        LDRSH    R2,[R0, #+46]
        B.N      ??disp_value_9
//  694         break; 
//  695 	case Point4_y:
//  696         memset(cmd_code,0,sizeof(cmd_code));
??disp_value_34:
        LDR.W    R4,??disp_value_4
        MOVS     R1,#+201
        MOV      R0,R4
          CFI FunCall __aeabi_memclr
        BL       __aeabi_memclr
//  697         sprintf(cmd_code,"%d",gCfgItems.leveling_point4_y);        
        LDR.W    R0,??disp_value_1+0x10
        LDRSH    R2,[R0, #+48]
        B.N      ??disp_value_9
//  698         break; 
//  699 	case Point5_x:
//  700         memset(cmd_code,0,sizeof(cmd_code));
??disp_value_35:
        LDR.W    R4,??disp_value_4
        MOVS     R1,#+201
        MOV      R0,R4
          CFI FunCall __aeabi_memclr
        BL       __aeabi_memclr
//  701         sprintf(cmd_code,"%d",gCfgItems.leveling_point5_x);        
        LDR.W    R0,??disp_value_1+0x10
        LDRSH    R2,[R0, #+50]
        B.N      ??disp_value_9
//  702         break; 
//  703 	case Point5_y:
//  704         memset(cmd_code,0,sizeof(cmd_code));
??disp_value_36:
        LDR.W    R4,??disp_value_4
        MOVS     R1,#+201
        MOV      R0,R4
          CFI FunCall __aeabi_memclr
        BL       __aeabi_memclr
//  705         sprintf(cmd_code,"%d",gCfgItems.leveling_point5_y);        
        LDR.W    R0,??disp_value_1+0x10
        LDRSH    R2,[R0, #+52]
        B.N      ??disp_value_9
//  706         break;
//  707        case XMaxFeedRate:
//  708         memset(cmd_code,0,sizeof(cmd_code));
??disp_value_37:
        LDR.W    R4,??disp_value_4
        MOVS     R1,#+201
        MOV      R0,R4
          CFI FunCall __aeabi_memclr
        BL       __aeabi_memclr
//  709         sprintf(cmd_code,"%.1f",planner.max_feedrate_mm_s[X_AXIS]);        
        LDR.W    R0,??DataTable7_1
        LDR      R0,[R0, #+0]
          CFI FunCall __aeabi_f2d
        BL       __aeabi_f2d
        MOV      R3,R1
        MOV      R2,R0
        ADR.W    R1,`?<Constant "%.1f">`
        B.N      ??disp_value_5
//  710         break;
//  711        case YMaxFeedRate:
//  712         memset(cmd_code,0,sizeof(cmd_code));
??disp_value_38:
        LDR.W    R4,??disp_value_4
        MOVS     R1,#+201
        MOV      R0,R4
          CFI FunCall __aeabi_memclr
        BL       __aeabi_memclr
//  713         sprintf(cmd_code,"%.1f",planner.max_feedrate_mm_s[Y_AXIS]);        
        LDR.W    R0,??DataTable7_1
        LDR      R0,[R0, #+4]
          CFI FunCall __aeabi_f2d
        BL       __aeabi_f2d
        MOV      R3,R1
        MOV      R2,R0
        ADR.W    R1,`?<Constant "%.1f">`
        B.N      ??disp_value_5
//  714         break; 
//  715        case ZMaxFeedRate:
//  716         memset(cmd_code,0,sizeof(cmd_code));
??disp_value_39:
        LDR.W    R4,??disp_value_4
        MOVS     R1,#+201
        MOV      R0,R4
          CFI FunCall __aeabi_memclr
        BL       __aeabi_memclr
//  717         sprintf(cmd_code,"%.1f",planner.max_feedrate_mm_s[Z_AXIS]);        
        LDR.W    R0,??DataTable7_1
        LDR      R0,[R0, #+8]
          CFI FunCall __aeabi_f2d
        BL       __aeabi_f2d
        MOV      R3,R1
        MOV      R2,R0
        ADR.W    R1,`?<Constant "%.1f">`
        B.N      ??disp_value_5
//  718         break;  
//  719        case E0MaxFeedRate:
//  720         memset(cmd_code,0,sizeof(cmd_code));
??disp_value_40:
        LDR.W    R4,??disp_value_4
        MOVS     R1,#+201
        MOV      R0,R4
          CFI FunCall __aeabi_memclr
        BL       __aeabi_memclr
//  721         sprintf(cmd_code,"%.1f",planner.max_feedrate_mm_s[E_AXIS]);        
        LDR.W    R0,??DataTable7_1
        LDR      R0,[R0, #+12]
          CFI FunCall __aeabi_f2d
        BL       __aeabi_f2d
        MOV      R3,R1
        MOV      R2,R0
        ADR.W    R1,`?<Constant "%.1f">`
        B.N      ??disp_value_5
//  722         break;
//  723        case E1MaxFeedRate:
//  724         memset(cmd_code,0,sizeof(cmd_code));
??disp_value_41:
        LDR.W    R4,??disp_value_4
        MOVS     R1,#+201
        MOV      R0,R4
          CFI FunCall __aeabi_memclr
        BL       __aeabi_memclr
//  725         sprintf(cmd_code,"%.1f",planner.max_feedrate_mm_s[XYZE]);        
        LDR.W    R0,??DataTable7_1
        LDR      R0,[R0, #+16]
          CFI FunCall __aeabi_f2d
        BL       __aeabi_f2d
        MOV      R3,R1
        MOV      R2,R0
        ADR.W    R1,`?<Constant "%.1f">`
        B.N      ??disp_value_5
//  726         break;
//  727        case PrintAcceleration:
//  728         memset(cmd_code,0,sizeof(cmd_code));
??disp_value_42:
        LDR.N    R4,??disp_value_4
        MOVS     R1,#+201
        MOV      R0,R4
          CFI FunCall __aeabi_memclr
        BL       __aeabi_memclr
//  729         sprintf(cmd_code,"%.1f",planner.acceleration);       
        LDR.W    R0,??DataTable7_2
        LDR      R0,[R0, #+0]
          CFI FunCall __aeabi_f2d
        BL       __aeabi_f2d
        MOV      R3,R1
        MOV      R2,R0
        ADR.W    R1,`?<Constant "%.1f">`
        B.N      ??disp_value_5
//  730         break;   
//  731        case RetractAcceleration:
//  732         memset(cmd_code,0,sizeof(cmd_code));
??disp_value_43:
        LDR.N    R4,??disp_value_4
        MOVS     R1,#+201
        MOV      R0,R4
          CFI FunCall __aeabi_memclr
        BL       __aeabi_memclr
//  733         sprintf(cmd_code,"%.1f",planner.retract_acceleration);       
        LDR.W    R0,??DataTable7_3
        LDR      R0,[R0, #+0]
          CFI FunCall __aeabi_f2d
        BL       __aeabi_f2d
        MOV      R3,R1
        MOV      R2,R0
        ADR.W    R1,`?<Constant "%.1f">`
        B.N      ??disp_value_5
//  734         break;   
//  735        case TravelAcceleration:
//  736         memset(cmd_code,0,sizeof(cmd_code));
??disp_value_44:
        LDR.N    R4,??disp_value_4
        MOVS     R1,#+201
        MOV      R0,R4
          CFI FunCall __aeabi_memclr
        BL       __aeabi_memclr
//  737         sprintf(cmd_code,"%.1f",planner.travel_acceleration);       
        LDR.W    R0,??DataTable7_4
        LDR      R0,[R0, #+0]
          CFI FunCall __aeabi_f2d
        BL       __aeabi_f2d
        MOV      R3,R1
        MOV      R2,R0
        ADR.W    R1,`?<Constant "%.1f">`
        B.N      ??disp_value_5
//  738         break;  
//  739        case XAcceleration:
//  740         memset(cmd_code,0,sizeof(cmd_code));
??disp_value_45:
        LDR.N    R4,??disp_value_4
        MOVS     R1,#+201
        MOV      R0,R4
          CFI FunCall __aeabi_memclr
        BL       __aeabi_memclr
//  741         sprintf(cmd_code,"%d",planner.max_acceleration_mm_per_s2[X_AXIS]);       
        LDR.W    R0,??DataTable7_5
        LDR      R2,[R0, #+0]
        B.N      ??disp_value_9
//  742         break; 
//  743        case YAcceleration:
//  744         memset(cmd_code,0,sizeof(cmd_code));
??disp_value_46:
        LDR.N    R4,??disp_value_4
        MOVS     R1,#+201
        MOV      R0,R4
          CFI FunCall __aeabi_memclr
        BL       __aeabi_memclr
//  745         sprintf(cmd_code,"%d",planner.max_acceleration_mm_per_s2[Y_AXIS]);       
        LDR.W    R0,??DataTable7_5
        LDR      R2,[R0, #+4]
        B.N      ??disp_value_9
//  746         break; 
//  747        case ZAcceleration:
//  748         memset(cmd_code,0,sizeof(cmd_code));
??disp_value_47:
        LDR.N    R4,??disp_value_4
        MOVS     R1,#+201
        MOV      R0,R4
          CFI FunCall __aeabi_memclr
        BL       __aeabi_memclr
//  749         sprintf(cmd_code,"%d",planner.max_acceleration_mm_per_s2[Z_AXIS]);       
        LDR.W    R0,??DataTable7_5
        LDR      R2,[R0, #+8]
        B.N      ??disp_value_9
//  750         break;
//  751        case E0Acceleration:
//  752         memset(cmd_code,0,sizeof(cmd_code));
??disp_value_48:
        LDR.N    R4,??disp_value_4
        MOVS     R1,#+201
        MOV      R0,R4
          CFI FunCall __aeabi_memclr
        BL       __aeabi_memclr
//  753         sprintf(cmd_code,"%d",planner.max_acceleration_mm_per_s2[E_AXIS]);       
        LDR.W    R0,??DataTable7_5
        LDR      R2,[R0, #+12]
        B.N      ??disp_value_9
//  754         break; 
//  755        case E1Acceleration:
//  756         memset(cmd_code,0,sizeof(cmd_code));
??disp_value_49:
        LDR.N    R4,??disp_value_4
        MOVS     R1,#+201
        MOV      R0,R4
          CFI FunCall __aeabi_memclr
        BL       __aeabi_memclr
//  757         sprintf(cmd_code,"%d",planner.max_acceleration_mm_per_s2[XYZE]);       
        LDR.W    R0,??DataTable7_5
        LDR      R2,[R0, #+16]
        B.N      ??disp_value_9
//  758         break;
//  759        case XJerk:
//  760        memset(cmd_code,0,sizeof(cmd_code));
??disp_value_50:
        LDR.N    R4,??disp_value_4
        MOVS     R1,#+201
        MOV      R0,R4
          CFI FunCall __aeabi_memclr
        BL       __aeabi_memclr
//  761        sprintf(cmd_code,"%.1f",planner.max_jerk[X_AXIS]);
        LDR.W    R0,??DataTable7_6
        LDR      R0,[R0, #+0]
          CFI FunCall __aeabi_f2d
        BL       __aeabi_f2d
        MOV      R3,R1
        MOV      R2,R0
        ADR.W    R1,`?<Constant "%.1f">`
        B.N      ??disp_value_5
//  762 
//  763         break;
//  764        case YJerk:
//  765        memset(cmd_code,0,sizeof(cmd_code));
??disp_value_51:
        LDR.N    R4,??disp_value_4
        MOVS     R1,#+201
        MOV      R0,R4
          CFI FunCall __aeabi_memclr
        BL       __aeabi_memclr
//  766        sprintf(cmd_code,"%.1f",planner.max_jerk[Y_AXIS]);
        LDR.W    R0,??DataTable7_6
        LDR      R0,[R0, #+4]
          CFI FunCall __aeabi_f2d
        BL       __aeabi_f2d
        MOV      R3,R1
        MOV      R2,R0
        ADR.W    R1,`?<Constant "%.1f">`
        B.N      ??disp_value_5
//  767 
//  768         break; 
//  769        case ZJerk:
//  770        memset(cmd_code,0,sizeof(cmd_code));
??disp_value_52:
        LDR.N    R4,??disp_value_4
        MOVS     R1,#+201
        MOV      R0,R4
          CFI FunCall __aeabi_memclr
        BL       __aeabi_memclr
//  771        sprintf(cmd_code,"%.1f",planner.max_jerk[Z_AXIS]);
        LDR.W    R0,??DataTable7_6
        LDR      R0,[R0, #+8]
          CFI FunCall __aeabi_f2d
        BL       __aeabi_f2d
        MOV      R3,R1
        MOV      R2,R0
        ADR.W    R1,`?<Constant "%.1f">`
        B.N      ??disp_value_5
//  772 
//  773         break; 
//  774        case EJerk:
//  775        memset(cmd_code,0,sizeof(cmd_code));
??disp_value_53:
        LDR.N    R4,??disp_value_4
        MOVS     R1,#+201
        MOV      R0,R4
          CFI FunCall __aeabi_memclr
        BL       __aeabi_memclr
//  776        sprintf(cmd_code,"%.1f",planner.max_jerk[E_AXIS]);
        LDR.W    R0,??DataTable7_6
        LDR      R0,[R0, #+12]
          CFI FunCall __aeabi_f2d
        BL       __aeabi_f2d
        MOV      R3,R1
        MOV      R2,R0
        ADR.W    R1,`?<Constant "%.1f">`
        B.N      ??disp_value_5
//  777 
//  778         break; 
//  779        case Xstep:
//  780        memset(cmd_code,0,sizeof(cmd_code));
??disp_value_54:
        LDR.N    R4,??disp_value_4
        MOVS     R1,#+201
        MOV      R0,R4
          CFI FunCall __aeabi_memclr
        BL       __aeabi_memclr
//  781        sprintf(cmd_code,"%.1f",planner.axis_steps_per_mm[X_AXIS]);
        LDR.W    R0,??DataTable7_7
        LDR      R0,[R0, #+0]
          CFI FunCall __aeabi_f2d
        BL       __aeabi_f2d
        MOV      R3,R1
        MOV      R2,R0
        ADR.W    R1,`?<Constant "%.1f">`
        B.N      ??disp_value_5
//  782 
//  783         break; 
//  784        case Ystep:
//  785        memset(cmd_code,0,sizeof(cmd_code));
??disp_value_55:
        LDR.N    R4,??disp_value_4
        MOVS     R1,#+201
        MOV      R0,R4
          CFI FunCall __aeabi_memclr
        BL       __aeabi_memclr
//  786        sprintf(cmd_code,"%.1f",planner.axis_steps_per_mm[Y_AXIS]);
        LDR.W    R0,??DataTable7_7
        LDR      R0,[R0, #+4]
          CFI FunCall __aeabi_f2d
        BL       __aeabi_f2d
        MOV      R3,R1
        MOV      R2,R0
        ADR.W    R1,`?<Constant "%.1f">`
        B.N      ??disp_value_5
//  787 
//  788         break;  
//  789        case Zstep:
//  790        memset(cmd_code,0,sizeof(cmd_code));
??disp_value_56:
        LDR.N    R4,??disp_value_4
        MOVS     R1,#+201
        MOV      R0,R4
          CFI FunCall __aeabi_memclr
        BL       __aeabi_memclr
//  791        sprintf(cmd_code,"%.1f",planner.axis_steps_per_mm[Z_AXIS]);
        LDR.W    R0,??DataTable7_7
        LDR      R0,[R0, #+8]
          CFI FunCall __aeabi_f2d
        BL       __aeabi_f2d
        MOV      R3,R1
        MOV      R2,R0
        ADR.W    R1,`?<Constant "%.1f">`
        B.N      ??disp_value_5
//  792 
//  793         break; 
//  794        case E0step:
//  795        memset(cmd_code,0,sizeof(cmd_code));
??disp_value_57:
        LDR.N    R4,??disp_value_4
        MOVS     R1,#+201
        MOV      R0,R4
          CFI FunCall __aeabi_memclr
        BL       __aeabi_memclr
//  796        sprintf(cmd_code,"%.1f",planner.axis_steps_per_mm[E_AXIS]);
        LDR.W    R0,??DataTable7_7
        LDR      R0,[R0, #+12]
          CFI FunCall __aeabi_f2d
        BL       __aeabi_f2d
        MOV      R3,R1
        MOV      R2,R0
        ADR.W    R1,`?<Constant "%.1f">`
        B.N      ??disp_value_5
//  797 
//  798         break; 
//  799        case E1step:
//  800        memset(cmd_code,0,sizeof(cmd_code));
??disp_value_58:
        LDR.N    R4,??disp_value_4
        MOVS     R1,#+201
        MOV      R0,R4
          CFI FunCall __aeabi_memclr
        BL       __aeabi_memclr
//  801        sprintf(cmd_code,"%.1f",planner.axis_steps_per_mm[XYZE]);
        LDR.W    R0,??DataTable7_7
        LDR      R0,[R0, #+16]
          CFI FunCall __aeabi_f2d
        BL       __aeabi_f2d
        MOV      R3,R1
        MOV      R2,R0
        ADR.W    R1,`?<Constant "%.1f">`
        B.N      ??disp_value_5
//  802 
//  803         break;  
//  804        case XYspeed:
//  805 		memset(cmd_code,0,sizeof(cmd_code));
??disp_value_59:
        LDR.N    R4,??disp_value_4
        MOVS     R1,#+201
        MOV      R0,R4
          CFI FunCall __aeabi_memclr
        BL       __aeabi_memclr
//  806 		sprintf(cmd_code,"%.1f",mksCfg.homing_feedrate_xy);
        LDR.N    R0,??disp_value_1+0xC
        LDR      R0,[R0, #+16]
          CFI FunCall __aeabi_f2d
        BL       __aeabi_f2d
        MOV      R3,R1
        MOV      R2,R0
        ADR.W    R1,`?<Constant "%.1f">`
        B.N      ??disp_value_5
//  807 
//  808         break;
//  809        case Zspeed:
//  810 		memset(cmd_code,0,sizeof(cmd_code));
??disp_value_60:
        LDR.N    R4,??disp_value_4
        MOVS     R1,#+201
        MOV      R0,R4
          CFI FunCall __aeabi_memclr
        BL       __aeabi_memclr
//  811 		sprintf(cmd_code,"%.1f",mksCfg.homing_feedrate_z);
        LDR.N    R0,??disp_value_1+0xC
        LDR      R0,[R0, #+20]
          CFI FunCall __aeabi_f2d
        BL       __aeabi_f2d
        MOV      R3,R1
        MOV      R2,R0
        ADR.W    R1,`?<Constant "%.1f">`
        B.N      ??disp_value_5
//  812 
//  813         break;
//  814 
//  815        case Nozzle_Cnt:
//  816         memset(cmd_code,0,sizeof(cmd_code));
??disp_value_61:
        LDR.N    R4,??disp_value_4
        MOVS     R1,#+201
        MOV      R0,R4
          CFI FunCall __aeabi_memclr
        BL       __aeabi_memclr
//  817         sprintf(cmd_code,"%d",mksCfg.extruders);        
        LDR.N    R0,??disp_value_1+0x8
        LDRB     R2,[R0, #+247]
        B.N      ??disp_value_9
//  818         break;
//  819        case Nozzle_min:
//  820         memset(cmd_code,0,sizeof(cmd_code));
??disp_value_62:
        LDR.N    R4,??disp_value_4
        MOVS     R1,#+201
        MOV      R0,R4
          CFI FunCall __aeabi_memclr
        BL       __aeabi_memclr
//  821         sprintf(cmd_code,"%d",mksCfg.heater_0_mintemp);         
        LDR.N    R0,??disp_value_1+0x8
        LDRSH    R2,[R0, #+240]
        B.N      ??disp_value_9
//  822         break;
//  823        case Nozzle_max:
//  824         memset(cmd_code,0,sizeof(cmd_code));
??disp_value_63:
        LDR.N    R4,??disp_value_4
        MOVS     R1,#+201
        MOV      R0,R4
          CFI FunCall __aeabi_memclr
        BL       __aeabi_memclr
//  825         sprintf(cmd_code,"%d",mksCfg.heater_0_maxtemp);         
        LDR.N    R0,??disp_value_1+0xC
        LDRSH    R2,[R0, #+28]
        B.N      ??disp_value_9
//  826         break;
//  827        case Extrude_min_temper:
//  828         memset(cmd_code,0,sizeof(cmd_code));
??disp_value_64:
        LDR.N    R4,??disp_value_4
        MOVS     R1,#+201
        MOV      R0,R4
          CFI FunCall __aeabi_memclr
        BL       __aeabi_memclr
//  829         sprintf(cmd_code,"%.1f",mksCfg.extrude_mintemp);        
        LDR.N    R0,??disp_value_1+0xC
        LDR      R0,[R0, #+24]
          CFI FunCall __aeabi_f2d
        BL       __aeabi_f2d
        MOV      R3,R1
        MOV      R2,R0
        ADR.W    R1,`?<Constant "%.1f">`
        B.N      ??disp_value_5
//  830         break;
//  831        case Nozzle_pid_p:
//  832         memset(cmd_code,0,sizeof(cmd_code));
??disp_value_65:
        LDR.N    R4,??disp_value_4
        MOVS     R1,#+201
        MOV      R0,R4
          CFI FunCall __aeabi_memclr
        BL       __aeabi_memclr
//  833         sprintf(cmd_code,"%.3f",thermalManager.Kp);
        LDR.W    R0,??DataTable7_8
        LDR      R0,[R0, #+0]
          CFI FunCall __aeabi_f2d
        BL       __aeabi_f2d
        B.N      ??disp_value_66
//  834         break;
//  835        case Nozzle_pid_i:
//  836         memset(cmd_code,0,sizeof(cmd_code));
??disp_value_67:
        LDR.N    R4,??disp_value_4
        MOVS     R1,#+201
        MOV      R0,R4
          CFI FunCall __aeabi_memclr
        BL       __aeabi_memclr
//  837         sprintf(cmd_code,"%.3f",unscalePID_i(thermalManager.Ki));
        LDR.W    R0,??DataTable7_9
        LDR      R0,[R0, #+0]
          CFI FunCall __aeabi_f2d
        BL       __aeabi_f2d
        LDR.W    R2,??DataTable7_10  ;; 0x88e368f1
        LDR.W    R3,??DataTable7_11  ;; 0x3fc4f8b5
          CFI FunCall __aeabi_ddiv
        BL       __aeabi_ddiv
        B.N      ??disp_value_66
//  838         break;
//  839        case Nozzle_pid_d:
//  840         memset(cmd_code,0,sizeof(cmd_code));
??disp_value_68:
        LDR.N    R4,??disp_value_4
        MOVS     R1,#+201
        MOV      R0,R4
          CFI FunCall __aeabi_memclr
        BL       __aeabi_memclr
//  841         sprintf(cmd_code,"%.3f",unscalePID_d(thermalManager.Kd));
        LDR.W    R0,??DataTable7_12
        B.N      ??disp_value_69
//  842         break; 
//  843         
//  844        case HotBed_max:
//  845          memset(cmd_code,0,sizeof(cmd_code));
??disp_value_70:
        LDR.N    R4,??disp_value_4
        MOVS     R1,#+201
        MOV      R0,R4
          CFI FunCall __aeabi_memclr
        BL       __aeabi_memclr
//  846          sprintf(cmd_code,"%d",mksCfg.bed_maxtemp);         
        LDR.N    R0,??disp_value_1+0xC
        LDRSH    R2,[R0, #+30]
        B.N      ??disp_value_9
//  847          break;
//  848 	case HotBed_min:
//  849          memset(cmd_code,0,sizeof(cmd_code));
??disp_value_71:
        LDR.N    R4,??disp_value_4
        MOVS     R1,#+201
        MOV      R0,R4
          CFI FunCall __aeabi_memclr
        BL       __aeabi_memclr
//  850          sprintf(cmd_code,"%d",mksCfg.bed_mintemp);         
        LDR.N    R0,??disp_value_1+0xC
        LDRSH    R2,[R0, #+32]
??disp_value_9:
        ADR.N    R1,??disp_value_1  ;; 0x25, 0x64, 0x00, 0x00
        MOV      R0,R4
          CFI FunCall sprintf
        BL       sprintf
//  851          break;
        B.N      ??disp_value_2
//  852 		
//  853        case HotBed_pid_p:
//  854         memset(cmd_code,0,sizeof(cmd_code));
??disp_value_72:
        LDR.N    R4,??disp_value_4
        MOVS     R1,#+201
        MOV      R0,R4
          CFI FunCall __aeabi_memclr
        BL       __aeabi_memclr
//  855         sprintf(cmd_code,"%.3f",thermalManager.bedKp);
        LDR.W    R0,??DataTable7_13
        LDR      R0,[R0, #+0]
          CFI FunCall __aeabi_f2d
        BL       __aeabi_f2d
        B.N      ??disp_value_66
//  856         break;
//  857        case HotBed_pid_i:
//  858         memset(cmd_code,0,sizeof(cmd_code));
??disp_value_73:
        LDR.N    R4,??disp_value_4
        MOVS     R1,#+201
        MOV      R0,R4
          CFI FunCall __aeabi_memclr
        BL       __aeabi_memclr
//  859         sprintf(cmd_code,"%.3f",unscalePID_i(thermalManager.bedKi));
        LDR.W    R0,??DataTable7_14
        LDR      R0,[R0, #+0]
          CFI FunCall __aeabi_f2d
        BL       __aeabi_f2d
        LDR.W    R2,??DataTable7_10  ;; 0x88e368f1
        LDR.W    R3,??DataTable7_11  ;; 0x3fc4f8b5
          CFI FunCall __aeabi_ddiv
        BL       __aeabi_ddiv
        B.N      ??disp_value_66
        Nop      
        DATA
??disp_value_1:
        DC8      0x25, 0x64, 0x00, 0x00
        DC32     value
        DC32     mksCfg
        DC32     mksCfg+0x14
        DC32     gCfgItems+0xEC
        DC32     gCfgItems
        THUMB
//  860         break;
//  861        case HotBed_pid_d:
//  862         memset(cmd_code,0,sizeof(cmd_code));
??disp_value_74:
        LDR.N    R4,??disp_value_4
        MOVS     R1,#+201
        MOV      R0,R4
          CFI FunCall __aeabi_memclr
        BL       __aeabi_memclr
//  863         sprintf(cmd_code,"%.3f",unscalePID_d(thermalManager.bedKd));
        LDR.W    R0,??DataTable7_15
??disp_value_69:
        LDR      R0,[R0, #+0]
          CFI FunCall __aeabi_f2d
        BL       __aeabi_f2d
        LDR.W    R2,??DataTable7_10  ;; 0x88e368f1
        LDR.W    R3,??DataTable7_11  ;; 0x3fc4f8b5
          CFI FunCall __aeabi_dmul
        BL       __aeabi_dmul
??disp_value_66:
        MOV      R3,R1
        MOV      R2,R0
        ADR.W    R1,`?<Constant "%.3f">`
??disp_value_5:
        MOV      R0,R4
          CFI FunCall sprintf
        BL       sprintf
//  864         break;         
//  865     }
//  866     memset(key_value,0,sizeof(key_value));
??disp_value_2:
        LDR.W    R4,??DataTable7_16
        MOVS     R1,#+11
        ADDS     R0,R4,#+4
          CFI FunCall __aeabi_memclr4
        BL       __aeabi_memclr4
//  867     strcpy(key_value,cmd_code);
        LDR.N    R1,??disp_value_4
        B.N      ??disp_value_75
        Nop      
        DATA
??disp_value_4:
        DC32     cmd_code
        THUMB
??disp_value_75:
        ADDS     R0,R4,#+4
          CFI FunCall strcpy
        BL       strcpy
//  868     cnt=strlen(key_value);
          CFI FunCall strlen
        BL       strlen
        STRB     R0,[R4, #+0]
//  869     temp=strchr(key_value,'.');
//  870     if(temp)
        MOVS     R1,#+46
        ADDS     R0,R4,#+4
          CFI FunCall __iar_Strchr
        BL       __iar_Strchr
        CMP      R0,#+0
        ITE      NE 
//  871     {
//  872        point_flg = 0; 
        MOVNE    R0,#+0
//  873     }
//  874     else
//  875     {
//  876         point_flg = 1;
        MOVEQ    R0,#+1
        STRB     R0,[R4, #+1]
          CFI EndBlock cfiBlock2
//  877     }    
//  878     TEXT_SetText(textKeyNumb, key_value);
        REQUIRE ?Subroutine0
        ;; // Fall through to label ?Subroutine0
//  879     
//  880 }

        SECTION `.text`:CODE:NOROOT(1)
          CFI Block cfiBlock3 Using cfiCommon0
          CFI NoFunction
          CFI CFA R13+8
          CFI R4 Frame(CFA, -8)
          CFI R14 Frame(CFA, -4)
        THUMB
?Subroutine0:
        ADDS     R1,R4,#+4
        LDRSH    R0,[R4, #+18]
        POP      {R4,LR}
          CFI CFA R13+0
          CFI R4 SameValue
          CFI R14 SameValue
          CFI FunCall _Z14cbNumberKeyWinP10WM_MESSAGE TEXT_SetText
          CFI FunCall _Z10disp_valuev TEXT_SetText
        B.W      TEXT_SetText
          CFI EndBlock cfiBlock3

        SECTION `.text`:CODE:NOROOT(2)
        SECTION_TYPE SHT_PROGBITS, 0
        DATA
`?<Constant "%.1f">`:
        DC8 "%.1f"
        DC8 0, 0, 0

        SECTION `.text`:CODE:NOROOT(2)
          CFI Block cfiBlock4 Using cfiCommon0
          CFI Function draw_NumberKey
        THUMB
//  881 void draw_NumberKey()
//  882 {   
draw_NumberKey:
        PUSH     {R4-R11,LR}
          CFI R14 Frame(CFA, -4)
          CFI R11 Frame(CFA, -8)
          CFI R10 Frame(CFA, -12)
          CFI R9 Frame(CFA, -16)
          CFI R8 Frame(CFA, -20)
          CFI R7 Frame(CFA, -24)
          CFI R6 Frame(CFA, -28)
          CFI R5 Frame(CFA, -32)
          CFI R4 Frame(CFA, -36)
          CFI CFA R13+36
//  883     int i;
//  884 
//  885     if(disp_state_stack._disp_state[disp_state_stack._disp_index] != NUMBER_KEY_UI)
        LDR.W    R0,??DataTable7_17
        LDRSB    R1,[R0, #+100]
        SUB      SP,SP,#+20
          CFI CFA R13+56
        LDRSB    R2,[R1, R0]
        CMP      R2,#+61
        BEQ.N    ??draw_NumberKey_0
//  886     {
//  887         disp_state_stack._disp_index++;
        ADDS     R1,R1,#+1
        STRB     R1,[R0, #+100]
//  888         disp_state_stack._disp_state[disp_state_stack._disp_index] = NUMBER_KEY_UI;
        MOVS     R2,#+61
        SXTB     R1,R1
        STRB     R2,[R1, R0]
//  889     }
//  890     disp_state = NUMBER_KEY_UI;
??draw_NumberKey_0:
        MOVS     R0,#+61
        LDR.W    R1,??DataTable7_18
        STRB     R0,[R1, #+0]
        LDR.W    R0,??DataTable7_19
        LDR      R0,[R0, #+20]
//  891     
//  892     GUI_SetBkColor(gCfgItems.background_color);
          CFI FunCall GUI_SetBkColor
        BL       GUI_SetBkColor
//  893     GUI_SetColor(gCfgItems.title_color);
        LDR.W    R4,??DataTable7_20
        LDR      R0,[R4, #+4]
          CFI FunCall GUI_SetColor
        BL       GUI_SetColor
//  894     GUI_Clear();
          CFI FunCall GUI_Clear
        BL       GUI_Clear
//  895     
//  896     hNumberKeyWnd = WM_CreateWindow(0, 0, LCD_WIDTH, LCD_HEIGHT, WM_CF_SHOW, cbNumberKeyWin, 0);
        MOVS     R0,#+0
        STR      R0,[SP, #+8]
        MOV      R3,#+320
        LDR.W    R0,??DataTable7_21
        STR      R0,[SP, #+4]
        MOV      R2,#+480
        MOVS     R0,#+2
        STR      R0,[SP, #+0]
        MOVS     R1,#+0
        MOVS     R0,#+0
          CFI FunCall WM_CreateWindow
        BL       WM_CreateWindow
//  897 
//  898     //KeyValue.btnHandle = BUTTON_CreateEx(92,40,296,40,hNumberKeyWnd, BUTTON_CF_SHOW, 0, alloc_win_id());
//  899 	textKeyNumb= TEXT_CreateEx(92,40,296,40,hNumberKeyWnd,WM_CF_SHOW, TEXT_CF_HCENTER,	GUI_ID_TEXT1, " ");
        ADR.N    R1,??draw_NumberKey_1  ;; " "
        STR      R1,[SP, #+16]
        MOVW     R1,#+353
        STR      R1,[SP, #+12]
        MOVS     R1,#+2
        LDR.W    R5,??DataTable7_16
        STR      R1,[SP, #+8]
        STRH     R0,[R5, #+16]
        STR      R1,[SP, #+4]
        STR      R0,[SP, #+0]
        MOVS     R3,#+40
        MOV      R2,#+296
        MOV      R1,R3
        MOVS     R0,#+92
          CFI FunCall TEXT_CreateEx
        BL       TEXT_CreateEx
        STRH     R0,[R5, #+18]
//  900 
//  901     NumberKey_1.btnHandle = BUTTON_CreateEx(92,90,68,40,hNumberKeyWnd, BUTTON_CF_SHOW, 0, alloc_win_id());
          CFI FunCall alloc_win_id
        BL       alloc_win_id
        STR      R0,[SP, #+12]
        MOVS     R3,#+40
        MOVS     R0,#+0
        STR      R0,[SP, #+8]
        MOVS     R2,#+68
        MOVS     R0,#+2
        STR      R0,[SP, #+4]
        MOVS     R1,#+90
        LDRSH    R0,[R5, #+16]
        STR      R0,[SP, #+0]
        MOVS     R0,#+92
          CFI FunCall BUTTON_CreateEx
        BL       BUTTON_CreateEx
        STRH     R0,[R5, #+20]
//  902     NumberKey_2.btnHandle = BUTTON_CreateEx(168,90,68,40,hNumberKeyWnd, BUTTON_CF_SHOW, 0, alloc_win_id());
          CFI FunCall alloc_win_id
        BL       alloc_win_id
        STR      R0,[SP, #+12]
        MOVS     R3,#+40
        MOVS     R0,#+0
        STR      R0,[SP, #+8]
        MOVS     R2,#+68
        MOVS     R0,#+2
        STR      R0,[SP, #+4]
        MOVS     R1,#+90
        LDRSH    R0,[R5, #+16]
        STR      R0,[SP, #+0]
        MOVS     R0,#+168
          CFI FunCall BUTTON_CreateEx
        BL       BUTTON_CreateEx
        LDR.W    R1,??DataTable7_22
        STRH     R0,[R1, #+0]
//  903     NumberKey_3.btnHandle = BUTTON_CreateEx(244,90,68,40,hNumberKeyWnd, BUTTON_CF_SHOW, 0, alloc_win_id());
          CFI FunCall alloc_win_id
        BL       alloc_win_id
        STR      R0,[SP, #+12]
        MOVS     R3,#+40
        MOVS     R0,#+0
        STR      R0,[SP, #+8]
        MOVS     R2,#+68
        MOVS     R0,#+2
        STR      R0,[SP, #+4]
        MOVS     R1,#+90
        LDRSH    R0,[R5, #+16]
        STR      R0,[SP, #+0]
        MOVS     R0,#+244
          CFI FunCall BUTTON_CreateEx
        BL       BUTTON_CreateEx
        LDR.W    R1,??DataTable7_22
        STRH     R0,[R1, #+24]
//  904     KeyBack.btnHandle = BUTTON_CreateEx(320,90,68,40,hNumberKeyWnd, BUTTON_CF_SHOW, 0, alloc_win_id());
          CFI FunCall alloc_win_id
        BL       alloc_win_id
        STR      R0,[SP, #+12]
        MOVS     R0,#+0
        STR      R0,[SP, #+8]
        MOVS     R0,#+2
        STR      R0,[SP, #+4]
        MOVS     R3,#+40
        LDRSH    R0,[R5, #+16]
        LDR.W    R6,??DataTable7_23
        STR      R0,[SP, #+0]
        MOVS     R2,#+68
        MOVS     R1,#+90
        MOV      R0,#+320
          CFI FunCall BUTTON_CreateEx
        BL       BUTTON_CreateEx
        STRH     R0,[R6, #+0]
//  905     
//  906     NumberKey_4.btnHandle = BUTTON_CreateEx(92,140,68,40,hNumberKeyWnd, BUTTON_CF_SHOW, 0, alloc_win_id());
          CFI FunCall alloc_win_id
        BL       alloc_win_id
        STR      R0,[SP, #+12]
        MOVS     R0,#+0
        STR      R0,[SP, #+8]
        MOVS     R0,#+2
        STR      R0,[SP, #+4]
        MOVS     R3,#+40
        LDRSH    R0,[R5, #+16]
        LDR.W    R7,??DataTable7_24
        STR      R0,[SP, #+0]
        MOVS     R2,#+68
        MOVS     R1,#+140
        MOVS     R0,#+92
          CFI FunCall BUTTON_CreateEx
        BL       BUTTON_CreateEx
        STRH     R0,[R7, #+0]
//  907     NumberKey_5.btnHandle = BUTTON_CreateEx(168,140,68,40,hNumberKeyWnd, BUTTON_CF_SHOW, 0, alloc_win_id());
          CFI FunCall alloc_win_id
        BL       alloc_win_id
        STR      R0,[SP, #+12]
        MOVS     R3,#+40
        MOVS     R0,#+0
        STR      R0,[SP, #+8]
        MOVS     R2,#+68
        MOVS     R0,#+2
        STR      R0,[SP, #+4]
        MOVS     R1,#+140
        LDRSH    R0,[R5, #+16]
        STR      R0,[SP, #+0]
        MOVS     R0,#+168
          CFI FunCall BUTTON_CreateEx
        BL       BUTTON_CreateEx
        STRH     R0,[R7, #+24]
//  908     NumberKey_6.btnHandle = BUTTON_CreateEx(244,140,68,40,hNumberKeyWnd, BUTTON_CF_SHOW, 0, alloc_win_id());
          CFI FunCall alloc_win_id
        BL       alloc_win_id
        STR      R0,[SP, #+12]
        MOVS     R0,#+0
        STR      R0,[SP, #+8]
        MOVS     R0,#+2
        STR      R0,[SP, #+4]
        MOVS     R3,#+40
        LDRSH    R0,[R5, #+16]
        LDR.W    R8,??DataTable7_25
        STR      R0,[SP, #+0]
        MOVS     R2,#+68
        MOVS     R1,#+140
        MOVS     R0,#+244
          CFI FunCall BUTTON_CreateEx
        BL       BUTTON_CreateEx
        STRH     R0,[R8, #+0]
//  909     KeyReset.btnHandle = BUTTON_CreateEx(320,140,68,40,hNumberKeyWnd, BUTTON_CF_SHOW, 0, alloc_win_id());
          CFI FunCall alloc_win_id
        BL       alloc_win_id
        STR      R0,[SP, #+12]
        MOVS     R0,#+0
        STR      R0,[SP, #+8]
        MOVS     R0,#+2
        STR      R0,[SP, #+4]
        MOVS     R3,#+40
        LDRSH    R0,[R5, #+16]
        LDR.W    R9,??DataTable7_26
        STR      R0,[SP, #+0]
        MOVS     R2,#+68
        MOVS     R1,#+140
        MOV      R0,#+320
          CFI FunCall BUTTON_CreateEx
        BL       BUTTON_CreateEx
        STRH     R0,[R9, #+24]
//  910     
//  911     NumberKey_7.btnHandle = BUTTON_CreateEx(92,190,68,40,hNumberKeyWnd, BUTTON_CF_SHOW, 0, alloc_win_id());
          CFI FunCall alloc_win_id
        BL       alloc_win_id
        STR      R0,[SP, #+12]
        MOVS     R3,#+40
        MOVS     R0,#+0
        STR      R0,[SP, #+8]
        MOVS     R2,#+68
        MOVS     R0,#+2
        STR      R0,[SP, #+4]
        MOVS     R1,#+190
        LDRSH    R0,[R5, #+16]
        STR      R0,[SP, #+0]
        MOVS     R0,#+92
          CFI FunCall BUTTON_CreateEx
        BL       BUTTON_CreateEx
        STRH     R0,[R8, #+24]
//  912     NumberKey_8.btnHandle = BUTTON_CreateEx(168,190,68,40,hNumberKeyWnd, BUTTON_CF_SHOW, 0, alloc_win_id());
          CFI FunCall alloc_win_id
        BL       alloc_win_id
        STR      R0,[SP, #+12]
        MOVS     R0,#+0
        STR      R0,[SP, #+8]
        MOVS     R0,#+2
        STR      R0,[SP, #+4]
        MOVS     R3,#+40
        LDRSH    R0,[R5, #+16]
        LDR.W    R10,??DataTable7_27
        STR      R0,[SP, #+0]
        MOVS     R2,#+68
        MOVS     R1,#+190
        MOVS     R0,#+168
          CFI FunCall BUTTON_CreateEx
        BL       BUTTON_CreateEx
        STRH     R0,[R10, #+0]
//  913     NumberKey_9.btnHandle = BUTTON_CreateEx(244,190,68,40,hNumberKeyWnd, BUTTON_CF_SHOW, 0, alloc_win_id());
          CFI FunCall alloc_win_id
        BL       alloc_win_id
        STR      R0,[SP, #+12]
        MOVS     R3,#+40
        MOVS     R0,#+0
        STR      R0,[SP, #+8]
        MOVS     R2,#+68
        MOVS     R0,#+2
        STR      R0,[SP, #+4]
        MOVS     R1,#+190
        LDRSH    R0,[R5, #+16]
        STR      R0,[SP, #+0]
        MOVS     R0,#+244
          CFI FunCall BUTTON_CreateEx
        BL       BUTTON_CreateEx
        STRH     R0,[R10, #+24]
//  914     KeyConfirm.btnHandle = BUTTON_CreateEx(320,190,68,90,hNumberKeyWnd, BUTTON_CF_SHOW, 0, alloc_win_id());
          CFI FunCall alloc_win_id
        BL       alloc_win_id
        STR      R0,[SP, #+12]
        MOVS     R3,#+90
        MOVS     R0,#+0
        STR      R0,[SP, #+8]
        MOVS     R2,#+68
        MOVS     R0,#+2
        STR      R0,[SP, #+4]
        MOVS     R1,#+190
        LDRSH    R0,[R5, #+16]
        STR      R0,[SP, #+0]
        MOV      R0,#+320
          CFI FunCall BUTTON_CreateEx
        BL       BUTTON_CreateEx
        STRH     R0,[R9, #+0]
//  915 
//  916     NumberKey_0.btnHandle = BUTTON_CreateEx(92,240,68,40,hNumberKeyWnd, BUTTON_CF_SHOW, 0, alloc_win_id());
          CFI FunCall alloc_win_id
        BL       alloc_win_id
        STR      R0,[SP, #+12]
        MOVS     R0,#+0
        STR      R0,[SP, #+8]
        MOVS     R0,#+2
        STR      R0,[SP, #+4]
        MOVS     R3,#+40
        LDRSH    R0,[R5, #+16]
        LDR.W    R11,??DataTable7_28
        B.N      ??draw_NumberKey_2
        Nop      
        DATA
??draw_NumberKey_1:
        DC8      " ",0x0,0x0
        THUMB
??draw_NumberKey_2:
        STR      R0,[SP, #+0]
        MOVS     R2,#+68
        MOVS     R1,#+240
        MOVS     R0,#+92
          CFI FunCall BUTTON_CreateEx
        BL       BUTTON_CreateEx
        STRH     R0,[R11, #+0]
//  917     KeyPoint.btnHandle = BUTTON_CreateEx(244,240,68,40,hNumberKeyWnd, BUTTON_CF_SHOW, 0, alloc_win_id());
          CFI FunCall alloc_win_id
        BL       alloc_win_id
        STR      R0,[SP, #+12]
        MOVS     R3,#+40
        MOVS     R0,#+0
        STR      R0,[SP, #+8]
        MOVS     R2,#+68
        MOVS     R0,#+2
        STR      R0,[SP, #+4]
        MOVS     R1,#+240
        LDRSH    R0,[R5, #+16]
        STR      R0,[SP, #+0]
        MOVS     R0,#+244
          CFI FunCall BUTTON_CreateEx
        BL       BUTTON_CreateEx
        STRH     R0,[R11, #+24]
//  918 
//  919     Nagetive.btnHandle = BUTTON_CreateEx(168,240,68,40,hNumberKeyWnd, BUTTON_CF_SHOW, 0, alloc_win_id());
          CFI FunCall alloc_win_id
        BL       alloc_win_id
        STR      R0,[SP, #+12]
        MOVS     R3,#+40
        MOVS     R0,#+0
        STR      R0,[SP, #+8]
        MOVS     R2,#+68
        MOVS     R0,#+2
        STR      R0,[SP, #+4]
        MOVS     R1,#+240
        LDRSH    R0,[R5, #+16]
        STR      R0,[SP, #+0]
        MOVS     R0,#+168
          CFI FunCall BUTTON_CreateEx
        BL       BUTTON_CreateEx
        STRH     R0,[R6, #+24]
//  920     //sean 19.12.27
//  921     #if 0
//  922     BUTTON_SetBmpFileName(NumberKey_1.btnHandle, "bmp_NumberKey_bk.bin",1);        
//  923     BUTTON_SetBmpFileName(NumberKey_2.btnHandle, "bmp_NumberKey_bk.bin",1);
//  924     BUTTON_SetBmpFileName(NumberKey_3.btnHandle, "bmp_NumberKey_bk.bin",1);
//  925     
//  926     BUTTON_SetBmpFileName(NumberKey_4.btnHandle, "bmp_NumberKey_bk.bin",1);        
//  927     BUTTON_SetBmpFileName(NumberKey_5.btnHandle, "bmp_NumberKey_bk.bin",1);
//  928     BUTTON_SetBmpFileName(NumberKey_6.btnHandle, "bmp_NumberKey_bk.bin",1);  
//  929 
//  930     BUTTON_SetBmpFileName(NumberKey_7.btnHandle, "bmp_NumberKey_bk.bin",1);        
//  931     BUTTON_SetBmpFileName(NumberKey_8.btnHandle, "bmp_NumberKey_bk.bin",1);
//  932     BUTTON_SetBmpFileName(NumberKey_9.btnHandle, "bmp_NumberKey_bk.bin",1);  
//  933 
//  934     BUTTON_SetBmpFileName(NumberKey_0.btnHandle, "bmp_NumberKey_0_bk.bin",1);        
//  935     BUTTON_SetBmpFileName(KeyPoint.btnHandle, "bmp_NumberKey_bk.bin",1);
//  936     BUTTON_SetBmpFileName(KeyConfirm.btnHandle, "bmp_KeyConfirm.bin",1);  
//  937 
//  938     BUTTON_SetBmpFileName(KeyReset.btnHandle, "bmp_NumberKey_bk.bin",1);
//  939     BUTTON_SetBmpFileName(KeyBack.btnHandle, "bmp_NumberKey_bk.bin",1);
//  940     
//  941     //BUTTON_SetBmpFileName(KeyValue.btnHandle,NULL,1);
//  942     
//  943     BUTTON_SetBitmapEx(NumberKey_1.btnHandle,0,&bmp_struct68X40,0,0);//图片大小为68x40
//  944     BUTTON_SetBitmapEx(NumberKey_2.btnHandle,0,&bmp_struct68X40,0,0);
//  945     BUTTON_SetBitmapEx(NumberKey_3.btnHandle,0,&bmp_struct68X40,0,0);
//  946     BUTTON_SetBitmapEx(NumberKey_4.btnHandle,0,&bmp_struct68X40,0,0);//图片大小为68x40
//  947     BUTTON_SetBitmapEx(NumberKey_5.btnHandle,0,&bmp_struct68X40,0,0);
//  948     BUTTON_SetBitmapEx(NumberKey_6.btnHandle,0,&bmp_struct68X40,0,0);
//  949     BUTTON_SetBitmapEx(NumberKey_7.btnHandle,0,&bmp_struct68X40,0,0);//图片大小为68x40
//  950     BUTTON_SetBitmapEx(NumberKey_8.btnHandle,0,&bmp_struct68X40,0,0);
//  951     BUTTON_SetBitmapEx(NumberKey_9.btnHandle,0,&bmp_struct68X40,0,0);
//  952     BUTTON_SetBitmapEx(NumberKey_0.btnHandle,0,&bmp_struct144X40,0,0);//图片大小为68x40
//  953     BUTTON_SetBitmapEx(KeyPoint.btnHandle,0,&bmp_struct68X40,0,0);
//  954     BUTTON_SetBitmapEx(KeyBack.btnHandle,0,&bmp_struct68X40,0,0);
//  955     BUTTON_SetBitmapEx(KeyReset.btnHandle,0,&bmp_struct68X40,0,0);
//  956     BUTTON_SetBitmapEx(KeyConfirm.btnHandle,0,&bmp_struct68X90,0,0);
//  957     #else
//  958     BUTTON_SetBmpFileName(NumberKey_1.btnHandle, NULL,1);        
        MOVS     R2,#+1
        LDRSH    R0,[R5, #+20]
        MOVS     R1,#+0
          CFI FunCall BUTTON_SetBmpFileName
        BL       BUTTON_SetBmpFileName
//  959     BUTTON_SetBmpFileName(NumberKey_2.btnHandle, NULL,1);
        MOVS     R1,#+0
        LDR.W    R0,??DataTable7_22
        LDRSH    R0,[R0, R1]
        MOVS     R2,#+1
          CFI FunCall BUTTON_SetBmpFileName
        BL       BUTTON_SetBmpFileName
//  960     BUTTON_SetBmpFileName(NumberKey_3.btnHandle, NULL,1);
        LDR.W    R0,??DataTable7_22
        LDRSH    R0,[R0, #+24]
        MOVS     R2,#+1
        MOVS     R1,#+0
          CFI FunCall BUTTON_SetBmpFileName
        BL       BUTTON_SetBmpFileName
//  961     
//  962     BUTTON_SetBmpFileName(NumberKey_4.btnHandle, NULL,1);        
        MOVS     R1,#+0
        MOVS     R2,#+1
        LDRSH    R0,[R7, R1]
          CFI FunCall BUTTON_SetBmpFileName
        BL       BUTTON_SetBmpFileName
//  963     BUTTON_SetBmpFileName(NumberKey_5.btnHandle, NULL,1);
        LDRSH    R0,[R7, #+24]
        MOVS     R2,#+1
        MOVS     R1,#+0
          CFI FunCall BUTTON_SetBmpFileName
        BL       BUTTON_SetBmpFileName
//  964     BUTTON_SetBmpFileName(NumberKey_6.btnHandle, NULL,1);  
        LDRSH    R0,[R8, #+0]
        MOVS     R2,#+1
        MOVS     R1,#+0
          CFI FunCall BUTTON_SetBmpFileName
        BL       BUTTON_SetBmpFileName
//  965 
//  966     BUTTON_SetBmpFileName(NumberKey_7.btnHandle, NULL,1);        
        LDRSH    R0,[R8, #+24]
        MOVS     R2,#+1
        MOVS     R1,#+0
          CFI FunCall BUTTON_SetBmpFileName
        BL       BUTTON_SetBmpFileName
//  967     BUTTON_SetBmpFileName(NumberKey_8.btnHandle, NULL,1);
        LDRSH    R0,[R10, #+0]
        MOVS     R2,#+1
        MOVS     R1,#+0
          CFI FunCall BUTTON_SetBmpFileName
        BL       BUTTON_SetBmpFileName
//  968     BUTTON_SetBmpFileName(NumberKey_9.btnHandle, NULL,1);  
        LDRSH    R0,[R10, #+24]
        MOVS     R2,#+1
        MOVS     R1,#+0
          CFI FunCall BUTTON_SetBmpFileName
        BL       BUTTON_SetBmpFileName
//  969 
//  970     BUTTON_SetBmpFileName(NumberKey_0.btnHandle, NULL,1);  
        LDRSH    R0,[R11, #+0]
        MOVS     R2,#+1
        MOVS     R1,#+0
          CFI FunCall BUTTON_SetBmpFileName
        BL       BUTTON_SetBmpFileName
//  971 	BUTTON_SetBmpFileName(Nagetive.btnHandle, NULL,1);
        LDRSH    R0,[R6, #+24]
        MOVS     R2,#+1
        MOVS     R1,#+0
          CFI FunCall BUTTON_SetBmpFileName
        BL       BUTTON_SetBmpFileName
//  972 	
//  973     BUTTON_SetBmpFileName(KeyPoint.btnHandle, NULL,1);
        LDRSH    R0,[R11, #+24]
        MOVS     R2,#+1
        MOVS     R1,#+0
          CFI FunCall BUTTON_SetBmpFileName
        BL       BUTTON_SetBmpFileName
//  974     BUTTON_SetBmpFileName(KeyConfirm.btnHandle, NULL,1);  
        LDRSH    R0,[R9, #+0]
        MOVS     R2,#+1
        MOVS     R1,#+0
          CFI FunCall BUTTON_SetBmpFileName
        BL       BUTTON_SetBmpFileName
//  975 
//  976     BUTTON_SetBmpFileName(KeyReset.btnHandle, NULL,1);
        LDRSH    R0,[R9, #+24]
        MOVS     R2,#+1
        MOVS     R1,#+0
          CFI FunCall BUTTON_SetBmpFileName
        BL       BUTTON_SetBmpFileName
//  977     BUTTON_SetBmpFileName(KeyBack.btnHandle, NULL,1);
        MOVS     R1,#+0
        MOVS     R2,#+1
        LDRSH    R0,[R6, R1]
          CFI FunCall BUTTON_SetBmpFileName
        BL       BUTTON_SetBmpFileName
//  978     #endif
//  979     
//  980     BUTTON_SetTextAlign(NumberKey_1.btnHandle,GUI_TA_HCENTER|GUI_TA_VCENTER );
        LDRSH    R0,[R5, #+20]
        MOVS     R1,#+14
          CFI FunCall BUTTON_SetTextAlign
        BL       BUTTON_SetTextAlign
//  981     BUTTON_SetTextAlign(NumberKey_2.btnHandle,GUI_TA_HCENTER|GUI_TA_VCENTER );
        LDR.W    R0,??DataTable7_22
        LDRSH    R0,[R0, #+0]
        MOVS     R1,#+14
          CFI FunCall BUTTON_SetTextAlign
        BL       BUTTON_SetTextAlign
//  982     BUTTON_SetTextAlign(NumberKey_3.btnHandle,GUI_TA_HCENTER|GUI_TA_VCENTER );
        LDR.W    R0,??DataTable7_22
        LDRSH    R0,[R0, #+24]
        MOVS     R1,#+14
          CFI FunCall BUTTON_SetTextAlign
        BL       BUTTON_SetTextAlign
//  983     BUTTON_SetTextAlign(NumberKey_4.btnHandle,GUI_TA_HCENTER|GUI_TA_VCENTER );
        LDRSH    R0,[R7, #+0]
        MOVS     R1,#+14
          CFI FunCall BUTTON_SetTextAlign
        BL       BUTTON_SetTextAlign
//  984     BUTTON_SetTextAlign(NumberKey_5.btnHandle,GUI_TA_HCENTER|GUI_TA_VCENTER );
        LDRSH    R0,[R7, #+24]
        MOVS     R1,#+14
          CFI FunCall BUTTON_SetTextAlign
        BL       BUTTON_SetTextAlign
//  985     BUTTON_SetTextAlign(NumberKey_6.btnHandle,GUI_TA_HCENTER|GUI_TA_VCENTER );
        LDRSH    R0,[R8, #+0]
        MOVS     R1,#+14
          CFI FunCall BUTTON_SetTextAlign
        BL       BUTTON_SetTextAlign
//  986     BUTTON_SetTextAlign(NumberKey_7.btnHandle,GUI_TA_HCENTER|GUI_TA_VCENTER );
        LDRSH    R0,[R8, #+24]
        MOVS     R1,#+14
          CFI FunCall BUTTON_SetTextAlign
        BL       BUTTON_SetTextAlign
//  987     BUTTON_SetTextAlign(NumberKey_8.btnHandle,GUI_TA_HCENTER|GUI_TA_VCENTER );
        LDRSH    R0,[R10, #+0]
        MOVS     R1,#+14
          CFI FunCall BUTTON_SetTextAlign
        BL       BUTTON_SetTextAlign
//  988     BUTTON_SetTextAlign(NumberKey_9.btnHandle,GUI_TA_HCENTER|GUI_TA_VCENTER );
        LDRSH    R0,[R10, #+24]
        MOVS     R1,#+14
          CFI FunCall BUTTON_SetTextAlign
        BL       BUTTON_SetTextAlign
//  989     BUTTON_SetTextAlign(NumberKey_0.btnHandle,GUI_TA_HCENTER|GUI_TA_VCENTER );
        LDRSH    R0,[R11, #+0]
        MOVS     R1,#+14
          CFI FunCall BUTTON_SetTextAlign
        BL       BUTTON_SetTextAlign
//  990     BUTTON_SetTextAlign(KeyPoint.btnHandle,GUI_TA_HCENTER|GUI_TA_VCENTER );
        LDRSH    R0,[R11, #+24]
        MOVS     R1,#+14
          CFI FunCall BUTTON_SetTextAlign
        BL       BUTTON_SetTextAlign
//  991     BUTTON_SetTextAlign(KeyBack.btnHandle,GUI_TA_HCENTER|GUI_TA_VCENTER );    
        LDRSH    R0,[R6, #+0]
        MOVS     R1,#+14
          CFI FunCall BUTTON_SetTextAlign
        BL       BUTTON_SetTextAlign
//  992     BUTTON_SetTextAlign(KeyReset.btnHandle,GUI_TA_HCENTER|GUI_TA_VCENTER );
        LDRSH    R0,[R9, #+24]
        MOVS     R1,#+14
          CFI FunCall BUTTON_SetTextAlign
        BL       BUTTON_SetTextAlign
//  993     BUTTON_SetTextAlign(KeyConfirm.btnHandle,GUI_TA_HCENTER|GUI_TA_VCENTER ); 
        LDRSH    R0,[R9, #+0]
        MOVS     R1,#+14
          CFI FunCall BUTTON_SetTextAlign
        BL       BUTTON_SetTextAlign
//  994 	BUTTON_SetTextAlign(Nagetive.btnHandle,GUI_TA_HCENTER|GUI_TA_VCENTER );
        LDRSH    R0,[R6, #+24]
        MOVS     R1,#+14
          CFI FunCall BUTTON_SetTextAlign
        BL       BUTTON_SetTextAlign
//  995 	
//  996     
//  997     //BUTTON_SetTextAlign(KeyValue.btnHandle,GUI_TA_LEFT|GUI_TA_VCENTER ); 
//  998     TEXT_SetBkColor(textKeyNumb,GUI_WHITE);
        LDRSH    R0,[R5, #+18]
        MVN      R1,#-16777216
          CFI FunCall TEXT_SetBkColor
        BL       TEXT_SetBkColor
//  999     TEXT_SetTextColor(textKeyNumb,GUI_BLACK);
        LDRSH    R0,[R5, #+18]
        MOVS     R1,#+0
          CFI FunCall TEXT_SetTextColor
        BL       TEXT_SetTextColor
// 1000     TEXT_SetTextAlign(textKeyNumb,GUI_TA_VCENTER | GUI_TA_HCENTER);
        LDRSH    R0,[R5, #+18]
        MOVS     R1,#+14
          CFI FunCall TEXT_SetTextAlign
        BL       TEXT_SetTextAlign
// 1001 
// 1002     BUTTON_SetBkColor(NumberKey_1.btnHandle, BUTTON_CI_PRESSED, gCfgItems.back_btn_color);
        LDR      R2,[R4, #+56]
        LDRSH    R0,[R5, #+20]
        MOVS     R1,#+1
          CFI FunCall BUTTON_SetBkColor
        BL       BUTTON_SetBkColor
// 1003     BUTTON_SetBkColor(NumberKey_1.btnHandle, BUTTON_CI_UNPRESSED, gCfgItems.back_btn_color); 
        LDR      R2,[R4, #+56]
        LDRSH    R0,[R5, #+20]
        MOVS     R1,#+0
          CFI FunCall BUTTON_SetBkColor
        BL       BUTTON_SetBkColor
// 1004     BUTTON_SetTextColor(NumberKey_1.btnHandle, BUTTON_CI_PRESSED, gCfgItems.back_btn_textcolor);
        LDR      R2,[R4, #+60]
        LDRSH    R0,[R5, #+20]
        MOVS     R1,#+1
          CFI FunCall BUTTON_SetTextColor
        BL       BUTTON_SetTextColor
// 1005     BUTTON_SetTextColor(NumberKey_1.btnHandle, BUTTON_CI_UNPRESSED, gCfgItems.back_btn_textcolor); 
        LDR      R2,[R4, #+60]
        LDRSH    R0,[R5, #+20]
        MOVS     R1,#+0
          CFI FunCall BUTTON_SetTextColor
        BL       BUTTON_SetTextColor
// 1006 
// 1007     BUTTON_SetBkColor(NumberKey_2.btnHandle, BUTTON_CI_PRESSED, gCfgItems.back_btn_color);
        LDR.W    R0,??DataTable7_22
        LDR      R2,[R4, #+56]
        LDRSH    R0,[R0, #+0]
        MOVS     R1,#+1
          CFI FunCall BUTTON_SetBkColor
        BL       BUTTON_SetBkColor
// 1008     BUTTON_SetBkColor(NumberKey_2.btnHandle, BUTTON_CI_UNPRESSED, gCfgItems.back_btn_color); 
        MOVS     R1,#+0
        LDR.W    R0,??DataTable7_22
        LDR      R2,[R4, #+56]
        LDRSH    R0,[R0, R1]
          CFI FunCall BUTTON_SetBkColor
        BL       BUTTON_SetBkColor
// 1009     BUTTON_SetTextColor(NumberKey_2.btnHandle, BUTTON_CI_PRESSED, gCfgItems.back_btn_textcolor);
        LDR.N    R0,??DataTable7_22
        LDR      R2,[R4, #+60]
        LDRSH    R0,[R0, #+0]
        MOVS     R1,#+1
          CFI FunCall BUTTON_SetTextColor
        BL       BUTTON_SetTextColor
// 1010     BUTTON_SetTextColor(NumberKey_2.btnHandle, BUTTON_CI_UNPRESSED, gCfgItems.back_btn_textcolor); 
        MOVS     R1,#+0
        LDR.N    R0,??DataTable7_22
        LDR      R2,[R4, #+60]
        LDRSH    R0,[R0, R1]
          CFI FunCall BUTTON_SetTextColor
        BL       BUTTON_SetTextColor
// 1011 
// 1012     BUTTON_SetBkColor(NumberKey_3.btnHandle, BUTTON_CI_PRESSED, gCfgItems.back_btn_color);
        LDR.N    R0,??DataTable7_22
        LDR      R2,[R4, #+56]
        LDRSH    R0,[R0, #+24]
        MOVS     R1,#+1
          CFI FunCall BUTTON_SetBkColor
        BL       BUTTON_SetBkColor
// 1013     BUTTON_SetBkColor(NumberKey_3.btnHandle, BUTTON_CI_UNPRESSED, gCfgItems.back_btn_color); 
        LDR.N    R0,??DataTable7_22
        LDR      R2,[R4, #+56]
        LDRSH    R0,[R0, #+24]
        MOVS     R1,#+0
          CFI FunCall BUTTON_SetBkColor
        BL       BUTTON_SetBkColor
// 1014     BUTTON_SetTextColor(NumberKey_3.btnHandle, BUTTON_CI_PRESSED, gCfgItems.back_btn_textcolor);
        LDR.N    R0,??DataTable7_22
        LDR      R2,[R4, #+60]
        LDRSH    R0,[R0, #+24]
        MOVS     R1,#+1
          CFI FunCall BUTTON_SetTextColor
        BL       BUTTON_SetTextColor
// 1015     BUTTON_SetTextColor(NumberKey_3.btnHandle, BUTTON_CI_UNPRESSED, gCfgItems.back_btn_textcolor); 
        LDR.N    R0,??DataTable7_22
        LDR      R2,[R4, #+60]
        LDRSH    R0,[R0, #+24]
        MOVS     R1,#+0
          CFI FunCall BUTTON_SetTextColor
        BL       BUTTON_SetTextColor
// 1016 
// 1017     BUTTON_SetBkColor(NumberKey_4.btnHandle, BUTTON_CI_PRESSED, gCfgItems.back_btn_color);
        LDR      R2,[R4, #+56]
        LDRSH    R0,[R7, #+0]
        MOVS     R1,#+1
          CFI FunCall BUTTON_SetBkColor
        BL       BUTTON_SetBkColor
// 1018     BUTTON_SetBkColor(NumberKey_4.btnHandle, BUTTON_CI_UNPRESSED, gCfgItems.back_btn_color); 
        MOVS     R1,#+0
        LDR      R2,[R4, #+56]
        LDRSH    R0,[R7, R1]
          CFI FunCall BUTTON_SetBkColor
        BL       BUTTON_SetBkColor
// 1019     BUTTON_SetTextColor(NumberKey_4.btnHandle, BUTTON_CI_PRESSED, gCfgItems.back_btn_textcolor);
        LDR      R2,[R4, #+60]
        LDRSH    R0,[R7, #+0]
        MOVS     R1,#+1
          CFI FunCall BUTTON_SetTextColor
        BL       BUTTON_SetTextColor
// 1020     BUTTON_SetTextColor(NumberKey_4.btnHandle, BUTTON_CI_UNPRESSED, gCfgItems.back_btn_textcolor); 
        MOVS     R1,#+0
        LDR      R2,[R4, #+60]
        LDRSH    R0,[R7, R1]
          CFI FunCall BUTTON_SetTextColor
        BL       BUTTON_SetTextColor
// 1021 
// 1022     BUTTON_SetBkColor(NumberKey_5.btnHandle, BUTTON_CI_PRESSED, gCfgItems.back_btn_color);
        LDR      R2,[R4, #+56]
        LDRSH    R0,[R7, #+24]
        MOVS     R1,#+1
          CFI FunCall BUTTON_SetBkColor
        BL       BUTTON_SetBkColor
// 1023     BUTTON_SetBkColor(NumberKey_5.btnHandle, BUTTON_CI_UNPRESSED, gCfgItems.back_btn_color); 
        LDR      R2,[R4, #+56]
        LDRSH    R0,[R7, #+24]
        MOVS     R1,#+0
          CFI FunCall BUTTON_SetBkColor
        BL       BUTTON_SetBkColor
// 1024     BUTTON_SetTextColor(NumberKey_5.btnHandle, BUTTON_CI_PRESSED, gCfgItems.back_btn_textcolor);
        LDR      R2,[R4, #+60]
        LDRSH    R0,[R7, #+24]
        MOVS     R1,#+1
          CFI FunCall BUTTON_SetTextColor
        BL       BUTTON_SetTextColor
// 1025     BUTTON_SetTextColor(NumberKey_5.btnHandle, BUTTON_CI_UNPRESSED, gCfgItems.back_btn_textcolor); 
        LDR      R2,[R4, #+60]
        LDRSH    R0,[R7, #+24]
        MOVS     R1,#+0
          CFI FunCall BUTTON_SetTextColor
        BL       BUTTON_SetTextColor
// 1026 
// 1027     BUTTON_SetBkColor(NumberKey_6.btnHandle, BUTTON_CI_PRESSED, gCfgItems.back_btn_color);
        LDR      R2,[R4, #+56]
        LDRSH    R0,[R8, #+0]
        MOVS     R1,#+1
          CFI FunCall BUTTON_SetBkColor
        BL       BUTTON_SetBkColor
// 1028     BUTTON_SetBkColor(NumberKey_6.btnHandle, BUTTON_CI_UNPRESSED, gCfgItems.back_btn_color); 
        LDR      R2,[R4, #+56]
        LDRSH    R0,[R8, #+0]
        MOVS     R1,#+0
          CFI FunCall BUTTON_SetBkColor
        BL       BUTTON_SetBkColor
// 1029     BUTTON_SetTextColor(NumberKey_7.btnHandle, BUTTON_CI_PRESSED, gCfgItems.back_btn_textcolor);
        LDR      R2,[R4, #+60]
        LDRSH    R0,[R8, #+24]
        MOVS     R1,#+1
          CFI FunCall BUTTON_SetTextColor
        BL       BUTTON_SetTextColor
// 1030     BUTTON_SetTextColor(NumberKey_7.btnHandle, BUTTON_CI_UNPRESSED, gCfgItems.back_btn_textcolor); 
        LDR      R2,[R4, #+60]
        LDRSH    R0,[R8, #+24]
        MOVS     R1,#+0
          CFI FunCall BUTTON_SetTextColor
        BL       BUTTON_SetTextColor
// 1031 
// 1032     BUTTON_SetBkColor(NumberKey_7.btnHandle, BUTTON_CI_PRESSED, gCfgItems.back_btn_color);
        LDR      R2,[R4, #+56]
        LDRSH    R0,[R8, #+24]
        MOVS     R1,#+1
          CFI FunCall BUTTON_SetBkColor
        BL       BUTTON_SetBkColor
// 1033     BUTTON_SetBkColor(NumberKey_7.btnHandle, BUTTON_CI_UNPRESSED, gCfgItems.back_btn_color); 
        LDR      R2,[R4, #+56]
        LDRSH    R0,[R8, #+24]
        MOVS     R1,#+0
          CFI FunCall BUTTON_SetBkColor
        BL       BUTTON_SetBkColor
// 1034     BUTTON_SetTextColor(NumberKey_7.btnHandle, BUTTON_CI_PRESSED, gCfgItems.back_btn_textcolor);
        LDR      R2,[R4, #+60]
        LDRSH    R0,[R8, #+24]
        MOVS     R1,#+1
          CFI FunCall BUTTON_SetTextColor
        BL       BUTTON_SetTextColor
// 1035     BUTTON_SetTextColor(NumberKey_7.btnHandle, BUTTON_CI_UNPRESSED, gCfgItems.back_btn_textcolor); 
        LDR      R2,[R4, #+60]
        LDRSH    R0,[R8, #+24]
        MOVS     R1,#+0
          CFI FunCall BUTTON_SetTextColor
        BL       BUTTON_SetTextColor
// 1036 
// 1037     BUTTON_SetBkColor(NumberKey_8.btnHandle, BUTTON_CI_PRESSED, gCfgItems.back_btn_color);
        LDR      R2,[R4, #+56]
        LDRSH    R0,[R10, #+0]
        MOVS     R1,#+1
          CFI FunCall BUTTON_SetBkColor
        BL       BUTTON_SetBkColor
// 1038     BUTTON_SetBkColor(NumberKey_8.btnHandle, BUTTON_CI_UNPRESSED, gCfgItems.back_btn_color); 
        LDR      R2,[R4, #+56]
        LDRSH    R0,[R10, #+0]
        MOVS     R1,#+0
          CFI FunCall BUTTON_SetBkColor
        BL       BUTTON_SetBkColor
// 1039     BUTTON_SetTextColor(NumberKey_8.btnHandle, BUTTON_CI_PRESSED, gCfgItems.back_btn_textcolor);
        LDR      R2,[R4, #+60]
        LDRSH    R0,[R10, #+0]
        MOVS     R1,#+1
          CFI FunCall BUTTON_SetTextColor
        BL       BUTTON_SetTextColor
// 1040     BUTTON_SetTextColor(NumberKey_8.btnHandle, BUTTON_CI_UNPRESSED, gCfgItems.back_btn_textcolor); 
        LDR      R2,[R4, #+60]
        LDRSH    R0,[R10, #+0]
        MOVS     R1,#+0
          CFI FunCall BUTTON_SetTextColor
        BL       BUTTON_SetTextColor
// 1041 
// 1042     BUTTON_SetBkColor(NumberKey_9.btnHandle, BUTTON_CI_PRESSED, gCfgItems.back_btn_color);
        LDR      R2,[R4, #+56]
        LDRSH    R0,[R10, #+24]
        MOVS     R1,#+1
          CFI FunCall BUTTON_SetBkColor
        BL       BUTTON_SetBkColor
// 1043     BUTTON_SetBkColor(NumberKey_9.btnHandle, BUTTON_CI_UNPRESSED, gCfgItems.back_btn_color); 
        LDR      R2,[R4, #+56]
        LDRSH    R0,[R10, #+24]
        MOVS     R1,#+0
          CFI FunCall BUTTON_SetBkColor
        BL       BUTTON_SetBkColor
// 1044     BUTTON_SetTextColor(NumberKey_9.btnHandle, BUTTON_CI_PRESSED, gCfgItems.back_btn_textcolor);
        LDR      R2,[R4, #+60]
        LDRSH    R0,[R10, #+24]
        MOVS     R1,#+1
          CFI FunCall BUTTON_SetTextColor
        BL       BUTTON_SetTextColor
// 1045     BUTTON_SetTextColor(NumberKey_9.btnHandle, BUTTON_CI_UNPRESSED, gCfgItems.back_btn_textcolor); 
        LDR      R2,[R4, #+60]
        LDRSH    R0,[R10, #+24]
        MOVS     R1,#+0
          CFI FunCall BUTTON_SetTextColor
        BL       BUTTON_SetTextColor
// 1046 
// 1047     BUTTON_SetBkColor(NumberKey_0.btnHandle, BUTTON_CI_PRESSED, gCfgItems.back_btn_color);
        LDR      R2,[R4, #+56]
        LDRSH    R0,[R11, #+0]
        MOVS     R1,#+1
          CFI FunCall BUTTON_SetBkColor
        BL       BUTTON_SetBkColor
// 1048     BUTTON_SetBkColor(NumberKey_0.btnHandle, BUTTON_CI_UNPRESSED, gCfgItems.back_btn_color); 
        LDR      R2,[R4, #+56]
        LDRSH    R0,[R11, #+0]
        MOVS     R1,#+0
          CFI FunCall BUTTON_SetBkColor
        BL       BUTTON_SetBkColor
// 1049     BUTTON_SetTextColor(NumberKey_0.btnHandle, BUTTON_CI_PRESSED, gCfgItems.back_btn_textcolor);
        LDR      R2,[R4, #+60]
        LDRSH    R0,[R11, #+0]
        MOVS     R1,#+1
          CFI FunCall BUTTON_SetTextColor
        BL       BUTTON_SetTextColor
// 1050     BUTTON_SetTextColor(NumberKey_0.btnHandle, BUTTON_CI_UNPRESSED, gCfgItems.back_btn_textcolor); 
        LDR      R2,[R4, #+60]
        LDRSH    R0,[R11, #+0]
        MOVS     R1,#+0
          CFI FunCall BUTTON_SetTextColor
        BL       BUTTON_SetTextColor
// 1051 
// 1052 	BUTTON_SetBkColor(Nagetive.btnHandle, BUTTON_CI_PRESSED, gCfgItems.back_btn_color);
        LDR      R2,[R4, #+56]
        LDRSH    R0,[R6, #+24]
        MOVS     R1,#+1
          CFI FunCall BUTTON_SetBkColor
        BL       BUTTON_SetBkColor
// 1053     BUTTON_SetBkColor(Nagetive.btnHandle, BUTTON_CI_UNPRESSED, gCfgItems.back_btn_color); 
        LDR      R2,[R4, #+56]
        LDRSH    R0,[R6, #+24]
        MOVS     R1,#+0
          CFI FunCall BUTTON_SetBkColor
        BL       BUTTON_SetBkColor
// 1054     BUTTON_SetTextColor(Nagetive.btnHandle, BUTTON_CI_PRESSED, gCfgItems.back_btn_textcolor);
        LDR      R2,[R4, #+60]
        LDRSH    R0,[R6, #+24]
        MOVS     R1,#+1
          CFI FunCall BUTTON_SetTextColor
        BL       BUTTON_SetTextColor
// 1055     BUTTON_SetTextColor(Nagetive.btnHandle, BUTTON_CI_UNPRESSED, gCfgItems.back_btn_textcolor); 
        LDR      R2,[R4, #+60]
        LDRSH    R0,[R6, #+24]
        MOVS     R1,#+0
          CFI FunCall BUTTON_SetTextColor
        BL       BUTTON_SetTextColor
// 1056 
// 1057     BUTTON_SetBkColor(KeyPoint.btnHandle, BUTTON_CI_PRESSED, gCfgItems.back_btn_color);
        LDR      R2,[R4, #+56]
        LDRSH    R0,[R11, #+24]
        MOVS     R1,#+1
          CFI FunCall BUTTON_SetBkColor
        BL       BUTTON_SetBkColor
// 1058     BUTTON_SetBkColor(KeyPoint.btnHandle, BUTTON_CI_UNPRESSED, gCfgItems.back_btn_color); 
        LDR      R2,[R4, #+56]
        LDRSH    R0,[R11, #+24]
        MOVS     R1,#+0
          CFI FunCall BUTTON_SetBkColor
        BL       BUTTON_SetBkColor
// 1059     BUTTON_SetTextColor(KeyPoint.btnHandle, BUTTON_CI_PRESSED, gCfgItems.back_btn_textcolor);
        LDR      R2,[R4, #+60]
        LDRSH    R0,[R11, #+24]
        MOVS     R1,#+1
          CFI FunCall BUTTON_SetTextColor
        BL       BUTTON_SetTextColor
// 1060     BUTTON_SetTextColor(KeyPoint.btnHandle, BUTTON_CI_UNPRESSED, gCfgItems.back_btn_textcolor); 
        LDR      R2,[R4, #+60]
        LDRSH    R0,[R11, #+24]
        MOVS     R1,#+0
          CFI FunCall BUTTON_SetTextColor
        BL       BUTTON_SetTextColor
// 1061 
// 1062     BUTTON_SetBkColor(KeyBack.btnHandle, BUTTON_CI_PRESSED, gCfgItems.back_btn_color);
        LDR      R2,[R4, #+56]
        LDRSH    R0,[R6, #+0]
        MOVS     R1,#+1
          CFI FunCall BUTTON_SetBkColor
        BL       BUTTON_SetBkColor
// 1063     BUTTON_SetBkColor(KeyBack.btnHandle, BUTTON_CI_UNPRESSED, gCfgItems.back_btn_color); 
        MOVS     R1,#+0
        LDR      R2,[R4, #+56]
        LDRSH    R0,[R6, R1]
          CFI FunCall BUTTON_SetBkColor
        BL       BUTTON_SetBkColor
// 1064     BUTTON_SetTextColor(KeyBack.btnHandle, BUTTON_CI_PRESSED, gCfgItems.back_btn_textcolor);
        LDR      R2,[R4, #+60]
        LDRSH    R0,[R6, #+0]
        MOVS     R1,#+1
          CFI FunCall BUTTON_SetTextColor
        BL       BUTTON_SetTextColor
// 1065     BUTTON_SetTextColor(KeyBack.btnHandle, BUTTON_CI_UNPRESSED, gCfgItems.back_btn_textcolor); 
        MOVS     R1,#+0
        LDR      R2,[R4, #+60]
        LDRSH    R0,[R6, R1]
          CFI FunCall BUTTON_SetTextColor
        BL       BUTTON_SetTextColor
// 1066 
// 1067     BUTTON_SetBkColor(KeyReset.btnHandle, BUTTON_CI_PRESSED, gCfgItems.back_btn_color);
        LDR      R2,[R4, #+56]
        LDRSH    R0,[R9, #+24]
        MOVS     R1,#+1
          CFI FunCall BUTTON_SetBkColor
        BL       BUTTON_SetBkColor
// 1068     BUTTON_SetBkColor(KeyReset.btnHandle, BUTTON_CI_UNPRESSED, gCfgItems.back_btn_color); 
        LDR      R2,[R4, #+56]
        LDRSH    R0,[R9, #+24]
        MOVS     R1,#+0
          CFI FunCall BUTTON_SetBkColor
        BL       BUTTON_SetBkColor
// 1069     BUTTON_SetTextColor(KeyReset.btnHandle, BUTTON_CI_PRESSED, gCfgItems.back_btn_textcolor);
        LDR      R2,[R4, #+60]
        LDRSH    R0,[R9, #+24]
        MOVS     R1,#+1
          CFI FunCall BUTTON_SetTextColor
        BL       BUTTON_SetTextColor
// 1070     BUTTON_SetTextColor(KeyReset.btnHandle, BUTTON_CI_UNPRESSED, gCfgItems.back_btn_textcolor); 
        LDR      R2,[R4, #+60]
        LDRSH    R0,[R9, #+24]
        MOVS     R1,#+0
          CFI FunCall BUTTON_SetTextColor
        BL       BUTTON_SetTextColor
// 1071 
// 1072     BUTTON_SetBkColor(KeyConfirm.btnHandle, BUTTON_CI_PRESSED, gCfgItems.back_btn_color);
        LDR      R2,[R4, #+56]
        LDRSH    R0,[R9, #+0]
        MOVS     R1,#+1
          CFI FunCall BUTTON_SetBkColor
        BL       BUTTON_SetBkColor
// 1073     BUTTON_SetBkColor(KeyConfirm.btnHandle, BUTTON_CI_UNPRESSED, gCfgItems.back_btn_color); 
        LDR      R2,[R4, #+56]
        LDRSH    R0,[R9, #+0]
        MOVS     R1,#+0
          CFI FunCall BUTTON_SetBkColor
        BL       BUTTON_SetBkColor
// 1074     BUTTON_SetTextColor(KeyConfirm.btnHandle, BUTTON_CI_PRESSED, gCfgItems.back_btn_textcolor);
        LDR      R2,[R4, #+60]
        LDRSH    R0,[R9, #+0]
        MOVS     R1,#+1
          CFI FunCall BUTTON_SetTextColor
        BL       BUTTON_SetTextColor
// 1075     BUTTON_SetTextColor(KeyConfirm.btnHandle, BUTTON_CI_UNPRESSED, gCfgItems.back_btn_textcolor); 
        LDR      R2,[R4, #+60]
        LDRSH    R0,[R9, #+0]
        MOVS     R1,#+0
          CFI FunCall BUTTON_SetTextColor
        BL       BUTTON_SetTextColor
// 1076 
// 1077     if(gCfgItems.multiple_language != 0)
        LDR.N    R0,??DataTable7_19
        LDRB     R0,[R0, #+463]
        CMP      R0,#+0
        BEQ.N    ??draw_NumberKey_3
// 1078     {
// 1079         BUTTON_SetText(NumberKey_1.btnHandle, machine_menu.key_1);
        LDR.N    R4,??DataTable7_29
        LDRSH    R0,[R5, #+20]
        LDR      R1,[R4, #+588]
          CFI FunCall BUTTON_SetText
        BL       BUTTON_SetText
// 1080         BUTTON_SetText(NumberKey_2.btnHandle, machine_menu.key_2);
        LDR.N    R0,??DataTable7_22
        LDRSH    R0,[R0, #+0]
        ADD      R4,R4,#+588
        LDR      R1,[R4, #+4]
          CFI FunCall BUTTON_SetText
        BL       BUTTON_SetText
// 1081         BUTTON_SetText(NumberKey_3.btnHandle, machine_menu.key_3); 
        LDR.N    R0,??DataTable7_22
        LDR      R1,[R4, #+8]
        LDRSH    R0,[R0, #+24]
          CFI FunCall BUTTON_SetText
        BL       BUTTON_SetText
// 1082         BUTTON_SetText(NumberKey_4.btnHandle, machine_menu.key_4);
        LDR      R1,[R4, #+12]
        LDRSH    R0,[R7, #+0]
          CFI FunCall BUTTON_SetText
        BL       BUTTON_SetText
// 1083         BUTTON_SetText(NumberKey_5.btnHandle, machine_menu.key_5);
        LDR      R1,[R4, #+16]
        LDRSH    R0,[R7, #+24]
          CFI FunCall BUTTON_SetText
        BL       BUTTON_SetText
// 1084         BUTTON_SetText(NumberKey_6.btnHandle, machine_menu.key_6); 
        LDR      R1,[R4, #+20]
        LDRSH    R0,[R8, #+0]
          CFI FunCall BUTTON_SetText
        BL       BUTTON_SetText
// 1085         BUTTON_SetText(NumberKey_7.btnHandle, machine_menu.key_7);
        LDR      R1,[R4, #+24]
        LDRSH    R0,[R8, #+24]
          CFI FunCall BUTTON_SetText
        BL       BUTTON_SetText
// 1086         BUTTON_SetText(NumberKey_8.btnHandle, machine_menu.key_8);
        LDR      R1,[R4, #+28]
        LDRSH    R0,[R10, #+0]
          CFI FunCall BUTTON_SetText
        BL       BUTTON_SetText
// 1087         BUTTON_SetText(NumberKey_9.btnHandle, machine_menu.key_9); 
        LDR      R1,[R4, #+32]
        LDRSH    R0,[R10, #+24]
          CFI FunCall BUTTON_SetText
        BL       BUTTON_SetText
// 1088         BUTTON_SetText(NumberKey_0.btnHandle, machine_menu.key_0);
        LDR      R1,[R4, #+36]
        LDRSH    R0,[R11, #+0]
          CFI FunCall BUTTON_SetText
        BL       BUTTON_SetText
// 1089 	 BUTTON_SetText(Nagetive.btnHandle, machine_menu.negative);
        LDR      R1,[R4, #+56]
        LDRSH    R0,[R6, #+24]
          CFI FunCall BUTTON_SetText
        BL       BUTTON_SetText
// 1090         BUTTON_SetText(KeyPoint.btnHandle, machine_menu.key_point);
        LDR      R1,[R4, #+40]
        LDRSH    R0,[R11, #+24]
          CFI FunCall BUTTON_SetText
        BL       BUTTON_SetText
// 1091         BUTTON_SetText(KeyBack.btnHandle, machine_menu.key_back);   
        LDR      R1,[R4, #+44]
        LDRSH    R0,[R6, #+0]
          CFI FunCall BUTTON_SetText
        BL       BUTTON_SetText
// 1092         BUTTON_SetText(KeyReset.btnHandle, machine_menu.key_rest);
        LDR      R1,[R4, #+48]
        LDRSH    R0,[R9, #+24]
          CFI FunCall BUTTON_SetText
        BL       BUTTON_SetText
// 1093         BUTTON_SetText(KeyConfirm.btnHandle, machine_menu.key_confirm);           
        LDR      R1,[R4, #+52]
        LDRSH    R0,[R9, #+0]
          CFI FunCall BUTTON_SetText
        BL       BUTTON_SetText
// 1094     }
// 1095     
// 1096     disp_value();
??draw_NumberKey_3:
        ADD      SP,SP,#+20
          CFI CFA R13+36
        POP      {R4-R11,LR}
          CFI R4 SameValue
          CFI R5 SameValue
          CFI R6 SameValue
          CFI R7 SameValue
          CFI R8 SameValue
          CFI R9 SameValue
          CFI R10 SameValue
          CFI R11 SameValue
          CFI R14 SameValue
          CFI CFA R13+0
          CFI FunCall _Z10disp_valuev
        B.W      _Z10disp_valuev
          CFI EndBlock cfiBlock4
// 1097 
// 1098 
// 1099 
// 1100 }

        SECTION `.text`:CODE:NOROOT(2)
        SECTION_TYPE SHT_PROGBITS, 0
        DATA
??DataTable6:
        DC32     zprobe_zoffset

        SECTION `.text`:CODE:NOROOT(2)
        SECTION_TYPE SHT_PROGBITS, 0
        DATA
??DataTable6_1:
        DC32     delta_radius

        SECTION `.text`:CODE:NOROOT(2)
        SECTION_TYPE SHT_PROGBITS, 0
        DATA
??DataTable6_2:
        DC32     delta_diagonal_rod
// 1101 

        SECTION `.text`:CODE:NOROOT(1)
          CFI Block cfiBlock5 Using cfiCommon0
          CFI Function Clear_NumberKey
        THUMB
// 1102 void Clear_NumberKey()
// 1103 {
Clear_NumberKey:
        PUSH     {R4,LR}
          CFI R14 Frame(CFA, -4)
          CFI R4 Frame(CFA, -8)
          CFI CFA R13+8
// 1104 	GUI_SetBkColor(gCfgItems.background_color);
        LDR.N    R0,??DataTable7_19
        LDR      R0,[R0, #+20]
          CFI FunCall GUI_SetBkColor
        BL       GUI_SetBkColor
// 1105 	if(WM_IsWindow(hNumberKeyWnd))
        LDR.N    R4,??DataTable7_16
        LDRSH    R0,[R4, #+16]
          CFI FunCall WM_IsWindow
        BL       WM_IsWindow
        CBZ.N    R0,??Clear_NumberKey_0
// 1106 	{
// 1107 		WM_DeleteWindow(hNumberKeyWnd);
        LDRSH    R0,[R4, #+16]
        POP      {R4,LR}
          CFI R4 SameValue
          CFI R14 SameValue
          CFI CFA R13+0
          CFI FunCall WM_DeleteWindow
        B.W      WM_DeleteWindow
          CFI R4 Frame(CFA, -8)
          CFI R14 Frame(CFA, -4)
          CFI CFA R13+8
// 1108 	}
// 1109 }
??Clear_NumberKey_0:
        POP      {R4,PC}          ;; return
          CFI EndBlock cfiBlock5

        SECTION `.text`:CODE:NOROOT(2)
        SECTION_TYPE SHT_PROGBITS, 0
        DATA
??DataTable7:
        DC32     delta_calibration_radius

        SECTION `.text`:CODE:NOROOT(2)
        SECTION_TYPE SHT_PROGBITS, 0
        DATA
??DataTable7_1:
        DC32     _ZN7Planner17max_feedrate_mm_sE

        SECTION `.text`:CODE:NOROOT(2)
        SECTION_TYPE SHT_PROGBITS, 0
        DATA
??DataTable7_2:
        DC32     _ZN7Planner12accelerationE

        SECTION `.text`:CODE:NOROOT(2)
        SECTION_TYPE SHT_PROGBITS, 0
        DATA
??DataTable7_3:
        DC32     _ZN7Planner20retract_accelerationE

        SECTION `.text`:CODE:NOROOT(2)
        SECTION_TYPE SHT_PROGBITS, 0
        DATA
??DataTable7_4:
        DC32     _ZN7Planner19travel_accelerationE

        SECTION `.text`:CODE:NOROOT(2)
        SECTION_TYPE SHT_PROGBITS, 0
        DATA
??DataTable7_5:
        DC32     _ZN7Planner26max_acceleration_mm_per_s2E

        SECTION `.text`:CODE:NOROOT(2)
        SECTION_TYPE SHT_PROGBITS, 0
        DATA
??DataTable7_6:
        DC32     _ZN7Planner8max_jerkE

        SECTION `.text`:CODE:NOROOT(2)
        SECTION_TYPE SHT_PROGBITS, 0
        DATA
??DataTable7_7:
        DC32     _ZN7Planner17axis_steps_per_mmE

        SECTION `.text`:CODE:NOROOT(2)
        SECTION_TYPE SHT_PROGBITS, 0
        DATA
??DataTable7_8:
        DC32     _ZN11Temperature2KpE

        SECTION `.text`:CODE:NOROOT(2)
        SECTION_TYPE SHT_PROGBITS, 0
        DATA
??DataTable7_9:
        DC32     _ZN11Temperature2KiE

        SECTION `.text`:CODE:NOROOT(2)
        SECTION_TYPE SHT_PROGBITS, 0
        DATA
??DataTable7_10:
        DC32     0x88e368f1

        SECTION `.text`:CODE:NOROOT(2)
        SECTION_TYPE SHT_PROGBITS, 0
        DATA
??DataTable7_11:
        DC32     0x3fc4f8b5

        SECTION `.text`:CODE:NOROOT(2)
        SECTION_TYPE SHT_PROGBITS, 0
        DATA
??DataTable7_12:
        DC32     _ZN11Temperature2KdE

        SECTION `.text`:CODE:NOROOT(2)
        SECTION_TYPE SHT_PROGBITS, 0
        DATA
??DataTable7_13:
        DC32     _ZN11Temperature5bedKpE

        SECTION `.text`:CODE:NOROOT(2)
        SECTION_TYPE SHT_PROGBITS, 0
        DATA
??DataTable7_14:
        DC32     _ZN11Temperature5bedKiE

        SECTION `.text`:CODE:NOROOT(2)
        SECTION_TYPE SHT_PROGBITS, 0
        DATA
??DataTable7_15:
        DC32     _ZN11Temperature5bedKdE

        SECTION `.text`:CODE:NOROOT(2)
        SECTION_TYPE SHT_PROGBITS, 0
        DATA
??DataTable7_16:
        DC32     cnt

        SECTION `.text`:CODE:NOROOT(2)
        SECTION_TYPE SHT_PROGBITS, 0
        DATA
??DataTable7_17:
        DC32     disp_state_stack

        SECTION `.text`:CODE:NOROOT(2)
        SECTION_TYPE SHT_PROGBITS, 0
        DATA
??DataTable7_18:
        DC32     disp_state

        SECTION `.text`:CODE:NOROOT(2)
        SECTION_TYPE SHT_PROGBITS, 0
        DATA
??DataTable7_19:
        DC32     gCfgItems

        SECTION `.text`:CODE:NOROOT(2)
        SECTION_TYPE SHT_PROGBITS, 0
        DATA
??DataTable7_20:
        DC32     gCfgItems+0x14

        SECTION `.text`:CODE:NOROOT(2)
        SECTION_TYPE SHT_PROGBITS, 0
        DATA
??DataTable7_21:
        DC32     _Z14cbNumberKeyWinP10WM_MESSAGE

        SECTION `.text`:CODE:NOROOT(2)
        SECTION_TYPE SHT_PROGBITS, 0
        DATA
??DataTable7_22:
        DC32     NumberKey_2

        SECTION `.text`:CODE:NOROOT(2)
        SECTION_TYPE SHT_PROGBITS, 0
        DATA
??DataTable7_23:
        DC32     KeyBack

        SECTION `.text`:CODE:NOROOT(2)
        SECTION_TYPE SHT_PROGBITS, 0
        DATA
??DataTable7_24:
        DC32     NumberKey_4

        SECTION `.text`:CODE:NOROOT(2)
        SECTION_TYPE SHT_PROGBITS, 0
        DATA
??DataTable7_25:
        DC32     NumberKey_6

        SECTION `.text`:CODE:NOROOT(2)
        SECTION_TYPE SHT_PROGBITS, 0
        DATA
??DataTable7_26:
        DC32     KeyConfirm

        SECTION `.text`:CODE:NOROOT(2)
        SECTION_TYPE SHT_PROGBITS, 0
        DATA
??DataTable7_27:
        DC32     NumberKey_8

        SECTION `.text`:CODE:NOROOT(2)
        SECTION_TYPE SHT_PROGBITS, 0
        DATA
??DataTable7_28:
        DC32     NumberKey_0

        SECTION `.text`:CODE:NOROOT(2)
        SECTION_TYPE SHT_PROGBITS, 0
        DATA
??DataTable7_29:
        DC32     machine_menu

        SECTION `.text`:CODE:NOROOT(2)
        SECTION_TYPE SHT_PROGBITS, 0
        DATA
`?<Constant "%.3f">`:
        DC8 "%.3f"
        DC8 0, 0, 0

        SECTION `.iar_vfe_header`:DATA:NOALLOC:NOROOT(2)
        SECTION_TYPE SHT_PROGBITS, 0
        DATA
        DC32 0

        SECTION __DLIB_PERTHREAD:DATA:REORDER:NOROOT(0)
        SECTION_TYPE SHT_PROGBITS, 0

        SECTION __DLIB_PERTHREAD_init:DATA:REORDER:NOROOT(0)
        SECTION_TYPE SHT_PROGBITS, 0

        SECTION `.rodata`:CONST:REORDER:NOROOT(0)
        SECTION_GROUP _ZTI5Print
// __absolute char const <Typeinfo for Print>
_ZTI5Print:
        DATA
        DC8 0

        SECTION `.rodata`:CONST:NOROOT(2)
        DATA
`?<Constant "%d">`:
        DC8 "%d"
        DC8 0

        SECTION `.rodata`:CONST:NOROOT(1)
        DATA
`?<Constant " ">`:
        DC8 " "

        END
// 1110 
// 1111 
// 1112 
// 1113 
// 1114 
// 1115 
// 
//   336 bytes in section .bss
//    44 bytes in section .data
//     7 bytes in section .rodata
// 7 560 bytes in section .text
// 
// 7 560 bytes of CODE  memory
//     6 bytes of CONST memory (+ 1 byte shared)
//   380 bytes of DATA  memory
//
//Errors: none
//Warnings: 44
