///////////////////////////////////////////////////////////////////////////////
//
// IAR ANSI C/C++ Compiler V7.10.1.6676/W32 for ARM       13/Apr/2020  09:24:22
// Copyright 1999-2014 IAR Systems AB.
//
//    Cpu mode     =  thumb
//    Endian       =  little
//    Source file  =  
//        D:\MKS-Robin-Nano-Firmware-v2.x.x\MKS-Robin-Nano-Firmware\User\ui\draw_mesh_leveling.cpp
//    Command line =  
//        D:\MKS-Robin-Nano-Firmware-v2.x.x\MKS-Robin-Nano-Firmware\User\ui\draw_mesh_leveling.cpp
//        -D USE_HAL_DRIVER -D STM32F103xE -D STM32F10X_HD -D USE_HAL_LIB -D
//        MKS_ROBIN_NANO -D TFT35 -lC
//        D:\MKS-Robin-Nano-Firmware-v2.x.x\MKS-Robin-Nano-Firmware\EWARM\mksRobinNano/List\
//        -lA
//        D:\MKS-Robin-Nano-Firmware-v2.x.x\MKS-Robin-Nano-Firmware\EWARM\mksRobinNano/List\
//        --diag_suppress Pa050 -o
//        D:\MKS-Robin-Nano-Firmware-v2.x.x\MKS-Robin-Nano-Firmware\EWARM\mksRobinNano/Obj\
//        --debug --endian=little --cpu=Cortex-M3 -e --char_is_signed
//        --fpu=None --dlib_config "C:\Program Files (x86)\IAR Systems\Embedded
//        Workbench 7.0\arm\INC\c\DLib_Config_Full.h" -I
//        D:\MKS-Robin-Nano-Firmware-v2.x.x\MKS-Robin-Nano-Firmware\EWARM/../Inc\
//        -I
//        D:\MKS-Robin-Nano-Firmware-v2.x.x\MKS-Robin-Nano-Firmware\EWARM/../Src\
//        -I
//        D:\MKS-Robin-Nano-Firmware-v2.x.x\MKS-Robin-Nano-Firmware\EWARM/../Drivers/STM32F1xx_HAL_Driver/Inc\
//        -I
//        D:\MKS-Robin-Nano-Firmware-v2.x.x\MKS-Robin-Nano-Firmware\EWARM/../Drivers/STM32F1xx_HAL_Driver/Inc/Legacy\
//        -I
//        D:\MKS-Robin-Nano-Firmware-v2.x.x\MKS-Robin-Nano-Firmware\EWARM/../Middlewares/Third_Party/FatFs/src/drivers\
//        -I
//        D:\MKS-Robin-Nano-Firmware-v2.x.x\MKS-Robin-Nano-Firmware\EWARM/../Middlewares/ST/STM32_USB_Host_Library/Core/Inc\
//        -I
//        D:\MKS-Robin-Nano-Firmware-v2.x.x\MKS-Robin-Nano-Firmware\EWARM/../Middlewares/ST/STM32_USB_Host_Library/Class/MSC/Inc\
//        -I
//        D:\MKS-Robin-Nano-Firmware-v2.x.x\MKS-Robin-Nano-Firmware\EWARM/../Drivers/CMSIS/Device/ST/STM32F1xx/Include\
//        -I
//        D:\MKS-Robin-Nano-Firmware-v2.x.x\MKS-Robin-Nano-Firmware\EWARM/../Middlewares/Third_Party/FatFs/src\
//        -I
//        D:\MKS-Robin-Nano-Firmware-v2.x.x\MKS-Robin-Nano-Firmware\EWARM/../Middlewares/Third_Party/Marlin\
//        -I
//        D:\MKS-Robin-Nano-Firmware-v2.x.x\MKS-Robin-Nano-Firmware\EWARM/../Drivers/CMSIS/Include\
//        -I
//        D:\MKS-Robin-Nano-Firmware-v2.x.x\MKS-Robin-Nano-Firmware\EWARM/../Drivers/BSP/variant\
//        -I
//        D:\MKS-Robin-Nano-Firmware-v2.x.x\MKS-Robin-Nano-Firmware\EWARM/../Drivers/BSP/Components/at24cxx\
//        -I
//        D:\MKS-Robin-Nano-Firmware-v2.x.x\MKS-Robin-Nano-Firmware\EWARM/../Drivers/BSP/Components/w25qxx\
//        -I
//        D:\MKS-Robin-Nano-Firmware-v2.x.x\MKS-Robin-Nano-Firmware\EWARM/../Drivers/BSP/Components/lcd\
//        -I
//        D:\MKS-Robin-Nano-Firmware-v2.x.x\MKS-Robin-Nano-Firmware\EWARM/../Drivers/STM32F10x_StdPeriph_Driver/inc\
//        -I
//        D:\MKS-Robin-Nano-Firmware-v2.x.x\MKS-Robin-Nano-Firmware\EWARM/../Drivers/libstmf4/include\
//        -I
//        D:\MKS-Robin-Nano-Firmware-v2.x.x\MKS-Robin-Nano-Firmware\EWARM/../Middlewares/arduino/stm32/cores/arduino\
//        -I
//        D:\MKS-Robin-Nano-Firmware-v2.x.x\MKS-Robin-Nano-Firmware\EWARM/../User/ui\
//        -I
//        D:\MKS-Robin-Nano-Firmware-v2.x.x\MKS-Robin-Nano-Firmware\EWARM/../User/ui/Multi_language\
//        -I
//        D:\MKS-Robin-Nano-Firmware-v2.x.x\MKS-Robin-Nano-Firmware\EWARM/../User/ui/QRENCODE\
//        -I
//        D:\MKS-Robin-Nano-Firmware-v2.x.x\MKS-Robin-Nano-Firmware\EWARM\..\Middlewares\GUI\
//        -Oh --eec++ -I "C:\Program Files (x86)\IAR Systems\Embedded Workbench
//        7.0\arm\CMSIS\Include\"
//    List file    =  
//        D:\MKS-Robin-Nano-Firmware-v2.x.x\MKS-Robin-Nano-Firmware\EWARM\mksRobinNano/List\draw_mesh_leveling.s
//
///////////////////////////////////////////////////////////////////////////////

        RTMODEL "__CPP_Language", "EC++"
        RTMODEL "__SystemLibrary", "DLib"
        RTMODEL "__dlib_file_descriptor", "1"
        RTMODEL "__dlib_full_locale_support", "1"
        RTMODEL "__iar_require _Printf", "floats,widths"
        AAPCS BASE,INTERWORK
        PRESERVE8
        REQUIRE8

        #define SHT_PROGBITS 0x1

        EXTERN BMP_PIC_X
        EXTERN BMP_PIC_Y
        EXTERN BUTTON_CreateEx
        EXTERN BUTTON_SetBitmapEx
        EXTERN BUTTON_SetBmpFileName
        EXTERN BUTTON_SetText
        EXTERN BUTTON_SetTextAlign
        EXTERN GUI_Clear
        EXTERN GUI_DispStringAt
        EXTERN GUI_Exec
        EXTERN GUI_SetBkColor
        EXTERN GUI_SetColor
        EXTERN TEXT_CreateEx
        EXTERN TEXT_SetBkColor
        EXTERN TEXT_SetText
        EXTERN TEXT_SetTextColor
        EXTERN WM_CreateWindow
        EXTERN WM_DeleteWindow
        EXTERN WM_IsWindow
        EXTERN _Z27enqueue_and_echo_commands_PPKc
        EXTERN __aeabi_f2d
        EXTERN __aeabi_f2iz
        EXTERN __aeabi_fmul
        EXTERN __aeabi_memset4
        EXTERN alloc_win_id
        EXTERN bmp_struct
        EXTERN common_menu
        EXTERN creat_title_text
        EXTERN current_position
        EXTERN disp_state
        EXTERN disp_state_stack
        EXTERN draw_return_ui
        EXTERN gCfgItems
        EXTERN mksCfg
        EXTERN move_menu
        EXTERN sprintf

        PUBLIC Clear_MeshLeveling
        PUBLIC _Z10disp_Zstepv
        PUBLIC _Z11display_msgi
        PUBLIC _ZTI5Print
        PUBLIC disp_zpos
        PUBLIC draw_meshleveling
        
          CFI Names cfiNames0
          CFI StackFrame CFA R13 DATA
          CFI Resource R0:32, R1:32, R2:32, R3:32, R4:32, R5:32, R6:32, R7:32
          CFI Resource R8:32, R9:32, R10:32, R11:32, R12:32, R13:32, R14:32
          CFI EndNames cfiNames0
        
          CFI Common cfiCommon0 Using cfiNames0
          CFI CodeAlign 2
          CFI DataAlign 4
          CFI ReturnAddress R14 CODE
          CFI CFA R13+0
          CFI R0 Undefined
          CFI R1 Undefined
          CFI R2 Undefined
          CFI R3 Undefined
          CFI R4 SameValue
          CFI R5 SameValue
          CFI R6 SameValue
          CFI R7 SameValue
          CFI R8 SameValue
          CFI R9 SameValue
          CFI R10 SameValue
          CFI R11 SameValue
          CFI R12 Undefined
          CFI R14 SameValue
          CFI EndCommon cfiCommon0
        
// D:\MKS-Robin-Nano-Firmware-v2.x.x\MKS-Robin-Nano-Firmware\User\ui\draw_mesh_leveling.cpp
//    1 #include "gui.h"
//    2 #include "button.h"
//    3 #include "text.h"
//    4 #include "draw_ui.h"
//    5 #include "draw_meshleveling.h"
//    6 #include "marlin.h"
//    7 static GUI_HWIN hMeshLevelingWnd;

        SECTION `.bss`:DATA:REORDER:NOROOT(2)
//    8 static BUTTON_STRUCT buttonRet,buttonMesh,buttonZadd,buttonZdec,buttonZstep;
buttonZadd:
        DS8 24
        DS8 24

        SECTION `.data`:DATA:REORDER:NOROOT(2)
hMeshLevelingWnd:
        DATA
        DC8 0, 0
        DC8 0, 0
        DC8 0, 0
        DC8 0, 0
        DC8 0, 0, 0, 0, 0, 0, 0, 0, 0, 0, 0, 0, 0, 0, 0, 0
        DC8 0, 0, 0, 0, 0, 0, 0, 0
        DC8 0, 0, 0, 0, 0, 0, 0, 0, 0, 0, 0, 0, 0, 0, 0, 0
        DC8 0, 0, 0, 0, 0, 0, 0, 0
        DC8 0, 0, 0, 0, 0, 0, 0, 0, 0, 0, 0, 0, 0, 0, 0, 0
        DC8 0, 0, 0, 0, 0, 0, 0, 0
        DC32 3DCCCCCDH
        DC8 0, 0, 0, 0
//    9 static TEXT_Handle LevelingMsg,Zpos,PointNumb;
//   10 
//   11 extern float current_position[XYZE];
//   12 
//   13 static float zstep=0.1;
//   14 void disp_Zstep();
//   15 void disp_zpos();
//   16 
//   17 static int G29_cnt;
//   18 

        SECTION `.text`:CODE:NOROOT(1)
          CFI Block cfiBlock0 Using cfiCommon0
          CFI Function _Z11display_msgi
        THUMB
//   19 void display_msg(int x)
//   20 {
_Z11display_msgi:
        PUSH     {R4,R5,LR}
          CFI R14 Frame(CFA, -4)
          CFI R5 Frame(CFA, -8)
          CFI R4 Frame(CFA, -12)
          CFI CFA R13+12
        SUB      SP,SP,#+36
          CFI CFA R13+48
        MOV      R4,R0
//   21     char bufg[30];
//   22     memset(bufg,' ',30);
        MOVS     R2,#+32
        MOVS     R1,#+30
        ADD      R0,SP,#+0
          CFI FunCall __aeabi_memset4
        BL       __aeabi_memset4
//   23     TEXT_SetText(LevelingMsg, bufg);
        LDR.W    R5,??DataTable25_1
        LDRSH    R0,[R5, #+2]
        ADD      R1,SP,#+0
          CFI FunCall TEXT_SetText
        BL       TEXT_SetText
//   24     sprintf(bufg,"MBL point %d of %d",x,GRID_MAX_POINTS);
        LDR.W    R0,??DataTable25_2
        LDRB     R1,[R0, #+96]
        LDRB     R0,[R0, #+97]
        MUL      R3,R0,R1
        MOV      R2,R4
        ADR.W    R1,`?<Constant "MBL point %d of %d">`
        ADD      R0,SP,#+0
          CFI FunCall sprintf
        BL       sprintf
//   25     TEXT_SetText(LevelingMsg, bufg);
        LDRSH    R0,[R5, #+2]
        ADD      R1,SP,#+0
          CFI FunCall TEXT_SetText
        BL       TEXT_SetText
//   26 }
        ADD      SP,SP,#+36
          CFI CFA R13+12
        POP      {R4,R5,PC}       ;; return
          CFI EndBlock cfiBlock0

        SECTION `.text`:CODE:NOROOT(1)
          CFI Block cfiBlock1 Using cfiCommon0
          CFI Function _Z17cbMeshLevelingWinP10WM_MESSAGE
        THUMB
//   27 static void cbMeshLevelingWin(WM_MESSAGE * pMsg) {
//   28 
//   29     char bufz[30];
//   30     
//   31 	switch (pMsg->MsgId)
_Z17cbMeshLevelingWinP10WM_MESSAGE:
        LDR      R1,[R0, #+0]
        CMP      R1,#+38
        BEQ.N    ??cbMeshLevelingWin_0
        BX       LR
//   32 	{
//   33 		case WM_PAINT:
//   34 			break;
//   35 		case WM_TOUCH:
//   36 		 	
//   37 			break;
//   38 		case WM_TOUCH_CHILD:
//   39 			
//   40 			break;
//   41 		case WM_NOTIFY_PARENT:
//   42 
//   43         if(pMsg->Data.v == WM_NOTIFICATION_RELEASED)
??cbMeshLevelingWin_0:
        PUSH     {R4,R5,LR}
          CFI R14 Frame(CFA, -4)
          CFI R5 Frame(CFA, -8)
          CFI R4 Frame(CFA, -12)
          CFI CFA R13+12
        SUB      SP,SP,#+36
          CFI CFA R13+48
        LDR      R1,[R0, #+8]
        CMP      R1,#+2
        BNE.W    ??cbMeshLevelingWin_1
//   44          {
//   45             if(pMsg->hWinSrc == buttonRet.btnHandle)
        LDR.W    R4,??DataTable25_1
        LDRSH    R0,[R0, #+6]
        LDRSH    R1,[R4, #+8]
        CMP      R0,R1
        BNE.N    ??cbMeshLevelingWin_2
//   46             {
//   47                     if(G29_cnt != 0)
        LDR      R0,[R4, #+84]
        CBZ.N    R0,??cbMeshLevelingWin_3
//   48                     {
//   49                         G29_cnt=0;
        MOVS     R0,#+0
        STR      R0,[R4, #+84]
//   50                        //enqueue_and_echo_commands_P(PSTR("G29 S5")); 
//   51                     }
//   52 					Clear_MeshLeveling();
??cbMeshLevelingWin_3:
        LDR.W    R0,??DataTable25_3
        LDR      R0,[R0, #+20]
          CFI FunCall GUI_SetBkColor
        BL       GUI_SetBkColor
        LDRSH    R0,[R4, #+0]
          CFI FunCall WM_IsWindow
        BL       WM_IsWindow
        CBZ.N    R0,??cbMeshLevelingWin_4
        LDRSH    R0,[R4, #+0]
          CFI FunCall WM_DeleteWindow
        BL       WM_DeleteWindow
          CFI FunCall GUI_Exec
        BL       GUI_Exec
//   53 					draw_return_ui();                
??cbMeshLevelingWin_4:
          CFI FunCall draw_return_ui
        BL       draw_return_ui
//   54             }
//   55             else if(pMsg->hWinSrc == buttonMesh.btnHandle)
//   56             {
//   57 
//   58                 //else
//   59                 {
//   60                     switch(G29_cnt)
//   61                     {
//   62                     case 0:
//   63                         enqueue_and_echo_commands_P(PSTR("G29 S1"));
//   64                         G29_cnt++;
//   65                         display_msg(G29_cnt);
//   66                         BUTTON_SetText(buttonMesh.btnHandle,"next");
//   67                         break;
//   68                     default:
//   69                         enqueue_and_echo_commands_P(PSTR("G29 S2"));
//   70                         G29_cnt++;
//   71                         
//   72                         if(G29_cnt > GRID_MAX_POINTS)
//   73                         {
//   74                            TEXT_SetText(LevelingMsg, "Mesh probing done."); 
//   75                            G29_cnt=0;
//   76                            //display_msg(G29_cnt);
//   77                            BUTTON_SetText(buttonMesh.btnHandle,"start");
//   78                            break;
//   79                         }
//   80                         display_msg(G29_cnt);
//   81                         break;
//   82                     }
//   83                  }
//   84             }
//   85             else if(pMsg->hWinSrc == buttonZadd.btnHandle)
//   86             {
//   87      			enqueue_and_echo_commands_P(PSTR("G91"));
//   88     			sprintf(bufz, "G1 Z%3.1f F%d\n",zstep, gCfgItems.moveSpeed);
//   89     			enqueue_and_echo_commands_P(PSTR(bufz));
//   90     			enqueue_and_echo_commands_P(PSTR("G90"));           
//   91             }
//   92             else if(pMsg->hWinSrc == buttonZdec.btnHandle)
//   93             {
//   94     			enqueue_and_echo_commands_P(PSTR("G91"));
//   95     			sprintf(bufz, "G1 Z-%3.1f F%d\n",zstep, gCfgItems.moveSpeed);
//   96     			enqueue_and_echo_commands_P(PSTR(bufz));
//   97     			enqueue_and_echo_commands_P(PSTR("G90"));            
//   98             }
//   99             else if(pMsg->hWinSrc == buttonZstep.btnHandle)
//  100             {
//  101 				if(abs(10 * (int)zstep) == 10)
//  102 				{
//  103 					zstep = 0.1;
//  104 				}
//  105 				else
//  106 				{
//  107 					zstep *= (float)10;
//  108 				}
//  109 				
//  110 				disp_Zstep();            
//  111             }            
//  112 
//  113          }
//  114 			break;
//  115 			
//  116 		default:break;
//  117 
//  118     }
//  119 }
        ADD      SP,SP,#+36
          CFI CFA R13+12
        POP      {R4,R5,PC}
          CFI CFA R13+48
??cbMeshLevelingWin_2:
        LDRSH    R1,[R4, #+32]
        CMP      R0,R1
        BNE.N    ??cbMeshLevelingWin_5
        LDR      R0,[R4, #+84]
        CBNZ.N   R0,??cbMeshLevelingWin_6
        ADR.W    R0,`?<Constant "G29 S1">`
          CFI FunCall _Z27enqueue_and_echo_commands_PPKc
        BL       _Z27enqueue_and_echo_commands_PPKc
        LDR      R0,[R4, #+84]
        ADDS     R0,R0,#+1
        STR      R0,[R4, #+84]
          CFI FunCall _Z11display_msgi
        BL       _Z11display_msgi
        ADR.W    R1,`?<Constant "next">`
        B.N      ??cbMeshLevelingWin_7
??cbMeshLevelingWin_6:
        ADR.W    R0,`?<Constant "G29 S2">`
          CFI FunCall _Z27enqueue_and_echo_commands_PPKc
        BL       _Z27enqueue_and_echo_commands_PPKc
        LDR.W    R1,??DataTable25_2
        LDR      R0,[R4, #+84]
        LDRB     R2,[R1, #+96]
        LDRB     R1,[R1, #+97]
        ADDS     R0,R0,#+1
        MULS     R1,R1,R2
        STR      R0,[R4, #+84]
        CMP      R1,R0
        BGE.N    ??cbMeshLevelingWin_8
        LDRSH    R0,[R4, #+2]
        ADR.W    R1,`?<Constant "Mesh probing done.">`
          CFI FunCall TEXT_SetText
        BL       TEXT_SetText
        ADR.W    R1,`?<Constant "start">`
        MOVS     R0,#+0
        STR      R0,[R4, #+84]
??cbMeshLevelingWin_7:
        LDRSH    R0,[R4, #+32]
          CFI FunCall BUTTON_SetText
        BL       BUTTON_SetText
        ADD      SP,SP,#+36
          CFI CFA R13+12
        POP      {R4,R5,PC}
          CFI CFA R13+48
??cbMeshLevelingWin_8:
          CFI FunCall _Z11display_msgi
        BL       _Z11display_msgi
        ADD      SP,SP,#+36
          CFI CFA R13+12
        POP      {R4,R5,PC}
          CFI CFA R13+48
??cbMeshLevelingWin_5:
        LDR.W    R1,??DataTable25_4
        LDRSH    R2,[R1, #+0]
        CMP      R0,R2
        BNE.N    ??cbMeshLevelingWin_9
        ADR.N    R0,??DataTable21  ;; "G91"
          CFI FunCall _Z27enqueue_and_echo_commands_PPKc
        BL       _Z27enqueue_and_echo_commands_PPKc
        LDR.W    R0,??DataTable25_3
        LDRSH    R0,[R0, #+190]
        STR      R0,[SP, #+0]
        LDR      R0,[R4, #+80]
          CFI FunCall __aeabi_f2d
        BL       __aeabi_f2d
        MOV      R3,R1
        MOV      R2,R0
        ADR.W    R1,`?<Constant "G1 Z%3.1f F%d\\n">`
        B.N      ??cbMeshLevelingWin_10
??cbMeshLevelingWin_9:
        LDRSH    R1,[R1, #+24]
        CMP      R0,R1
        BNE.N    ??cbMeshLevelingWin_11
        ADR.N    R0,??DataTable21  ;; "G91"
          CFI FunCall _Z27enqueue_and_echo_commands_PPKc
        BL       _Z27enqueue_and_echo_commands_PPKc
        LDR.W    R0,??DataTable25_3
        LDRSH    R0,[R0, #+190]
        STR      R0,[SP, #+0]
        LDR      R0,[R4, #+80]
          CFI FunCall __aeabi_f2d
        BL       __aeabi_f2d
        MOV      R3,R1
        MOV      R2,R0
        ADR.W    R1,`?<Constant "G1 Z-%3.1f F%d\\n">`
??cbMeshLevelingWin_10:
        ADD      R0,SP,#+4
          CFI FunCall sprintf
        BL       sprintf
        ADD      R0,SP,#+4
          CFI FunCall _Z27enqueue_and_echo_commands_PPKc
        BL       _Z27enqueue_and_echo_commands_PPKc
        ADR.N    R0,??DataTable23  ;; "G90"
          CFI FunCall _Z27enqueue_and_echo_commands_PPKc
        BL       _Z27enqueue_and_echo_commands_PPKc
        ADD      SP,SP,#+36
          CFI CFA R13+12
        POP      {R4,R5,PC}
          CFI CFA R13+48
??cbMeshLevelingWin_11:
        LDRSH    R1,[R4, #+56]
        CMP      R0,R1
        BNE.N    ??cbMeshLevelingWin_1
        LDR      R5,[R4, #+80]
        MOV      R0,R5
          CFI FunCall __aeabi_f2iz
        BL       __aeabi_f2iz
        ADD      R1,R0,R0, LSL #+2
        LSLS     R0,R1,#+1
        IT       MI 
        RSBMI    R0,R0,#+0
        CMP      R0,#+10
        ITEEE    EQ 
        LDREQ.N  R0,??DataTable25_5  ;; 0x3dcccccd
        LDRNE.N  R0,??DataTable25_6  ;; 0x41200000
        MOVNE    R1,R5
          CFI FunCall __aeabi_fmul
        BLNE     __aeabi_fmul
        STR      R0,[R4, #+80]
          CFI FunCall _Z10disp_Zstepv
        BL       _Z10disp_Zstepv
??cbMeshLevelingWin_1:
        ADD      SP,SP,#+36
          CFI CFA R13+12
        POP      {R4,R5,PC}       ;; return
          CFI EndBlock cfiBlock1

        SECTION `.text`:CODE:NOROOT(2)
        SECTION_TYPE SHT_PROGBITS, 0
        DATA
??DataTable21:
        DC8      "G91"
//  120 

        SECTION `.text`:CODE:NOROOT(1)
          CFI Block cfiBlock2 Using cfiCommon0
          CFI Function draw_meshleveling
        THUMB
//  121 void draw_meshleveling()
//  122 {
draw_meshleveling:
        PUSH     {R4-R10,LR}
          CFI R14 Frame(CFA, -4)
          CFI R10 Frame(CFA, -8)
          CFI R9 Frame(CFA, -12)
          CFI R8 Frame(CFA, -16)
          CFI R7 Frame(CFA, -20)
          CFI R6 Frame(CFA, -24)
          CFI R5 Frame(CFA, -28)
          CFI R4 Frame(CFA, -32)
          CFI CFA R13+32
//  123 	if(disp_state_stack._disp_state[disp_state_stack._disp_index] != MESHLEVELING_UI)
        LDR.N    R0,??DataTable25_7
        LDRSB    R1,[R0, #+100]
        SUB      SP,SP,#+24
          CFI CFA R13+56
        LDRSB    R2,[R1, R0]
        CMP      R2,#+29
        BEQ.N    ??draw_meshleveling_0
//  124 	{
//  125 		disp_state_stack._disp_index++;
        ADDS     R1,R1,#+1
        STRB     R1,[R0, #+100]
//  126 		disp_state_stack._disp_state[disp_state_stack._disp_index] = MESHLEVELING_UI;
        MOVS     R2,#+29
        SXTB     R1,R1
        STRB     R2,[R1, R0]
//  127 	}
//  128 	
//  129 	disp_state = MESHLEVELING_UI;	
??draw_meshleveling_0:
        MOVS     R0,#+29
        LDR.N    R1,??DataTable25_8
//  130 
//  131 	GUI_SetBkColor(gCfgItems.background_color);
        LDR.N    R4,??DataTable25_3
        STRB     R0,[R1, #+0]
        LDR      R0,[R4, #+20]
          CFI FunCall GUI_SetBkColor
        BL       GUI_SetBkColor
//  132 	GUI_SetColor(gCfgItems.title_color);
        ADD      R7,R4,#+20
        LDR      R0,[R7, #+4]
          CFI FunCall GUI_SetColor
        BL       GUI_SetColor
//  133 	GUI_Clear();
          CFI FunCall GUI_Clear
        BL       GUI_Clear
//  134 
//  135 	GUI_DispStringAt(creat_title_text(),  TITLE_XPOS, TITLE_YPOS); 
          CFI FunCall creat_title_text
        BL       creat_title_text
        MOVS     R2,#+5
        MOVS     R1,#+3
          CFI FunCall GUI_DispStringAt
        BL       GUI_DispStringAt
//  136 
//  137     
//  138 	hMeshLevelingWnd = WM_CreateWindow(0, titleHeight, LCD_WIDTH, imgHeight, WM_CF_SHOW, cbMeshLevelingWin, 0);
        MOVS     R0,#+0
        STR      R0,[SP, #+8]
        MOV      R3,#+284
        LDR.N    R0,??DataTable25_9
        LDR.N    R5,??DataTable25_1
        STR      R0,[SP, #+4]
        MOV      R2,#+480
        MOVS     R0,#+2
        STR      R0,[SP, #+0]
        MOVS     R1,#+36
        MOVS     R0,#+0
          CFI FunCall WM_CreateWindow
        BL       WM_CreateWindow
        STRH     R0,[R5, #+0]
//  139 
//  140 	buttonMesh.btnHandle = BUTTON_CreateEx((LCD_WIDTH/2-100)/2 , imgHeight/2+(imgHeight/2-50)/2, 100, 50, hMeshLevelingWnd, BUTTON_CF_SHOW, 0, alloc_win_id());
          CFI FunCall alloc_win_id
        BL       alloc_win_id
        STR      R0,[SP, #+12]
        MOVS     R3,#+50
        MOVS     R0,#+0
        STR      R0,[SP, #+8]
        MOVS     R2,#+100
        MOVS     R0,#+2
        STR      R0,[SP, #+4]
        MOVS     R1,#+188
        LDRSH    R0,[R5, #+0]
        STR      R0,[SP, #+0]
        MOVS     R0,#+70
          CFI FunCall BUTTON_CreateEx
        BL       BUTTON_CreateEx
        STRH     R0,[R5, #+32]
//  141     
//  142 	buttonZadd.btnHandle = BUTTON_CreateEx(BTN_X_PIXEL*2+INTERVAL_V*3 , 0, BTN_X_PIXEL, BTN_Y_PIXEL, hMeshLevelingWnd, BUTTON_CF_SHOW, 0, alloc_win_id());
          CFI FunCall alloc_win_id
        BL       alloc_win_id
        STR      R0,[SP, #+12]
        MOVS     R0,#+0
        STR      R0,[SP, #+8]
        MOVS     R0,#+2
        STR      R0,[SP, #+4]
        MOVS     R3,#+140
        LDRSH    R0,[R5, #+0]
        LDR.N    R6,??DataTable25_4
        STR      R0,[SP, #+0]
        MOVS     R2,#+117
        MOVS     R1,#+0
        MOVS     R0,#+240
          CFI FunCall BUTTON_CreateEx
        BL       BUTTON_CreateEx
        STRH     R0,[R6, #+0]
//  143 	buttonZdec.btnHandle = BUTTON_CreateEx(BTN_X_PIXEL*2+INTERVAL_V*3 , BTN_Y_PIXEL+INTERVAL_H, BTN_X_PIXEL, BTN_Y_PIXEL, hMeshLevelingWnd, BUTTON_CF_SHOW, 0, alloc_win_id());
          CFI FunCall alloc_win_id
        BL       alloc_win_id
        STR      R0,[SP, #+12]
        MOVS     R3,#+140
        MOVS     R0,#+0
        STR      R0,[SP, #+8]
        MOVS     R2,#+117
        MOVS     R0,#+2
        STR      R0,[SP, #+4]
        MOVS     R1,#+142
        LDRSH    R0,[R5, #+0]
        STR      R0,[SP, #+0]
        MOVS     R0,#+240
          CFI FunCall BUTTON_CreateEx
        BL       BUTTON_CreateEx
        STRH     R0,[R6, #+24]
//  144     buttonZstep.btnHandle = BUTTON_CreateEx(BTN_X_PIXEL*3+INTERVAL_V*4,  0,BTN_X_PIXEL, BTN_Y_PIXEL, hMeshLevelingWnd, BUTTON_CF_SHOW, 0, alloc_win_id());
          CFI FunCall alloc_win_id
        BL       alloc_win_id
        STR      R0,[SP, #+12]
        MOVW     R8,#+359
        MOVS     R0,#+0
        STR      R0,[SP, #+8]
        MOVS     R3,#+140
        MOVS     R0,#+2
        STR      R0,[SP, #+4]
        MOVS     R2,#+117
        LDRSH    R0,[R5, #+0]
        STR      R0,[SP, #+0]
        MOVS     R1,#+0
        MOV      R0,R8
          CFI FunCall BUTTON_CreateEx
        BL       BUTTON_CreateEx
        STRH     R0,[R5, #+56]
//  145 
//  146     buttonRet.btnHandle = BUTTON_CreateEx(BTN_X_PIXEL*3+INTERVAL_V*4,  BTN_Y_PIXEL+INTERVAL_H,BTN_X_PIXEL, BTN_Y_PIXEL, hMeshLevelingWnd, BUTTON_CF_SHOW, 0, alloc_win_id());
          CFI FunCall alloc_win_id
        BL       alloc_win_id
        STR      R0,[SP, #+12]
        MOVS     R3,#+140
        MOVS     R0,#+0
        STR      R0,[SP, #+8]
        MOVS     R2,#+117
        MOVS     R0,#+2
        STR      R0,[SP, #+4]
        MOVS     R1,#+142
        LDRSH    R0,[R5, #+0]
        STR      R0,[SP, #+0]
        MOV      R0,R8
          CFI FunCall BUTTON_CreateEx
        BL       BUTTON_CreateEx
        STRH     R0,[R5, #+8]
//  147 
//  148     LevelingMsg = TEXT_CreateEx(INTERVAL_V,5,BTN_X_PIXEL*2+INTERVAL_V,60, hMeshLevelingWnd, WM_CF_SHOW, GUI_TA_LEFT,   GUI_ID_TEXT1, "");
        MOVW     R8,#+353
        MOVS     R0,#+0
        STR      R0,[SP, #+8]
        ADR.W    R9,??DataTable25  ;; ""
        MOVS     R0,#+2
        STR      R0,[SP, #+4]
        STR      R9,[SP, #+16]
        STR      R8,[SP, #+12]
        MOVS     R3,#+60
        LDRSH    R0,[R5, #+0]
        STR      R0,[SP, #+0]
        MOVS     R2,#+236
        MOVS     R1,#+5
        MOVS     R0,#+2
          CFI FunCall TEXT_CreateEx
        BL       TEXT_CreateEx
        STRH     R0,[R5, #+2]
//  149     Zpos  = TEXT_CreateEx(INTERVAL_V,65,BTN_X_PIXEL*2+INTERVAL_V,30, hMeshLevelingWnd, WM_CF_SHOW, GUI_TA_LEFT,   GUI_ID_TEXT1, "");
        STR      R9,[SP, #+16]
        MOVS     R0,#+0
        STR      R0,[SP, #+8]
        STR      R8,[SP, #+12]
        MOVS     R0,#+2
        STR      R0,[SP, #+4]
        MOVS     R3,#+30
        LDRSH    R0,[R5, #+0]
        STR      R0,[SP, #+0]
        MOVS     R2,#+236
        MOVS     R1,#+65
        MOVS     R0,#+2
          CFI FunCall TEXT_CreateEx
        BL       TEXT_CreateEx
        STRH     R0,[R5, #+4]
//  150 
//  151     BUTTON_SetBmpFileName(buttonZadd.btnHandle, "bmp_zAdd.bin",1);
        MOVS     R2,#+1
        LDRSH    R0,[R6, #+0]
        ADR.W    R1,`?<Constant "bmp_zAdd.bin">`
          CFI FunCall BUTTON_SetBmpFileName
        BL       BUTTON_SetBmpFileName
//  152     BUTTON_SetBmpFileName(buttonZdec.btnHandle, "bmp_zDec.bin",1);
        LDRSH    R0,[R6, #+24]
        ADR.W    R1,`?<Constant "bmp_zDec.bin">`
        MOVS     R2,#+1
          CFI FunCall BUTTON_SetBmpFileName
        BL       BUTTON_SetBmpFileName
//  153     BUTTON_SetBmpFileName(buttonZstep.btnHandle, "bmp_leveling3.bin",1);
        LDRSH    R0,[R5, #+56]
        ADR.W    R1,`?<Constant "bmp_leveling3.bin">`
        MOVS     R2,#+1
          CFI FunCall BUTTON_SetBmpFileName
        BL       BUTTON_SetBmpFileName
//  154     
//  155     BUTTON_SetBmpFileName(buttonRet.btnHandle, "bmp_return.bin",1);
        LDRSH    R0,[R5, #+8]
        ADR.W    R1,`?<Constant "bmp_return.bin">`
        MOVS     R2,#+1
          CFI FunCall BUTTON_SetBmpFileName
        BL       BUTTON_SetBmpFileName
//  156     
//  157     BUTTON_SetBmpFileName(buttonMesh.btnHandle, NULL,1);
        LDRSH    R0,[R5, #+32]
        MOVS     R2,#+1
        MOVS     R1,#+0
          CFI FunCall BUTTON_SetBmpFileName
        BL       BUTTON_SetBmpFileName
//  158     
//  159     BUTTON_SetTextAlign(buttonMesh.btnHandle, GUI_TA_VCENTER | GUI_TA_HCENTER);
        LDRSH    R0,[R5, #+32]
        MOVS     R1,#+14
          CFI FunCall BUTTON_SetTextAlign
        BL       BUTTON_SetTextAlign
//  160 
//  161     disp_Zstep();
          CFI FunCall _Z10disp_Zstepv
        BL       _Z10disp_Zstepv
//  162     
//  163 	BUTTON_SetBitmapEx(buttonZadd.btnHandle, 0, &bmp_struct, BMP_PIC_X, BMP_PIC_Y);
        LDR.W    R10,??DataTable25_10
        LDR.W    R9,??DataTable25_11
        LDRSB    R0,[R10, #+0]
        STR      R0,[SP, #+0]
        MOVS     R1,#+0
        LDR.W    R8,??DataTable25_12
        LDRSB    R3,[R9, #+0]
        LDRSH    R0,[R6, R1]
        MOV      R2,R8
          CFI FunCall BUTTON_SetBitmapEx
        BL       BUTTON_SetBitmapEx
//  164 	BUTTON_SetBitmapEx(buttonZdec.btnHandle, 0, &bmp_struct, BMP_PIC_X, BMP_PIC_Y);
        LDRSB    R0,[R10, #+0]
        LDRSB    R3,[R9, #+0]
        STR      R0,[SP, #+0]
        MOV      R2,R8
        LDRSH    R0,[R6, #+24]
        MOVS     R1,#+0
          CFI FunCall BUTTON_SetBitmapEx
        BL       BUTTON_SetBitmapEx
//  165 	BUTTON_SetBitmapEx(buttonZstep.btnHandle, 0, &bmp_struct, BMP_PIC_X, BMP_PIC_Y);
        LDRSB    R0,[R10, #+0]
        LDRSB    R3,[R9, #+0]
        STR      R0,[SP, #+0]
        MOV      R2,R8
        LDRSH    R0,[R5, #+56]
        MOVS     R1,#+0
          CFI FunCall BUTTON_SetBitmapEx
        BL       BUTTON_SetBitmapEx
//  166 	BUTTON_SetBitmapEx(buttonRet.btnHandle, 0, &bmp_struct, BMP_PIC_X, BMP_PIC_Y);   
        LDRSB    R0,[R10, #+0]
        LDRSB    R3,[R9, #+0]
        STR      R0,[SP, #+0]
        MOV      R2,R8
        LDRSH    R0,[R5, #+8]
        MOVS     R1,#+0
          CFI FunCall BUTTON_SetBitmapEx
        BL       BUTTON_SetBitmapEx
//  167 	TEXT_SetBkColor(LevelingMsg,gCfgItems.background_color);
        LDR      R1,[R4, #+20]
        LDRSH    R0,[R5, #+2]
          CFI FunCall TEXT_SetBkColor
        BL       TEXT_SetBkColor
//  168 	TEXT_SetBkColor(Zpos,gCfgItems.background_color); 
        LDR      R1,[R4, #+20]
        LDRSH    R0,[R5, #+4]
          CFI FunCall TEXT_SetBkColor
        BL       TEXT_SetBkColor
//  169 	TEXT_SetTextColor(LevelingMsg,gCfgItems.title_color);
        LDR      R1,[R7, #+4]
        LDRSH    R0,[R5, #+2]
          CFI FunCall TEXT_SetTextColor
        BL       TEXT_SetTextColor
//  170 	TEXT_SetTextColor(Zpos,gCfgItems.title_color);
        LDR      R1,[R7, #+4]
        LDRSH    R0,[R5, #+4]
          CFI FunCall TEXT_SetTextColor
        BL       TEXT_SetTextColor
//  171 
//  172     disp_zpos();
        ADD      R0,SP,#+0
        MOVS     R1,#+0
        MOVS     R2,#+0
        MOV      R3,R1
        STM      R0!,{R1-R3}
        LDR.N    R0,??DataTable25_13
        LDR      R0,[R0, #+8]
          CFI FunCall __aeabi_f2d
        BL       __aeabi_f2d
        MOV      R2,R0
        MOV      R3,R1
        ADR.W    R1,`?<Constant "Z: %.3f">`
        ADD      R0,SP,#+0
          CFI FunCall sprintf
        BL       sprintf
        LDRSH    R0,[R5, #+4]
        ADD      R1,SP,#+0
          CFI FunCall TEXT_SetText
        BL       TEXT_SetText
//  173 
//  174     if(gCfgItems.multiple_language != 0)
        LDRB     R0,[R4, #+463]
        CBZ.N    R0,??draw_meshleveling_1
//  175     {
//  176         BUTTON_SetText(buttonZadd.btnHandle, move_menu.z_add);
        LDR.N    R4,??DataTable25_14
        LDRSH    R0,[R6, #+0]
        LDR      R1,[R4, #+20]
          CFI FunCall BUTTON_SetText
        BL       BUTTON_SetText
//  177         BUTTON_SetText(buttonZdec.btnHandle,move_menu.z_dec);
        LDR      R1,[R4, #+24]
        LDRSH    R0,[R6, #+24]
          CFI FunCall BUTTON_SetText
        BL       BUTTON_SetText
//  178 
//  179         BUTTON_SetText(buttonRet.btnHandle, common_menu.text_back);
        LDR.N    R0,??DataTable25_15
        LDR      R1,[R0, #+0]
        LDRSH    R0,[R5, #+8]
          CFI FunCall BUTTON_SetText
        BL       BUTTON_SetText
//  180         BUTTON_SetText(buttonMesh.btnHandle,"start");
        LDRSH    R0,[R5, #+32]
        ADR.W    R1,`?<Constant "start">`
          CFI FunCall BUTTON_SetText
        BL       BUTTON_SetText
//  181 
//  182         TEXT_SetText(LevelingMsg, "Click <start> to\nstart leveling.");
        LDRSH    R0,[R5, #+2]
        ADR.W    R1,`?<Constant "Click <start> to\\nstar...">`
          CFI FunCall TEXT_SetText
        BL       TEXT_SetText
//  183     }
//  184 
//  185 }
??draw_meshleveling_1:
        ADD      SP,SP,#+24
          CFI CFA R13+32
        POP      {R4-R10,PC}      ;; return
          CFI EndBlock cfiBlock2

        SECTION `.text`:CODE:NOROOT(1)
          CFI Block cfiBlock3 Using cfiCommon0
          CFI Function disp_zpos
        THUMB
//  186 void disp_zpos()
//  187 {
disp_zpos:
        PUSH     {LR}
          CFI R14 Frame(CFA, -4)
          CFI CFA R13+4
        SUB      SP,SP,#+12
          CFI CFA R13+16
//  188     char zbuf[10]={0};
        ADD      R0,SP,#+0
        MOVS     R1,#+0
        MOVS     R2,#+0
        MOV      R3,R1
        STM      R0!,{R1-R3}
//  189     sprintf(zbuf,"Z: %.3f",current_position[Z_AXIS]);
        LDR.N    R0,??DataTable25_13
        LDR      R0,[R0, #+8]
          CFI FunCall __aeabi_f2d
        BL       __aeabi_f2d
        MOV      R2,R0
        MOV      R3,R1
        ADR.W    R1,`?<Constant "Z: %.3f">`
        ADD      R0,SP,#+0
          CFI FunCall sprintf
        BL       sprintf
//  190     TEXT_SetText(Zpos,zbuf);
        LDR.N    R0,??DataTable25_1
        LDRSH    R0,[R0, #+4]
        ADD      R1,SP,#+0
          CFI FunCall TEXT_SetText
        BL       TEXT_SetText
//  191 }
        ADD      SP,SP,#+12
          CFI CFA R13+4
        POP      {PC}             ;; return
          CFI EndBlock cfiBlock3

        SECTION `.text`:CODE:NOROOT(2)
        SECTION_TYPE SHT_PROGBITS, 0
        DATA
??DataTable23:
        DC8      "G90"

        SECTION `.text`:CODE:NOROOT(1)
          CFI Block cfiBlock4 Using cfiCommon0
          CFI Function _Z10disp_Zstepv
        THUMB
//  192 void disp_Zstep()
//  193 {
_Z10disp_Zstepv:
        PUSH     {R3-R5,LR}
          CFI R14 Frame(CFA, -4)
          CFI R5 Frame(CFA, -8)
          CFI R4 Frame(CFA, -12)
          CFI CFA R13+16
//  194 	char buf[30] = {0};
//  195 		
//  196 	if((int)(10 * zstep) == 1)
        LDR.N    R5,??DataTable25_1
        LDR.N    R4,??DataTable25_6  ;; 0x41200000
        LDR      R0,[R5, #+80]
        MOV      R1,R4
          CFI FunCall __aeabi_fmul
        BL       __aeabi_fmul
          CFI FunCall __aeabi_f2iz
        BL       __aeabi_f2iz
        CMP      R0,#+1
        BNE.N    ??disp_Zstep_0
//  197 	{
//  198 		BUTTON_SetBmpFileName(buttonZstep.btnHandle, "bmp_step_move0_1.bin",1);
        MOVS     R2,#+1
        ADR.W    R1,`?<Constant "bmp_step_move0_1.bin">`
        B.N      ??disp_Zstep_1
//  199 	}
//  200 	else if((int)(10 * zstep) == 10)
??disp_Zstep_0:
        CMP      R0,#+10
        BNE.N    ??disp_Zstep_2
//  201 	{
//  202 		BUTTON_SetBmpFileName(buttonZstep.btnHandle, "bmp_step_move1.bin",1);
        ADR.W    R1,`?<Constant "bmp_step_move1.bin">`
        MOVS     R2,#+1
??disp_Zstep_1:
        LDRSH    R0,[R5, #+56]
          CFI FunCall BUTTON_SetBmpFileName
        BL       BUTTON_SetBmpFileName
//  203 	}
//  204 
//  205 	if(gCfgItems.multiple_language != 0)
??disp_Zstep_2:
        LDR.N    R0,??DataTable25_3
        LDRB     R0,[R0, #+463]
        CBZ.N    R0,??disp_Zstep_3
//  206 	{
//  207 		if((int)(10 * zstep) == 1)
        LDR      R0,[R5, #+80]
        MOV      R1,R4
          CFI FunCall __aeabi_fmul
        BL       __aeabi_fmul
          CFI FunCall __aeabi_f2iz
        BL       __aeabi_f2iz
        CMP      R0,#+1
        BNE.N    ??disp_Zstep_4
//  208 			BUTTON_SetText(buttonZstep.btnHandle,move_menu.step_01mm);
        LDR.N    R0,??DataTable25_14
        LDR      R1,[R0, #+36]
        B.N      ??disp_Zstep_5
//  209 		else if((int)(10 * zstep) == 10)
??disp_Zstep_4:
        CMP      R0,#+10
        BNE.N    ??disp_Zstep_3
//  210 			BUTTON_SetText(buttonZstep.btnHandle,move_menu.step_1mm);
        LDR.N    R0,??DataTable25_14
        LDR      R1,[R0, #+40]
??disp_Zstep_5:
        LDRSH    R0,[R5, #+56]
        POP      {R2,R4,R5,LR}
          CFI R4 SameValue
          CFI R5 SameValue
          CFI R14 SameValue
          CFI CFA R13+0
          CFI FunCall BUTTON_SetText
        B.W      BUTTON_SetText
          CFI R4 Frame(CFA, -12)
          CFI R5 Frame(CFA, -8)
          CFI R14 Frame(CFA, -4)
          CFI CFA R13+16
//  211 
//  212 	}	
//  213 
//  214 		
//  215 	
//  216 }
??disp_Zstep_3:
        POP      {R0,R4,R5,PC}    ;; return
          CFI EndBlock cfiBlock4
//  217 

        SECTION `.text`:CODE:NOROOT(1)
          CFI Block cfiBlock5 Using cfiCommon0
          CFI Function Clear_MeshLeveling
        THUMB
//  218 void Clear_MeshLeveling()
//  219 {
Clear_MeshLeveling:
        PUSH     {R4,LR}
          CFI R14 Frame(CFA, -4)
          CFI R4 Frame(CFA, -8)
          CFI CFA R13+8
//  220 	GUI_SetBkColor(gCfgItems.background_color);
        LDR.N    R0,??DataTable25_3
        LDR      R0,[R0, #+20]
          CFI FunCall GUI_SetBkColor
        BL       GUI_SetBkColor
//  221 	if(WM_IsWindow(hMeshLevelingWnd))
        LDR.N    R4,??DataTable25_1
        LDRSH    R0,[R4, #+0]
          CFI FunCall WM_IsWindow
        BL       WM_IsWindow
        CBZ.N    R0,??Clear_MeshLeveling_0
//  222 	{
//  223 		WM_DeleteWindow(hMeshLevelingWnd);
        LDRSH    R0,[R4, #+0]
          CFI FunCall WM_DeleteWindow
        BL       WM_DeleteWindow
//  224 		GUI_Exec();
        POP      {R4,LR}
          CFI R4 SameValue
          CFI R14 SameValue
          CFI CFA R13+0
          CFI FunCall GUI_Exec
        B.W      GUI_Exec
          CFI R4 Frame(CFA, -8)
          CFI R14 Frame(CFA, -4)
          CFI CFA R13+8
//  225 	}
//  226 
//  227 }
??Clear_MeshLeveling_0:
        POP      {R4,PC}          ;; return
          CFI EndBlock cfiBlock5

        SECTION `.text`:CODE:NOROOT(2)
        SECTION_TYPE SHT_PROGBITS, 0
        DATA
??DataTable25:
        DC8      "",0x0,0x0,0x0

        SECTION `.text`:CODE:NOROOT(2)
        SECTION_TYPE SHT_PROGBITS, 0
        DATA
??DataTable25_1:
        DC32     hMeshLevelingWnd

        SECTION `.text`:CODE:NOROOT(2)
        SECTION_TYPE SHT_PROGBITS, 0
        DATA
??DataTable25_2:
        DC32     mksCfg

        SECTION `.text`:CODE:NOROOT(2)
        SECTION_TYPE SHT_PROGBITS, 0
        DATA
??DataTable25_3:
        DC32     gCfgItems

        SECTION `.text`:CODE:NOROOT(2)
        SECTION_TYPE SHT_PROGBITS, 0
        DATA
??DataTable25_4:
        DC32     buttonZadd

        SECTION `.text`:CODE:NOROOT(2)
        SECTION_TYPE SHT_PROGBITS, 0
        DATA
??DataTable25_5:
        DC32     0x3dcccccd

        SECTION `.text`:CODE:NOROOT(2)
        SECTION_TYPE SHT_PROGBITS, 0
        DATA
??DataTable25_6:
        DC32     0x41200000

        SECTION `.text`:CODE:NOROOT(2)
        SECTION_TYPE SHT_PROGBITS, 0
        DATA
??DataTable25_7:
        DC32     disp_state_stack

        SECTION `.text`:CODE:NOROOT(2)
        SECTION_TYPE SHT_PROGBITS, 0
        DATA
??DataTable25_8:
        DC32     disp_state

        SECTION `.text`:CODE:NOROOT(2)
        SECTION_TYPE SHT_PROGBITS, 0
        DATA
??DataTable25_9:
        DC32     _Z17cbMeshLevelingWinP10WM_MESSAGE

        SECTION `.text`:CODE:NOROOT(2)
        SECTION_TYPE SHT_PROGBITS, 0
        DATA
??DataTable25_10:
        DC32     BMP_PIC_Y

        SECTION `.text`:CODE:NOROOT(2)
        SECTION_TYPE SHT_PROGBITS, 0
        DATA
??DataTable25_11:
        DC32     BMP_PIC_X

        SECTION `.text`:CODE:NOROOT(2)
        SECTION_TYPE SHT_PROGBITS, 0
        DATA
??DataTable25_12:
        DC32     bmp_struct

        SECTION `.text`:CODE:NOROOT(2)
        SECTION_TYPE SHT_PROGBITS, 0
        DATA
??DataTable25_13:
        DC32     current_position

        SECTION `.text`:CODE:NOROOT(2)
        SECTION_TYPE SHT_PROGBITS, 0
        DATA
??DataTable25_14:
        DC32     move_menu

        SECTION `.text`:CODE:NOROOT(2)
        SECTION_TYPE SHT_PROGBITS, 0
        DATA
??DataTable25_15:
        DC32     common_menu

        SECTION `.text`:CODE:NOROOT(2)
        SECTION_TYPE SHT_PROGBITS, 0
        DATA
`?<Constant "MBL point %d of %d">`:
        DC8 "MBL point %d of %d"
        DC8 0

        SECTION `.text`:CODE:NOROOT(2)
        SECTION_TYPE SHT_PROGBITS, 0
        DATA
`?<Constant "G29 S1">`:
        DC8 "G29 S1"
        DC8 0

        SECTION `.text`:CODE:NOROOT(2)
        SECTION_TYPE SHT_PROGBITS, 0
        DATA
`?<Constant "next">`:
        DC8 "next"
        DC8 0, 0, 0

        SECTION `.text`:CODE:NOROOT(2)
        SECTION_TYPE SHT_PROGBITS, 0
        DATA
`?<Constant "G29 S2">`:
        DC8 "G29 S2"
        DC8 0

        SECTION `.text`:CODE:NOROOT(2)
        SECTION_TYPE SHT_PROGBITS, 0
        DATA
`?<Constant "Mesh probing done.">`:
        DC8 "Mesh probing done."
        DC8 0

        SECTION `.text`:CODE:NOROOT(2)
        SECTION_TYPE SHT_PROGBITS, 0
        DATA
`?<Constant "start">`:
        DC8 "start"
        DC8 0, 0

        SECTION `.text`:CODE:NOROOT(2)
        SECTION_TYPE SHT_PROGBITS, 0
        DATA
`?<Constant "G1 Z%3.1f F%d\\n">`:
        DC8 "G1 Z%3.1f F%d\012"
        DC8 0

        SECTION `.text`:CODE:NOROOT(2)
        SECTION_TYPE SHT_PROGBITS, 0
        DATA
`?<Constant "G1 Z-%3.1f F%d\\n">`:
        DC8 "G1 Z-%3.1f F%d\012"

        SECTION `.text`:CODE:NOROOT(2)
        SECTION_TYPE SHT_PROGBITS, 0
        DATA
`?<Constant "bmp_zAdd.bin">`:
        DC8 "bmp_zAdd.bin"
        DC8 0, 0, 0

        SECTION `.text`:CODE:NOROOT(2)
        SECTION_TYPE SHT_PROGBITS, 0
        DATA
`?<Constant "bmp_zDec.bin">`:
        DC8 "bmp_zDec.bin"
        DC8 0, 0, 0

        SECTION `.text`:CODE:NOROOT(2)
        SECTION_TYPE SHT_PROGBITS, 0
        DATA
`?<Constant "bmp_leveling3.bin">`:
        DC8 "bmp_leveling3.bin"
        DC8 0, 0

        SECTION `.text`:CODE:NOROOT(2)
        SECTION_TYPE SHT_PROGBITS, 0
        DATA
`?<Constant "bmp_return.bin">`:
        DC8 "bmp_return.bin"
        DC8 0

        SECTION `.text`:CODE:NOROOT(2)
        SECTION_TYPE SHT_PROGBITS, 0
        DATA
`?<Constant "Click <start> to\\nstar...">`:
        DC8 "Click <start> to\012start leveling."
        DC8 0, 0, 0

        SECTION `.text`:CODE:NOROOT(2)
        SECTION_TYPE SHT_PROGBITS, 0
        DATA
`?<Constant "Z: %.3f">`:
        DC8 "Z: %.3f"

        SECTION `.text`:CODE:NOROOT(2)
        SECTION_TYPE SHT_PROGBITS, 0
        DATA
`?<Constant "bmp_step_move0_1.bin">`:
        DC8 "bmp_step_move0_1.bin"
        DC8 0, 0, 0

        SECTION `.text`:CODE:NOROOT(2)
        SECTION_TYPE SHT_PROGBITS, 0
        DATA
`?<Constant "bmp_step_move1.bin">`:
        DC8 "bmp_step_move1.bin"
        DC8 0

        SECTION `.iar_vfe_header`:DATA:NOALLOC:NOROOT(2)
        SECTION_TYPE SHT_PROGBITS, 0
        DATA
        DC32 0

        SECTION __DLIB_PERTHREAD:DATA:REORDER:NOROOT(0)
        SECTION_TYPE SHT_PROGBITS, 0

        SECTION __DLIB_PERTHREAD_init:DATA:REORDER:NOROOT(0)
        SECTION_TYPE SHT_PROGBITS, 0

        SECTION `.rodata`:CONST:REORDER:NOROOT(0)
        SECTION_GROUP _ZTI5Print
// __absolute char const <Typeinfo for Print>
_ZTI5Print:
        DATA
        DC8 0

        SECTION `.rodata`:CONST:NOROOT(2)
        DATA
`?<Constant "G91">`:
        DC8 "G91"

        SECTION `.rodata`:CONST:NOROOT(2)
        DATA
`?<Constant "G90">`:
        DC8 "G90"

        SECTION `.rodata`:CONST:NOROOT(0)
        DATA
`?<Constant "">`:
        DC8 ""

        SECTION `.rodata`:CONST:NOROOT(2)
        DATA
`?<Constant {'\\000'}>`:
        DC8 0, 0, 0, 0, 0, 0, 0, 0, 0, 0, 0, 0

        END
//  228 
//  229 
// 
//    48 bytes in section .bss
//    88 bytes in section .data
//    22 bytes in section .rodata
// 1 632 bytes in section .text
// 
// 1 632 bytes of CODE  memory
//    21 bytes of CONST memory (+ 1 byte shared)
//   136 bytes of DATA  memory
//
//Errors: none
//Warnings: 24
