///////////////////////////////////////////////////////////////////////////////
//
// IAR ANSI C/C++ Compiler V7.10.1.6676/W32 for ARM       14/Feb/2020  17:05:38
// Copyright 1999-2014 IAR Systems AB.
//
//    Cpu mode     =  thumb
//    Endian       =  little
//    Source file  =  
//        E:\code\Robin_Nano_SVN\branches\robin_nano35源码\robin_nano35_v1.0.4_source\Middlewares\Third_Party\Marlin\Marlin_main.cpp
//    Command line =  
//        E:\code\Robin_Nano_SVN\branches\robin_nano35源码\robin_nano35_v1.0.4_source\Middlewares\Third_Party\Marlin\Marlin_main.cpp
//        -D USE_HAL_DRIVER -D STM32F103xE -D STM32F10X_HD -D USE_HAL_LIB -D
//        MKS_ROBIN_NANO -D TFT35 -lC
//        E:\code\Robin_Nano_SVN\branches\robin_nano35源码\robin_nano35_v1.0.4_source\EWARM\mksRobinNano/List\
//        -lA
//        E:\code\Robin_Nano_SVN\branches\robin_nano35源码\robin_nano35_v1.0.4_source\EWARM\mksRobinNano/List\
//        --diag_suppress Pa050 -o
//        E:\code\Robin_Nano_SVN\branches\robin_nano35源码\robin_nano35_v1.0.4_source\EWARM\mksRobinNano/Obj\
//        --no_unroll --no_inline --no_tbaa --no_scheduling --debug
//        --endian=little --cpu=Cortex-M3 -e --char_is_signed --fpu=None
//        --dlib_config "C:\Program Files (x86)\IAR Systems\Embedded Workbench
//        7.0\arm\INC\c\DLib_Config_Full.h" -I
//        E:\code\Robin_Nano_SVN\branches\robin_nano35源码\robin_nano35_v1.0.4_source\EWARM/../Inc\
//        -I
//        E:\code\Robin_Nano_SVN\branches\robin_nano35源码\robin_nano35_v1.0.4_source\EWARM/../Src\
//        -I
//        E:\code\Robin_Nano_SVN\branches\robin_nano35源码\robin_nano35_v1.0.4_source\EWARM/../Drivers/STM32F1xx_HAL_Driver/Inc\
//        -I
//        E:\code\Robin_Nano_SVN\branches\robin_nano35源码\robin_nano35_v1.0.4_source\EWARM/../Drivers/STM32F1xx_HAL_Driver/Inc/Legacy\
//        -I
//        E:\code\Robin_Nano_SVN\branches\robin_nano35源码\robin_nano35_v1.0.4_source\EWARM/../Middlewares/Third_Party/FatFs/src/drivers\
//        -I
//        E:\code\Robin_Nano_SVN\branches\robin_nano35源码\robin_nano35_v1.0.4_source\EWARM/../Middlewares/ST/STM32_USB_Host_Library/Core/Inc\
//        -I
//        E:\code\Robin_Nano_SVN\branches\robin_nano35源码\robin_nano35_v1.0.4_source\EWARM/../Middlewares/ST/STM32_USB_Host_Library/Class/MSC/Inc\
//        -I
//        E:\code\Robin_Nano_SVN\branches\robin_nano35源码\robin_nano35_v1.0.4_source\EWARM/../Drivers/CMSIS/Device/ST/STM32F1xx/Include\
//        -I
//        E:\code\Robin_Nano_SVN\branches\robin_nano35源码\robin_nano35_v1.0.4_source\EWARM/../Middlewares/Third_Party/FatFs/src\
//        -I
//        E:\code\Robin_Nano_SVN\branches\robin_nano35源码\robin_nano35_v1.0.4_source\EWARM/../Drivers/CMSIS/Include\
//        -I
//        E:\code\Robin_Nano_SVN\branches\robin_nano35源码\robin_nano35_v1.0.4_source\EWARM/../Drivers/BSP/variant\
//        -I
//        E:\code\Robin_Nano_SVN\branches\robin_nano35源码\robin_nano35_v1.0.4_source\EWARM/../Drivers/BSP/Components/at24cxx\
//        -I
//        E:\code\Robin_Nano_SVN\branches\robin_nano35源码\robin_nano35_v1.0.4_source\EWARM/../Drivers/BSP/Components/w25qxx\
//        -I
//        E:\code\Robin_Nano_SVN\branches\robin_nano35源码\robin_nano35_v1.0.4_source\EWARM/../Drivers/BSP/Components/lcd\
//        -I
//        E:\code\Robin_Nano_SVN\branches\robin_nano35源码\robin_nano35_v1.0.4_source\EWARM/../Drivers/STM32F10x_StdPeriph_Driver/inc\
//        -I
//        E:\code\Robin_Nano_SVN\branches\robin_nano35源码\robin_nano35_v1.0.4_source\EWARM/../Drivers/libstmf4/include\
//        -I
//        E:\code\Robin_Nano_SVN\branches\robin_nano35源码\robin_nano35_v1.0.4_source\EWARM/../Middlewares/arduino/stm32/cores/arduino\
//        -I
//        E:\code\Robin_Nano_SVN\branches\robin_nano35源码\robin_nano35_v1.0.4_source\EWARM/../User/ui\
//        -I
//        E:\code\Robin_Nano_SVN\branches\robin_nano35源码\robin_nano35_v1.0.4_source\EWARM/../User/ui/Multi_language\
//        -I
//        E:\code\Robin_Nano_SVN\branches\robin_nano35源码\robin_nano35_v1.0.4_source\EWARM/../User/ui/QRENCODE\
//        -I
//        E:\code\Robin_Nano_SVN\branches\robin_nano35源码\robin_nano35_v1.0.4_source\EWARM\..\Middlewares\
//        -I
//        E:\code\Robin_Nano_SVN\branches\robin_nano35源码\robin_nano35_v1.0.4_source\EWARM\..\Middlewares\GUI\
//        -I
//        E:\code\Robin_Nano_SVN\branches\robin_nano35源码\robin_nano35_v1.0.4_source\EWARM\..\Middlewares\Third_Party\Marlin\
//        -Om --eec++ -I "C:\Program Files (x86)\IAR Systems\Embedded Workbench
//        7.0\arm\CMSIS\Include\"
//    List file    =  
//        E:\code\Robin_Nano_SVN\branches\robin_nano35源码\robin_nano35_v1.0.4_source\EWARM\mksRobinNano/List\Marlin_main.s
//
///////////////////////////////////////////////////////////////////////////////

        RTMODEL "__CPP_Language", "EC++"
        RTMODEL "__SystemLibrary", "DLib"
        RTMODEL "__dlib_file_descriptor", "1"
        RTMODEL "__dlib_full_locale_support", "1"
        RTMODEL "__iar_require _Printf", "floats,int_specials,widths"
        AAPCS BASE,INTERWORK
        PRESERVE8
        REQUIRE8

        #define SHT_PROGBITS 0x1
        #define SHT_INIT_ARRAY 0xe

        EXTERN AT24CXX_Read
        EXTERN BMP_PIC_X
        EXTERN BMP_PIC_Y
        EXTERN GUI_DispStringAt
        EXTERN GUI_Exec
        EXTERN GUI_Init
        EXTERN GUI_RefreshPage
        EXTERN GUI_SetBkColor
        EXTERN GUI_SetColor
        EXTERN GUI_TOUCH_Exec
        EXTERN GUI_UC_SetEncodeUTF8
        EXTERN HAL_Delay
        EXTERN HAL_GPIO_ReadPin
        EXTERN HAL_GPIO_WritePin
        EXTERN HAL_GetTick
        EXTERN IsChooseAutoShutdown
        EXTERN SD_Init
        EXTERN SD_Path
        EXTERN Serial3
        EXTERN _Z10safe_delaym
        EXTERN _Z12wifi_loopingv
        EXTERN _Z14mksBeeperAlarmv
        EXTERN _Z17serial_echopair_PPKcS0_
        EXTERN _Z17serial_echopair_PPKcd
        EXTERN _Z17serial_echopair_PPKcf
        EXTERN _Z17serial_echopair_PPKci
        EXTERN _Z17serial_echopair_PPKcm
        EXTERN _Z18apply_rotation_xyz10matrix_3x3RfS0_S0_
        EXTERN _Z21Close_machine_displayv
        EXTERN _Z22finish_incremental_LSFP15linear_fit_data
        EXTERN _Z23PowerOff_Filament_Checkv
        EXTERN _Z9gcode_G26v
        EXTERN _ZN10CardReader10removeFileEPc
        EXTERN _ZN10CardReader10reopenfileEPc
        EXTERN _ZN10CardReader11openLogFileEPc
        EXTERN _ZN10CardReader11stopSDPrintEv
        EXTERN _ZN10CardReader12checkFilesysEh
        EXTERN _ZN10CardReader12pauseSDPrintEv
        EXTERN _ZN10CardReader13write_commandEPc
        EXTERN _ZN10CardReader14checkautostartEb
        EXTERN _ZN10CardReader14startFileprintEv
        EXTERN _ZN10CardReader19printingHasFinishedEv
        EXTERN _ZN10CardReader2lsEv
        EXTERN _ZN10CardReader6initsdEv
        EXTERN _ZN10CardReader7releaseEv
        EXTERN _ZN10CardReader8getsdposEv
        EXTERN _ZN10CardReader8openFileEPcbb
        EXTERN _ZN10CardReader9closefileEb
        EXTERN _ZN10CardReader9getStatusEv
        EXTERN _ZN10CardReaderC1Ev
        EXTERN _ZN10USARTClass11MoremenuCmdEv
        EXTERN _ZN10USARTClass4readEv
        EXTERN _ZN10USARTClass5flushEv
        EXTERN _ZN10USARTClass5writeEh
        EXTERN _ZN10USARTClass9availableEv
        EXTERN _ZN10matrix_3x314create_look_atE8vector_3
        EXTERN _ZN10matrix_3x315set_to_identityEv
        EXTERN _ZN10matrix_3x35debugEPKc
        EXTERN _ZN10matrix_3x39transposeES_
        EXTERN _ZN11GCodeParser10string_argE
        EXTERN _ZN11GCodeParser11command_ptrE
        EXTERN _ZN11GCodeParser14command_letterE
        EXTERN _ZN11GCodeParser18volumetric_enabledE
        EXTERN _ZN11GCodeParser21unknown_command_errorEv
        EXTERN _ZN11GCodeParser5paramE
        EXTERN _ZN11GCodeParser5parseEPc
        EXTERN _ZN11GCodeParser7codenumE
        EXTERN _ZN11GCodeParser8codebitsE
        EXTERN _ZN11GCodeParser9value_ptrE
        EXTERN _ZN11Temperature12PID_autotuneEfaab
        EXTERN _ZN11Temperature13manage_heaterEv
        EXTERN _ZN11Temperature16extrude_min_tempE
        EXTERN _ZN11Temperature18allow_cold_extrudeE
        EXTERN _ZN11Temperature18print_heaterstatesEv
        EXTERN _ZN11Temperature18start_watching_bedEv
        EXTERN _ZN11Temperature18target_temperatureE
        EXTERN _ZN11Temperature19current_temperatureE
        EXTERN _ZN11Temperature19disable_all_heatersEv
        EXTERN _ZN11Temperature19next_temp_report_msE
        EXTERN _ZN11Temperature21start_watching_heaterEh
        EXTERN _ZN11Temperature22target_temperature_bedE
        EXTERN _ZN11Temperature23current_temperature_bedE
        EXTERN _ZN11Temperature24auto_report_temperaturesEv
        EXTERN _ZN11Temperature25auto_report_temp_intervalE
        EXTERN _ZN11Temperature2KdE
        EXTERN _ZN11Temperature2KiE
        EXTERN _ZN11Temperature2KpE
        EXTERN _ZN11Temperature4initEv
        EXTERN _ZN11Temperature5bedKdE
        EXTERN _ZN11Temperature5bedKiE
        EXTERN _ZN11Temperature5bedKpE
        EXTERN _ZN14MarlinSettings15calc_num_meshesEv
        EXTERN _ZN14MarlinSettings4loadEv
        EXTERN _ZN14MarlinSettings4saveEv
        EXTERN _ZN14MarlinSettings5resetEv
        EXTERN _ZN14MarlinSettings6reportEb
        EXTERN _ZN14MarlinSettings9load_meshEaPv
        EXTERN _ZN17mesh_bed_leveling13index_to_xposE
        EXTERN _ZN17mesh_bed_leveling13index_to_yposE
        EXTERN _ZN17mesh_bed_leveling5resetEv
        EXTERN _ZN17mesh_bed_leveling8has_meshE
        EXTERN _ZN17mesh_bed_leveling8z_offsetE
        EXTERN _ZN17mesh_bed_leveling8z_valuesE
        EXTERN _ZN20unified_bed_leveling11display_mapEi
        EXTERN _ZN20unified_bed_leveling12storage_slotE
        EXTERN _ZN20unified_bed_leveling13gcode_G29_UBLEv
        EXTERN _ZN20unified_bed_leveling19_mesh_index_to_xposE
        EXTERN _ZN20unified_bed_leveling19_mesh_index_to_yposE
        EXTERN _ZN20unified_bed_leveling25prepare_segmented_line_toERA4_KfRS0_
        EXTERN _ZN20unified_bed_leveling29line_to_destination_cartesianERKfh
        EXTERN _ZN20unified_bed_leveling31find_closest_mesh_point_of_typeE13MeshPointTypeRKfS2_bPj
        EXTERN _ZN20unified_bed_leveling5resetEv
        EXTERN _ZN20unified_bed_leveling8z_valuesE
        EXTERN _ZN20unified_bed_levelingC1Ev
        EXTERN _ZN5Print5printEPKc
        EXTERN _ZN5Print5printEdi
        EXTERN _ZN5Print5printEhi
        EXTERN _ZN5Print5printEii
        EXTERN _ZN5Print5printEli
        EXTERN _ZN7Planner11last_fade_zE
        EXTERN _ZN7Planner12accelerationE
        EXTERN _ZN7Planner13filament_sizeE
        EXTERN _ZN7Planner13z_fade_heightE
        EXTERN _ZN7Planner14apply_levelingERfS0_S0_
        EXTERN _ZN7Planner14buffer_segmentERKfS1_S1_S1_S1_h
        EXTERN _ZN7Planner15flow_percentageE
        EXTERN _ZN7Planner15leveling_activeE
        EXTERN _ZN7Planner15set_position_mmE8AxisEnumRKf
        EXTERN _ZN7Planner16_set_position_mmERKfS1_S1_S1_
        EXTERN _ZN7Planner16bed_level_matrixE
        EXTERN _ZN7Planner16unapply_levelingEPf
        EXTERN _ZN7Planner17axis_steps_per_mmE
        EXTERN _ZN7Planner17block_buffer_headE
        EXTERN _ZN7Planner17block_buffer_tailE
        EXTERN _ZN7Planner17max_feedrate_mm_sE
        EXTERN _ZN7Planner17min_feedrate_mm_sE
        EXTERN _ZN7Planner18autotemp_M104_M109Ev
        EXTERN _ZN7Planner19check_axes_activityEv
        EXTERN _ZN7Planner19min_segment_time_usE
        EXTERN _ZN7Planner19refresh_positioningEv
        EXTERN _ZN7Planner19travel_accelerationE
        EXTERN _ZN7Planner20retract_accelerationE
        EXTERN _ZN7Planner21inverse_z_fade_heightE
        EXTERN _ZN7Planner21volumetric_multiplierE
        EXTERN _ZN7Planner24min_travel_feedrate_mm_sE
        EXTERN _ZN7Planner24reset_acceleration_ratesEv
        EXTERN _ZN7Planner25set_position_mm_kinematicERA4_Kf
        EXTERN _ZN7Planner26max_acceleration_mm_per_s2E
        EXTERN _ZN7Planner29max_acceleration_steps_per_s2E
        EXTERN _ZN7Planner32calculate_volumetric_multipliersEv
        EXTERN _ZN7Planner8e_factorE
        EXTERN _ZN7Planner8max_jerkE
        EXTERN _ZN7Planner8positionE
        EXTERN _ZN7Stepper10quick_stopEv
        EXTERN _ZN7Stepper11synchronizeEv
        EXTERN _ZN7Stepper14locked_z_motorE
        EXTERN _ZN7Stepper15locked_z2_motorE
        EXTERN _ZN7Stepper16report_positionsEv
        EXTERN _ZN7Stepper17performing_homingE
        EXTERN _ZN7Stepper18finish_and_disableEv
        EXTERN _ZN7Stepper20get_axis_position_mmE8AxisEnum
        EXTERN _ZN7Stepper4initEv
        EXTERN _ZN8Endstops12report_stateEv
        EXTERN _ZN8Endstops15z_probe_enabledE
        EXTERN _ZN8Endstops16enabled_globallyE
        EXTERN _ZN8Endstops16endstop_hit_bitsE
        EXTERN _ZN8Endstops4M119Ev
        EXTERN _ZN8Endstops7enabledE
        EXTERN _ZN8vector_310get_normalEv
        EXTERN _ZN8vector_314apply_rotationE10matrix_3x3
        EXTERN _ZN8vector_35crossES_S_
        EXTERN _ZN8vector_3C1Efff
        EXTERN _ZN8vector_3miES_
        EXTERN _ZN9Stopwatch4stopEv
        EXTERN _ZN9Stopwatch5pauseEv
        EXTERN _ZN9Stopwatch5startEv
        EXTERN _ZN9Stopwatch7getTimeEPmS0_S0_
        EXTERN _ZN9Stopwatch8durationEv
        EXTERN _ZN9StopwatchC1Ev
        EXTERN __aeabi_cdrcmple
        EXTERN __aeabi_cfcmpeq
        EXTERN __aeabi_cfcmple
        EXTERN __aeabi_cfrcmple
        EXTERN __aeabi_d2f
        EXTERN __aeabi_d2iz
        EXTERN __aeabi_d2uiz
        EXTERN __aeabi_dadd
        EXTERN __aeabi_ddiv
        EXTERN __aeabi_dmul
        EXTERN __aeabi_dsub
        EXTERN __aeabi_f2d
        EXTERN __aeabi_f2iz
        EXTERN __aeabi_f2uiz
        EXTERN __aeabi_fadd
        EXTERN __aeabi_fdiv
        EXTERN __aeabi_fmul
        EXTERN __aeabi_fsub
        EXTERN __aeabi_i2d
        EXTERN __aeabi_i2f
        EXTERN __aeabi_memclr4
        EXTERN __aeabi_memcpy
        EXTERN __aeabi_memcpy4
        EXTERN __aeabi_ui2d
        EXTERN __aeabi_ui2f
        EXTERN __iar_FDtest
        EXTERN __iar_Strchr
        EXTERN __iar_Strrchr
        EXTERN __iar_Strstr
        EXTERN abs
        EXTERN atan2f
        EXTERN atof
        EXTERN atoi
        EXTERN clear_cur_ui
        EXTERN cos
        EXTERN cosf
        EXTERN curFileName
        EXTERN default_preview_flg
        EXTERN disp_pre_gcode
        EXTERN disp_state_stack
        EXTERN draw_dialog
        EXTERN draw_printing
        EXTERN draw_ready_print
        EXTERN draw_return_ui
        EXTERN echomagic
        EXTERN epr_read_data
        EXTERN epr_write_data
        EXTERN errormagic
        EXTERN espGcodeFifo
        EXTERN f_close
        EXTERN f_lseek
        EXTERN f_open
        EXTERN f_printf
        EXTERN f_read
        EXTERN filament_det1_cnt
        EXTERN filament_det1_flg
        EXTERN filament_det1_high_cnt
        EXTERN filament_det1_high_flg
        EXTERN filament_det1_low_cnt
        EXTERN filament_det1_low_flg
        EXTERN filament_det2_cnt
        EXTERN filament_det2_flg
        EXTERN filament_det2_high_cnt
        EXTERN filament_det2_high_flg
        EXTERN filament_det2_low_cnt
        EXTERN filament_det2_low_flg
        EXTERN filament_rate
        EXTERN flash_preview_begin
        EXTERN floor
        EXTERN floorf
        EXTERN free
        EXTERN from_flash_pic
        EXTERN gArrayGpioPin
        EXTERN gArrayGpioPort
        EXTERN gCfgItems
        EXTERN getTick
        EXTERN getTickDiff
        EXTERN gui_view_init
        EXTERN ipPara
        EXTERN key_value_calc
        EXTERN leveling_first_time
        EXTERN logo_tick1
        EXTERN logo_tick2
        EXTERN lroundf
        EXTERN malloc
        EXTERN memcmp
        EXTERN memcpy
        EXTERN memset
        EXTERN mksCfg
        EXTERN mksTmp
        EXTERN parser
        EXTERN pause_resum
        EXTERN poweroff_det_cnt
        EXTERN poweroff_det_flg
        EXTERN poweroff_det_high_cnt
        EXTERN poweroff_det_high_flg
        EXTERN poweroff_det_low_cnt
        EXTERN poweroff_det_low_flg
        EXTERN preview_gcode_prehandle
        EXTERN print_time
        EXTERN rand
        EXTERN reset_file_info
        EXTERN reset_print_time
        EXTERN sin
        EXTERN sinf
        EXTERN sprintf
        EXTERN sqrt
        EXTERN sqrtf
        EXTERN start_print_time
        EXTERN stop_print_time
        EXTERN strcat
        EXTERN strcmp
        EXTERN strcpy
        EXTERN strncpy
        EXTERN strtod
        EXTERN strtol
        EXTERN strtoul
        EXTERN temperature_change_frequency
        EXTERN thermalManager
        EXTERN tips_disp
        EXTERN wifiPara
        EXTERN wifi_check_time
        EXTERN wifi_link_state

        PUBLIC EXTI9_5_IRQHandler
        PUBLIC L1
        PUBLIC L2
        PUBLIC Running
        PUBLIC TimeIncrease
        PUBLIC _Z10freeMemoryv
        PUBLIC _Z10gcode_M104v
        PUBLIC _Z10gcode_M105v
        PUBLIC _Z10gcode_M106v
        PUBLIC _Z10gcode_M107v
        PUBLIC _Z10gcode_M108v
        PUBLIC _Z10gcode_M109v
        PUBLIC _Z10gcode_M110v
        PUBLIC _Z10gcode_M111v
        PUBLIC _Z10gcode_M112v
        PUBLIC _Z10gcode_M113v
        PUBLIC _Z10gcode_M114v
        PUBLIC _Z10gcode_M115v
        PUBLIC _Z10gcode_M117v
        PUBLIC _Z10gcode_M118v
        PUBLIC _Z10gcode_M119v
        PUBLIC _Z10gcode_M120v
        PUBLIC _Z10gcode_M121v
        PUBLIC _Z10gcode_M140v
        PUBLIC _Z10gcode_M155v
        PUBLIC _Z10gcode_M190v
        PUBLIC _Z10gcode_M200v
        PUBLIC _Z10gcode_M201v
        PUBLIC _Z10gcode_M203v
        PUBLIC _Z10gcode_M204v
        PUBLIC _Z10gcode_M205v
        PUBLIC _Z10gcode_M206v
        PUBLIC _Z10gcode_M211v
        PUBLIC _Z10gcode_M218v
        PUBLIC _Z10gcode_M220v
        PUBLIC _Z10gcode_M221v
        PUBLIC _Z10gcode_M226v
        PUBLIC _Z10gcode_M280v
        PUBLIC _Z10gcode_M301v
        PUBLIC _Z10gcode_M302v
        PUBLIC _Z10gcode_M303v
        PUBLIC _Z10gcode_M304v
        PUBLIC _Z10gcode_M355v
        PUBLIC _Z10gcode_M360v
        PUBLIC _Z10gcode_M361v
        PUBLIC _Z10gcode_M362v
        PUBLIC _Z10gcode_M363v
        PUBLIC _Z10gcode_M364v
        PUBLIC _Z10gcode_M400v
        PUBLIC _Z10gcode_M401v
        PUBLIC _Z10gcode_M402v
        PUBLIC _Z10gcode_M410v
        PUBLIC _Z10gcode_M420v
        PUBLIC _Z10gcode_M428v
        PUBLIC _Z10gcode_M500v
        PUBLIC _Z10gcode_M501v
        PUBLIC _Z10gcode_M502v
        PUBLIC _Z10gcode_M503v
        PUBLIC _Z10gcode_M665v
        PUBLIC _Z10gcode_M666v
        PUBLIC _Z10gcode_M851v
        PUBLIC _Z10gcode_M907v
        PUBLIC _Z10gcode_M928v
        PUBLIC _Z10gcode_M998v
        PUBLIC _Z10gcode_M999v
        PUBLIC _Z10home_deltav
        PUBLIC _Z10lcd_reInitv
        PUBLIC _Z10lcd_updatev
        PUBLIC _Z10ok_to_sendv
        PUBLIC _Z10servo_initv
        PUBLIC _Z11gcode_G0_G1v
        PUBLIC _Z11gcode_G2_G3b
        PUBLIC _Z11lcd_refreshv
        PUBLIC _Z11tool_changehfb
        PUBLIC _Z12ADJUST_DELTAPKf
        PUBLIC _Z13gcode_G29_UBLv
        PUBLIC _Z13gcode_M18_M84v
        PUBLIC _Z13home_all_axesv
        PUBLIC _Z13lcd_hasstatusv
        PUBLIC _Z13lcd_setstatusPKcb
        PUBLIC _Z13setup_killpinv
        PUBLIC _Z14do_probe_raisef
        PUBLIC _Z14host_keepalivev
        PUBLIC _Z14mks_WriteToEprv
        PUBLIC _Z14serialprintPGMPKc
        PUBLIC _Z15_commit_commandb
        PUBLIC _Z15_enqueuecommandPKcb
        PUBLIC _Z15_manual_goto_xyRKfS0_
        PUBLIC _Z15bltouch_commandi
        PUBLIC _Z15gcode_M666_dualv
        PUBLIC _Z15incremental_LSFP15linear_fit_dataRKfS2_S2_
        PUBLIC _Z15mbl_mesh_reportv
        PUBLIC _Z15mks_setFeedratev
        PUBLIC _Z15reset_bed_levelv
        PUBLIC _Z15setup_powerholdv
        PUBLIC _Z16display_sd_errorv
        PUBLIC _Z16echo_not_enteredv
        PUBLIC _Z16gcode_line_errorPKcb
        PUBLIC _Z16lcd_setstatusPGMPKca
        PUBLIC _Z16mks_get_commandsv
        PUBLIC _Z17SCARA_move_to_calhh
        PUBLIC _Z17bilinear_z_offsetPKf
        PUBLIC _Z17gcode_G0_G1_SCARAb
        PUBLIC _Z17get_wifi_commandsv
        PUBLIC _Z17leveling_is_validv
        PUBLIC _Z17manage_inactivityb
        PUBLIC _Z17mkstft_ui_set_eprv
        PUBLIC _Z17quickstop_stepperv
        PUBLIC _Z17refresh_bed_levelv
        PUBLIC _Z17serial_echopair_PPKcb
        PUBLIC _Z17set_z_fade_heightfb
        PUBLIC _Z17temper_error_killv
        PUBLIC _Z18axis_unhomed_errorbbb
        PUBLIC _Z18disable_e_steppersv
        PUBLIC _Z18inverse_kinematicsPKf
        PUBLIC _Z18mks_ResetPositionZf
        PUBLIC _Z18mks_leveling_moveZf
        PUBLIC _Z18mks_moveZ_relativef
        PUBLIC _Z18mks_setTemperaturev
        PUBLIC _Z18out_of_range_errorPKc
        PUBLIC _Z18set_probe_deployedb
        PUBLIC _Z18sync_plan_positionv
        PUBLIC _Z19clear_command_queuev
        PUBLIC _Z19do_blocking_move_toRKfS0_S0_S0_
        PUBLIC _Z19enable_all_steppersv
        PUBLIC _Z19get_sdcard_commandsv
        PUBLIC _Z19get_serial_commandsv
        PUBLIC _Z19mks_leveling_moveXYff
        PUBLIC _Z19refresh_cmd_timeoutv
        PUBLIC _Z20SysTick_Handler_Userv
        PUBLIC _Z20disable_all_steppersv
        PUBLIC _Z20display_temper_errorv
        PUBLIC _Z20process_next_commandv
        PUBLIC _Z20set_bltouch_deployedb
        PUBLIC _Z20sync_plan_position_ev
        PUBLIC _Z21do_blocking_move_to_xRKfS0_
        PUBLIC _Z21do_blocking_move_to_zRKfS0_
        PUBLIC _Z21gcode_get_destinationv
        PUBLIC _Z21incremental_LSF_resetP15linear_fit_data
        PUBLIC _Z21lcd_reset_alert_levelv
        PUBLIC _Z21lcd_setalertstatusPGMPKc
        PUBLIC _Z21mks_WriteToEpr_pwroffv
        PUBLIC _Z21recalc_delta_settingsv
        PUBLIC _Z21soft_endstop_min_initv
        PUBLIC _Z22do_blocking_move_to_xyRKfS0_S0_
        PUBLIC _Z22get_available_commandsv
        PUBLIC _Z22invalid_extruder_errorh
        PUBLIC _Z22mks_ReadFromEpr_pwroffv
        PUBLIC _Z22process_parsed_commandv
        PUBLIC _Z23report_current_positionv
        PUBLIC _Z24FlushSerialRequestResendv
        PUBLIC _Z24enqueue_and_echo_commandPKcb
        PUBLIC _Z24forward_kinematics_DELTAPf
        PUBLIC _Z24forward_kinematics_DELTAfff
        PUBLIC _Z24forward_kinematics_SCARARKfS0_
        PUBLIC _Z24get_homing_bump_feedrate8AxisEnum
        PUBLIC _Z24mesh_line_to_destinationfhh
        PUBLIC _Z24set_bed_leveling_enabledb
        PUBLIC _Z24update_software_endstops8AxisEnum
        PUBLIC _Z25prepare_kinematic_move_toRA4_Kf
        PUBLIC _Z26buffer_line_to_destinationf
        PUBLIC _Z26clamp_to_software_endstopsPf
        PUBLIC _Z27enqueue_and_echo_commands_PPKc
        PUBLIC _Z27gcode_G29_MESH_BED_LEVELINGv
        PUBLIC _Z27get_cartesian_from_steppersv
        PUBLIC _Z27prepare_move_to_destinationv
        PUBLIC _Z28SYNC_PLAN_POSITION_KINEMATICv
        PUBLIC _Z28bilinear_line_to_destinationftt
        PUBLIC _Z28delta_safe_distance_from_topv
        PUBLIC _Z28gcode_M421_MESH_BED_LEVELINGv
        PUBLIC _Z28set_current_from_destinationv
        PUBLIC _Z28set_destination_from_currentv
        PUBLIC _Z28sync_plan_position_kinematicv
        PUBLIC _Z31buffer_line_to_current_positionv
        PUBLIC _Z31inverse_kinematics_MORGAN_SCARAPKf
        PUBLIC _Z32gcode_M421_AUTO_BED_LEVELING_UBLv
        PUBLIC _Z32get_target_extruder_from_commandt
        PUBLIC _Z34position_is_reachable_IS_CARTESIANRKfS0_
        PUBLIC _Z34position_is_reachable_IS_KINEMATICRKfS0_
        PUBLIC _Z34set_current_from_steppers_for_axis8AxisEnum
        PUBLIC _Z37gcode_M421_AUTO_BED_LEVELING_BILINEARv
        PUBLIC _Z37prepare_move_to_destination_cartesianv
        PUBLIC _Z42prepare_uninterpolated_move_to_destinationf
        PUBLIC _Z43position_is_reachable_by_probe_IS_CARTESIANRKfS0_
        PUBLIC _Z43position_is_reachable_by_probe_IS_KINEMATICRKfS0_
        PUBLIC _Z4idlev
        PUBLIC _Z4killPKc
        PUBLIC _Z4stopv
        PUBLIC _Z5dwellm
        PUBLIC _Z6Beeperj
        PUBLIC _Z6strchrPci
        PUBLIC _Z6strstrPcPKc
        PUBLIC _Z7gcode_Th
        PUBLIC _Z7mks_G28Pc
        PUBLIC _Z7pft_getv
        PUBLIC _Z7strrchrPci
        PUBLIC _Z7suicidev
        PUBLIC _Z8gcode_G4v
        PUBLIC _Z8lcd_initv
        PUBLIC _Z8plan_arcRA4_KfRA2_S_b
        PUBLIC _Z8probe_ptRKfS0_bhb
        PUBLIC _Z9IsRunningv
        PUBLIC _Z9IsStoppedv
        PUBLIC _Z9gcode_G28b
        PUBLIC _Z9gcode_G29v
        PUBLIC _Z9gcode_G30v
        PUBLIC _Z9gcode_G42v
        PUBLIC _Z9gcode_G92v
        PUBLIC _Z9gcode_M17v
        PUBLIC _Z9gcode_M20v
        PUBLIC _Z9gcode_M22v
        PUBLIC _Z9gcode_M23v
        PUBLIC _Z9gcode_M24v
        PUBLIC _Z9gcode_M25v
        PUBLIC _Z9gcode_M26v
        PUBLIC _Z9gcode_M27v
        PUBLIC _Z9gcode_M28v
        PUBLIC _Z9gcode_M29v
        PUBLIC _Z9gcode_M30v
        PUBLIC _Z9gcode_M31v
        PUBLIC _Z9gcode_M32v
        PUBLIC _Z9gcode_M42v
        PUBLIC _Z9gcode_M49v
        PUBLIC _Z9gcode_M75v
        PUBLIC _Z9gcode_M76v
        PUBLIC _Z9gcode_M77v
        PUBLIC _Z9gcode_M81v
        PUBLIC _Z9gcode_M82v
        PUBLIC _Z9gcode_M83v
        PUBLIC _Z9gcode_M85v
        PUBLIC _Z9gcode_M92v
        PUBLIC _ZGVZ25prepare_kinematic_move_toRA4_KfE12next_idle_ms
        PUBLIC _ZN10CardReader10isFileOpenEv
        PUBLIC _ZN10CardReader3eofEv
        PUBLIC _ZN10CardReader3getEv
        PUBLIC _ZN10CardReader8setIndexEl
        PUBLIC _ZN10duration_tC1ERKj
        PUBLIC _ZN11GCodeParser10celsiusvalEcf
        PUBLIC _ZN11GCodeParser10value_boolEv
        PUBLIC _ZN11GCodeParser10value_byteEv
        PUBLIC _ZN11GCodeParser10value_longEv
        PUBLIC _ZN11GCodeParser11value_floatEv
        PUBLIC _ZN11GCodeParser11value_ulongEv
        PUBLIC _ZN11GCodeParser12value_millisEv
        PUBLIC _ZN11GCodeParser12value_ushortEv
        PUBLIC _ZN11GCodeParser13value_celsiusEv
        PUBLIC _ZN11GCodeParser14value_feedrateEv
        PUBLIC _ZN11GCodeParser16value_axis_unitsE8AxisEnum
        PUBLIC _ZN11GCodeParser18value_linear_unitsEv
        PUBLIC _ZN11GCodeParser19value_per_axis_unitE8AxisEnum
        PUBLIC _ZN11GCodeParser25value_millis_from_secondsEv
        PUBLIC _ZN11GCodeParser4seenEc
        PUBLIC _ZN11GCodeParser6intvalEcs
        PUBLIC _ZN11GCodeParser7boolvalEc
        PUBLIC _ZN11GCodeParser7bytevalEch
        PUBLIC _ZN11GCodeParser7seenvalEc
        PUBLIC _ZN11GCodeParser9has_valueEv
        PUBLIC _ZN11GCodeParser9linearvalEcf
        PUBLIC _ZN11GCodeParser9ushortvalEct
        PUBLIC _ZN11GCodeParser9value_intEv
        PUBLIC _ZN11Temperature12degTargetBedEv
        PUBLIC _ZN11Temperature12isCoolingBedEv
        PUBLIC _ZN11Temperature12setTargetBedEf
        PUBLIC _ZN11Temperature15degTargetHotendEh
        PUBLIC _ZN11Temperature15isCoolingHotendEh
        PUBLIC _ZN11Temperature15setTargetHotendEfh
        PUBLIC _ZN11Temperature16tooColdToExtrudeEh
        PUBLIC _ZN11Temperature24set_auto_report_intervalEh
        PUBLIC _ZN11Temperature6degBedEv
        PUBLIC _ZN11Temperature9degHotendEh
        PUBLIC _ZN11Temperature9updatePIDEv
        PUBLIC _ZN17mesh_bed_leveling12cell_index_xERKf
        PUBLIC _ZN17mesh_bed_leveling12cell_index_yERKf
        PUBLIC _ZN17mesh_bed_leveling12set_zigzag_zEaRKf
        PUBLIC _ZN17mesh_bed_leveling13probe_index_xERKf
        PUBLIC _ZN17mesh_bed_leveling13probe_index_yERKf
        PUBLIC _ZN17mesh_bed_leveling5set_zEaaRKf
        PUBLIC _ZN17mesh_bed_leveling6zigzagEaRaS0_
        PUBLIC _ZN20unified_bed_leveling13mesh_is_validEv
        PUBLIC _ZN20unified_bed_leveling18mesh_index_to_xposEh
        PUBLIC _ZN20unified_bed_leveling18mesh_index_to_yposEh
        PUBLIC _ZN7Planner11buffer_lineEfffRKfS1_h
        PUBLIC _ZN7Planner13blocks_queuedEv
        PUBLIC _ZN7Planner14apply_levelingERA3_f
        PUBLIC _ZN7Planner15set_position_mmEfffRKf
        PUBLIC _ZN7Planner16refresh_e_factorEh
        PUBLIC _ZN7Planner17force_fade_recalcEv
        PUBLIC _ZN7Planner17set_e_position_mmERKf
        PUBLIC _ZN7Planner17set_filament_sizeEhRKf
        PUBLIC _ZN7Planner17set_z_fade_heightERKf
        PUBLIC _ZN7Planner20leveling_active_at_zERKf
        PUBLIC _ZN7Planner21buffer_line_kinematicERA4_KfRS0_h
        PUBLIC _ZN7Stepper10set_z_lockEb
        PUBLIC _ZN7Stepper11set_z2_lockEb
        PUBLIC _ZN7Stepper17set_homing_flag_zEb
        PUBLIC _ZN7Stepper25get_axis_position_degreesE8AxisEnum
        PUBLIC _ZN8Endstops10not_homingEv
        PUBLIC _ZN8Endstops14enable_z_probeEb
        PUBLIC _ZN8Endstops14hit_on_purposeEv
        PUBLIC _ZN8Endstops15enable_globallyEb
        PUBLIC _ZN8Endstops6enableEb
        PUBLIC _ZNK10duration_t3dayEv
        PUBLIC _ZNK10duration_t4hourEv
        PUBLIC _ZNK10duration_t4yearEv
        PUBLIC _ZNK10duration_t6minuteEv
        PUBLIC _ZNK10duration_t6secondEv
        PUBLIC _ZNK10duration_t8toStringEPc
        PUBLIC _ZTI5Print
        PUBLIC _ZZ10gcode_M104vEs
        PUBLIC _ZZ10gcode_M104vEs_0
        PUBLIC _ZZ10gcode_M104vEs_1
        PUBLIC _ZZ10gcode_M104vEs_2
        PUBLIC _ZZ10gcode_M104vEs_3
        PUBLIC _ZZ10gcode_M104vEs_4
        PUBLIC _ZZ10gcode_M105vEs
        PUBLIC _ZZ10gcode_M109vEs
        PUBLIC _ZZ10gcode_M109vEs_0
        PUBLIC _ZZ10gcode_M109vEs_1
        PUBLIC _ZZ10gcode_M109vEs_2
        PUBLIC _ZZ10gcode_M109vEs_3
        PUBLIC _ZZ10gcode_M109vEs_4
        PUBLIC _ZZ10gcode_M109vEs_5
        PUBLIC _ZZ10gcode_M109vEs_6
        PUBLIC _ZZ10gcode_M111vE11str_debug_1
        PUBLIC _ZZ10gcode_M111vE11str_debug_2
        PUBLIC _ZZ10gcode_M111vE11str_debug_4
        PUBLIC _ZZ10gcode_M111vE11str_debug_8
        PUBLIC _ZZ10gcode_M111vE12str_debug_16
        PUBLIC _ZZ10gcode_M111vE13debug_strings
        PUBLIC _ZZ10gcode_M111vEs_4
        PUBLIC _ZZ10gcode_M111vEs_5
        PUBLIC _ZZ10gcode_M112vEs
        PUBLIC _ZZ10gcode_M113vEs
        PUBLIC _ZZ10gcode_M115vEs
        PUBLIC _ZZ10gcode_M115vEs_0
        PUBLIC _ZZ10gcode_M115vEs_1
        PUBLIC _ZZ10gcode_M115vEs_2
        PUBLIC _ZZ10gcode_M115vEs_3
        PUBLIC _ZZ10gcode_M115vEs_4
        PUBLIC _ZZ10gcode_M115vEs_5
        PUBLIC _ZZ10gcode_M115vEs_6
        PUBLIC _ZZ10gcode_M115vEs_7
        PUBLIC _ZZ10gcode_M115vEs_8
        PUBLIC _ZZ10gcode_M115vEs_9
        PUBLIC _ZZ10gcode_M115vEs__10_
        PUBLIC _ZZ10gcode_M115vEs__11_
        PUBLIC _ZZ10gcode_M115vEs__12_
        PUBLIC _ZZ10gcode_M115vEs__13_
        PUBLIC _ZZ10gcode_M118vEs
        PUBLIC _ZZ10gcode_M190vEs
        PUBLIC _ZZ10gcode_M190vEs_0
        PUBLIC _ZZ10gcode_M190vEs_1
        PUBLIC _ZZ10gcode_M204vEs
        PUBLIC _ZZ10gcode_M204vEs_0
        PUBLIC _ZZ10gcode_M204vEs_1
        PUBLIC _ZZ10gcode_M204vEs_2
        PUBLIC _ZZ10gcode_M211vEs
        PUBLIC _ZZ10gcode_M211vEs_0
        PUBLIC _ZZ10gcode_M211vEs_1
        PUBLIC _ZZ10gcode_M211vEs_2
        PUBLIC _ZZ10gcode_M211vEs_3
        PUBLIC _ZZ10gcode_M211vEs_4
        PUBLIC _ZZ10gcode_M211vEs_5
        PUBLIC _ZZ10gcode_M211vEs_6
        PUBLIC _ZZ10gcode_M218vEs
        PUBLIC _ZZ10gcode_M280vEs
        PUBLIC _ZZ10gcode_M280vEs_0
        PUBLIC _ZZ10gcode_M280vEs_1
        PUBLIC _ZZ10gcode_M301vEs
        PUBLIC _ZZ10gcode_M301vEs_0
        PUBLIC _ZZ10gcode_M301vEs_1
        PUBLIC _ZZ10gcode_M301vEs_2
        PUBLIC _ZZ10gcode_M302vEs
        PUBLIC _ZZ10gcode_M302vEs_0
        PUBLIC _ZZ10gcode_M302vEs_1
        PUBLIC _ZZ10gcode_M302vEs_2
        PUBLIC _ZZ10gcode_M302vEs_3
        PUBLIC _ZZ10gcode_M303vEs
        PUBLIC _ZZ10gcode_M304vEs
        PUBLIC _ZZ10gcode_M304vEs_0
        PUBLIC _ZZ10gcode_M304vEs_1
        PUBLIC _ZZ10gcode_M355vEs
        PUBLIC _ZZ10gcode_M360vEs
        PUBLIC _ZZ10gcode_M361vEs
        PUBLIC _ZZ10gcode_M362vEs
        PUBLIC _ZZ10gcode_M363vEs
        PUBLIC _ZZ10gcode_M364vEs
        PUBLIC _ZZ10gcode_M420vEs
        PUBLIC _ZZ10gcode_M420vEs_0
        PUBLIC _ZZ10gcode_M420vEs_1
        PUBLIC _ZZ10gcode_M420vEs_2
        PUBLIC _ZZ10gcode_M420vEs_3
        PUBLIC _ZZ10gcode_M420vEs_4
        PUBLIC _ZZ10gcode_M420vEs_5
        PUBLIC _ZZ10gcode_M420vEs_6
        PUBLIC _ZZ10gcode_M420vEs_7
        PUBLIC _ZZ10gcode_M420vEs_8
        PUBLIC _ZZ10gcode_M420vEs_9
        PUBLIC _ZZ10gcode_M420vEs__10_
        PUBLIC _ZZ10gcode_M420vEs__11_
        PUBLIC _ZZ10gcode_M428vEs
        PUBLIC _ZZ10gcode_M428vEs_0
        PUBLIC _ZZ10gcode_M428vEs_1
        PUBLIC _ZZ10gcode_M851vEs
        PUBLIC _ZZ10gcode_M851vEs_0
        PUBLIC _ZZ10gcode_M851vEs_1
        PUBLIC _ZZ10home_deltavEs
        PUBLIC _ZZ10home_deltavEs_0
        PUBLIC _ZZ11gcode_G2_G3bEs
        PUBLIC _ZZ15gcode_M666_dualvEs
        PUBLIC _ZZ15gcode_M666_dualvEs_0
        PUBLIC _ZZ17get_wifi_commandsvE16wifi_line_buffer
        PUBLIC _ZZ17get_wifi_commandsvE17wifi_comment_mode
        PUBLIC _ZZ17get_wifi_commandsvEs
        PUBLIC _ZZ17get_wifi_commandsvEs_0
        PUBLIC _ZZ17get_wifi_commandsvEs_1
        PUBLIC _ZZ17get_wifi_commandsvEs_2
        PUBLIC _ZZ17get_wifi_commandsvEs_3
        PUBLIC _ZZ17get_wifi_commandsvEs_4
        PUBLIC _ZZ19get_sdcard_commandsvE14stop_buffering
        PUBLIC _ZZ19get_sdcard_commandsvE15sd_comment_mode
        PUBLIC _ZZ19get_sdcard_commandsvEs
        PUBLIC _ZZ19get_sdcard_commandsvEs_0
        PUBLIC _ZZ19get_serial_commandsvE14last_wait_time
        PUBLIC _ZZ19get_serial_commandsvE18serial_line_buffer
        PUBLIC _ZZ19get_serial_commandsvE19serial_comment_mode
        PUBLIC _ZZ19get_serial_commandsvEs
        PUBLIC _ZZ19get_serial_commandsvEs_0
        PUBLIC _ZZ19get_serial_commandsvEs_1
        PUBLIC _ZZ19get_serial_commandsvEs_2
        PUBLIC _ZZ19get_serial_commandsvEs_3
        PUBLIC _ZZ19get_serial_commandsvEs_4
        PUBLIC _ZZ19get_serial_commandsvEs_5
        PUBLIC _ZZ19get_serial_commandsvEs_6
        PUBLIC _ZZ19get_serial_commandsvEs_7
        PUBLIC _ZZ19get_serial_commandsvEs_8
        PUBLIC _ZZ22invalid_extruder_errorhEs
        PUBLIC _ZZ24get_homing_bump_feedrate8AxisEnumEs
        PUBLIC _ZZ25prepare_kinematic_move_toRA4_KfE12next_idle_ms
        PUBLIC _ZZ27gcode_G29_MESH_BED_LEVELINGvE15mbl_probe_index
        PUBLIC _ZZ27gcode_G29_MESH_BED_LEVELINGvE20enable_soft_endstops
        PUBLIC _ZZ27gcode_G29_MESH_BED_LEVELINGvEs
        PUBLIC _ZZ27gcode_G29_MESH_BED_LEVELINGvEs_0
        PUBLIC _ZZ27gcode_G29_MESH_BED_LEVELINGvEs_1
        PUBLIC _ZZ27gcode_G29_MESH_BED_LEVELINGvEs_2
        PUBLIC _ZZ27gcode_G29_MESH_BED_LEVELINGvEs_3
        PUBLIC _ZZ27gcode_G29_MESH_BED_LEVELINGvEs_4
        PUBLIC _ZZ27gcode_G29_MESH_BED_LEVELINGvEs_5
        PUBLIC _ZZ27gcode_G29_MESH_BED_LEVELINGvEs_6
        PUBLIC _ZZ27gcode_G29_MESH_BED_LEVELINGvEs_7
        PUBLIC _ZZ27gcode_G29_MESH_BED_LEVELINGvEs_8
        PUBLIC _ZZ27gcode_G29_MESH_BED_LEVELINGvEs_9
        PUBLIC _ZZ27gcode_G29_MESH_BED_LEVELINGvEs__10_
        PUBLIC _ZZ27gcode_G29_MESH_BED_LEVELINGvEs__11_
        PUBLIC _ZZ28gcode_M421_MESH_BED_LEVELINGvEs
        PUBLIC _ZZ28gcode_M421_MESH_BED_LEVELINGvEs_0
        PUBLIC _ZZ32gcode_M421_AUTO_BED_LEVELING_UBLvEs
        PUBLIC _ZZ32gcode_M421_AUTO_BED_LEVELING_UBLvEs_0
        PUBLIC _ZZ37gcode_M421_AUTO_BED_LEVELING_BILINEARvEs
        PUBLIC _ZZ37gcode_M421_AUTO_BED_LEVELING_BILINEARvEs_0
        PUBLIC _ZZ8gcode_G4vEs
        PUBLIC _ZZ9gcode_G29vEs
        PUBLIC _ZZ9gcode_G29vEs_0
        PUBLIC _ZZ9gcode_G29vEs_1
        PUBLIC _ZZ9gcode_G29vEs_2
        PUBLIC _ZZ9gcode_G29vEs_3
        PUBLIC _ZZ9gcode_G29vEs_4
        PUBLIC _ZZ9gcode_G29vEs_5
        PUBLIC _ZZ9gcode_G29vEs_6
        PUBLIC _ZZ9gcode_G29vEs_7
        PUBLIC _ZZ9gcode_G29vEs_8
        PUBLIC _ZZ9gcode_G29vEs_9
        PUBLIC _ZZ9gcode_G29vEs__10_
        PUBLIC _ZZ9gcode_G29vEs__11_
        PUBLIC _ZZ9gcode_G29vEs__12_
        PUBLIC _ZZ9gcode_G29vEs__13_
        PUBLIC _ZZ9gcode_G29vEs__14_
        PUBLIC _ZZ9gcode_G29vEs__15_
        PUBLIC _ZZ9gcode_G29vEs__16_
        PUBLIC _ZZ9gcode_G29vEs__17_
        PUBLIC _ZZ9gcode_G29vEs__18_
        PUBLIC _ZZ9gcode_G30vEs
        PUBLIC _ZZ9gcode_G30vEs_0
        PUBLIC _ZZ9gcode_G30vEs_1
        PUBLIC _ZZ9gcode_G42vEs
        PUBLIC _ZZ9gcode_M17vEs
        PUBLIC _ZZ9gcode_M20vEs
        PUBLIC _ZZ9gcode_M20vEs_0
        PUBLIC _ZZ9gcode_M31vEs
        PUBLIC _ZZ9gcode_M42vEs
        PUBLIC _ZZ9gcode_M49vEs
        PUBLIC _ZZ9gcode_M49vEs_0
        PUBLIC _ZZ9gcode_M49vEs_1
        PUBLIC _ZZNK10duration_t8toStringEPcEs
        PUBLIC _ZZNK10duration_t8toStringEPcEs_0
        PUBLIC _ZZNK10duration_t8toStringEPcEs_1
        PUBLIC _ZZNK10duration_t8toStringEPcEs_2
        PUBLIC _ZZNK10duration_t8toStringEPcEs_3
        PUBLIC active_extruder
        PUBLIC axis_homed
        PUBLIC axis_known_position
        PUBLIC axis_relative_modes
        PUBLIC base_home_pos_P
        PUBLIC base_max_pos_P
        PUBLIC base_min_pos_P
        PUBLIC beep_cnt
        PUBLIC beep_flg
        PUBLIC bilinear_grid_factor
        PUBLIC bilinear_grid_spacing
        PUBLIC bilinear_start
        PUBLIC busy_state
        PUBLIC button_disp_pause_state
        PUBLIC card
        PUBLIC cartes
        PUBLIC cloud_refresh_flg
        PUBLIC commands_in_queue
        PUBLIC continue_print_error_flg
        PUBLIC current_position
        PUBLIC delta
        PUBLIC delta_calibration_radius
        PUBLIC delta_clip_start_height
        PUBLIC delta_diagonal_rod
        PUBLIC delta_diagonal_rod_2_tower
        PUBLIC delta_endstop_adj
        PUBLIC delta_height
        PUBLIC delta_radius
        PUBLIC delta_segments_per_second
        PUBLIC delta_tower
        PUBLIC delta_tower_angle_trim
        PUBLIC destination
        PUBLIC display_hold
        PUBLIC display_hold_cnt
        PUBLIC display_hold_release
        PUBLIC fanSpeeds
        PUBLIC feedrate_mm_s
        PUBLIC feedrate_percentage
        PUBLIC filament_heat_completed_load
        PUBLIC filament_heat_completed_unload
        PUBLIC filament_loading_completed
        PUBLIC filament_loading_time_cnt
        PUBLIC filament_loading_time_flg
        PUBLIC filament_unloading_completed
        PUBLIC filament_unloading_time_cnt
        PUBLIC filament_unloading_time_flg
        PUBLIC from_wifi_flag
        PUBLIC g26_debug_flag
        PUBLIC has_adjust_speed
        PUBLIC home_bump_mm_P
        PUBLIC home_dir_P
        PUBLIC home_offset
        PUBLIC homing_feedrate_mm_s
        PUBLIC host_keepalive_interval
        PUBLIC hotend_offset
        PUBLIC kill_c
        PUBLIC lcd_wait_for_move
        PUBLIC loop
        PUBLIC loop_start
        PUBLIC marlin_debug_flags
        PUBLIC max_length_P
        PUBLIC mksReprint
        PUBLIC mks_PrintStatePolling
        PUBLIC mks_ReadFromEpr
        PUBLIC mks_ReadFromFile
        PUBLIC mks_WriteToFile
        PUBLIC mks_adjust_extrude_speed
        PUBLIC mks_clearDir
        PUBLIC mks_clearFile
        PUBLIC mks_contiuePrintDelta
        PUBLIC mks_contiuePrintPause
        PUBLIC mks_contiuePrintPwdwn
        PUBLIC mks_contiuePrint_UI
        PUBLIC mks_getPositionXYZE
        PUBLIC mks_heating_busy
        PUBLIC mks_initPrint
        PUBLIC mks_manual_leveling
        PUBLIC mks_moveXY
        PUBLIC mks_moveZ
        PUBLIC mks_pausePrint
        PUBLIC mks_pft_name
        PUBLIC mks_preExtrude
        PUBLIC mks_rePrintCheck
        PUBLIC mks_resumePrint
        PUBLIC mks_resume_extrude_speed
        PUBLIC mks_saveFileName
        PUBLIC mks_setPositionZ
        PUBLIC mkstft_ui_init
        PUBLIC mkstft_ui_load
        PUBLIC position_shift
        PUBLIC preview_no_display
        PUBLIC previous_cmd_ms
        PUBLIC print_finish_close_machine
        PUBLIC print_finish_start_timer
        PUBLIC print_finish_timer_count
        PUBLIC print_job_timer
        PUBLIC printing_rate_update_flag
        PUBLIC resume_printed_time
        PUBLIC saved_feedrate_percentage
        PUBLIC sd_read_cnt
        PUBLIC sd_read_error_flg
        PUBLIC serial_wait_tick
        PUBLIC setup
        PUBLIC soft_endstop_max
        PUBLIC soft_endstop_min
        PUBLIC soft_endstop_radius
        PUBLIC soft_endstop_radius_2
        PUBLIC soft_endstops_enabled
        PUBLIC t1
        PUBLIC t12
        PUBLIC t2
        PUBLIC target_extruder
        PUBLIC temper_error_flg
        PUBLIC temper_error_type
        PUBLIC ubl
        PUBLIC wait_for_heatup
        PUBLIC waiting_wifi_time
        PUBLIC wifi_init_flg
        PUBLIC wifi_init_state
        PUBLIC wifi_loop_cycle
        PUBLIC wifi_refresh_flg
        PUBLIC workspace_offset
        PUBLIC xy_probe_feedrate_mm_s
        PUBLIC z_endstop_adj
        PUBLIC z_high_count
        PUBLIC z_values
        PUBLIC zprobe_zoffset
        
          CFI Names cfiNames0
          CFI StackFrame CFA R13 DATA
          CFI Resource R0:32, R1:32, R2:32, R3:32, R4:32, R5:32, R6:32, R7:32
          CFI Resource R8:32, R9:32, R10:32, R11:32, R12:32, R13:32, R14:32
          CFI EndNames cfiNames0
        
          CFI Common cfiCommon0 Using cfiNames0
          CFI CodeAlign 2
          CFI DataAlign 4
          CFI ReturnAddress R14 CODE
          CFI CFA R13+0
          CFI R0 Undefined
          CFI R1 Undefined
          CFI R2 Undefined
          CFI R3 Undefined
          CFI R4 SameValue
          CFI R5 SameValue
          CFI R6 SameValue
          CFI R7 SameValue
          CFI R8 SameValue
          CFI R9 SameValue
          CFI R10 SameValue
          CFI R11 SameValue
          CFI R12 Undefined
          CFI R14 SameValue
          CFI EndCommon cfiCommon0
        
// E:\code\Robin_Nano_SVN\branches\robin_nano35源码\robin_nano35_v1.0.4_source\Middlewares\Third_Party\Marlin\Marlin_main.cpp
//    1 /**
//    2  * Marlin 3D Printer Firmware
//    3  * Copyright (C) 2016, 2017 MarlinFirmware [https://github.com/MarlinFirmware/Marlin]
//    4  *
//    5  * Based on Sprinter and grbl.
//    6  * Copyright (C) 2011 Camiel Gubbels / Erik van der Zalm
//    7  *
//    8  * This program is free software: you can redistribute it and/or modify
//    9  * it under the terms of the GNU General Public License as published by
//   10  * the Free Software Foundation, either version 3 of the License, or
//   11  * (at your option) any later version.
//   12  *
//   13  * This program is distributed in the hope that it will be useful,
//   14  * but WITHOUT ANY WARRANTY; without even the implied warranty of
//   15  * MERCHANTABILITY or FITNESS FOR A PARTICULAR PURPOSE.  See the
//   16  * GNU General Public License for more details.
//   17  *
//   18  * You should have received a copy of the GNU General Public License
//   19  * along with this program.  If not, see <http://www.gnu.org/licenses/>.
//   20  *
//   21  */
//   22 
//   23 /**
//   24  * About Marlin
//   25  *
//   26  * This firmware is a mashup between Sprinter and grbl.
//   27  *  - https://github.com/kliment/Sprinter
//   28  *  - https://github.com/simen/grbl/tree
//   29  */
//   30 
//   31 /**
//   32  * -----------------
//   33  * G-Codes in Marlin
//   34  * -----------------
//   35  *
//   36  * Helpful G-code references:
//   37  *  - http://linuxcnc.org/handbook/gcode/g-code.html
//   38  *  - http://objects.reprap.org/wiki/Mendel_User_Manual:_RepRapGCodes
//   39  *
//   40  * Help to document Marlin's G-codes online:
//   41  *  - http://reprap.org/wiki/G-code
//   42  *  - https://github.com/MarlinFirmware/MarlinDocumentation
//   43  *
//   44  * -----------------
//   45  *
//   46  * "G" Codes
//   47  *
//   48  * G0   -> G1
//   49  * G1   - Coordinated Movement X Y Z E
//   50  * G2   - CW ARC
//   51  * G3   - CCW ARC
//   52  * G4   - Dwell S<seconds> or P<milliseconds>
//   53  * G5   - Cubic B-spline with XYZE destination and IJPQ offsets
//   54  * G10  - Retract filament according to settings of M207 (Requires FWRETRACT)
//   55  * G11  - Retract recover filament according to settings of M208 (Requires FWRETRACT)
//   56  * G12  - Clean tool (Requires NOZZLE_CLEAN_FEATURE)
//   57  * G17  - Select Plane XY (Requires CNC_WORKSPACE_PLANES)
//   58  * G18  - Select Plane ZX (Requires CNC_WORKSPACE_PLANES)
//   59  * G19  - Select Plane YZ (Requires CNC_WORKSPACE_PLANES)
//   60  * G20  - Set input units to inches (Requires INCH_MODE_SUPPORT)
//   61  * G21  - Set input units to millimeters (Requires INCH_MODE_SUPPORT)
//   62  * G26  - Mesh Validation Pattern (Requires G26_MESH_VALIDATION)
//   63  * G27  - Park Nozzle (Requires NOZZLE_PARK_FEATURE)
//   64  * G28  - Home one or more axes
//   65  * G29  - Start or continue the bed leveling probe procedure (Requires bed leveling)
//   66  * G30  - Single Z probe, probes bed at X Y location (defaults to current XY location)
//   67  * G31  - Dock sled (Z_PROBE_SLED only)
//   68  * G32  - Undock sled (Z_PROBE_SLED only)
//   69  * G33  - Delta Auto-Calibration (Requires DELTA_AUTO_CALIBRATION)
//   70  * G38  - Probe in any direction using the Z_MIN_PROBE (Requires G38_PROBE_TARGET)
//   71  * G42  - Coordinated move to a mesh point (Requires MESH_BED_LEVELING, AUTO_BED_LEVELING_BLINEAR, or AUTO_BED_LEVELING_UBL)
//   72  * G90  - Use Absolute Coordinates
//   73  * G91  - Use Relative Coordinates
//   74  * G92  - Set current position to coordinates given
//   75  *
//   76  * "M" Codes
//   77  *
//   78  * M0   - Unconditional stop - Wait for user to press a button on the LCD (Only if ULTRA_LCD is enabled)
//   79  * M1   -> M0
//   80  * M3   - Turn laser/spindle on, set spindle/laser speed/power, set rotation to clockwise
//   81  * M4   - Turn laser/spindle on, set spindle/laser speed/power, set rotation to counter-clockwise
//   82  * M5   - Turn laser/spindle off
//   83  * M17  - Enable/Power all stepper motors
//   84  * M18  - Disable all stepper motors; same as M84
//   85  * M20  - List SD card. (Requires SDSUPPORT)
//   86  * M21  - Init SD card. (Requires SDSUPPORT)
//   87  * M22  - Release SD card. (Requires SDSUPPORT)
//   88  * M23  - Select SD file: "M23 /path/file.gco". (Requires SDSUPPORT)
//   89  * M24  - Start/resume SD print. (Requires SDSUPPORT)
//   90  * M25  - Pause SD print. (Requires SDSUPPORT)
//   91  * M26  - Set SD position in bytes: "M26 S12345". (Requires SDSUPPORT)
//   92  * M27  - Report SD print status. (Requires SDSUPPORT)
//   93  * M28  - Start SD write: "M28 /path/file.gco". (Requires SDSUPPORT)
//   94  * M29  - Stop SD write. (Requires SDSUPPORT)
//   95  * M30  - Delete file from SD: "M30 /path/file.gco"
//   96  * M31  - Report time since last M109 or SD card start to serial.
//   97  * M32  - Select file and start SD print: "M32 [S<bytepos>] !/path/file.gco#". (Requires SDSUPPORT)
//   98  *        Use P to run other files as sub-programs: "M32 P !filename#"
//   99  *        The '#' is necessary when calling from within sd files, as it stops buffer prereading
//  100  * M33  - Get the longname version of a path. (Requires LONG_FILENAME_HOST_SUPPORT)
//  101  * M34  - Set SD Card sorting options. (Requires SDCARD_SORT_ALPHA)
//  102  * M42  - Change pin status via gcode: M42 P<pin> S<value>. LED pin assumed if P is omitted.
//  103  * M43  - Display pin status, watch pins for changes, watch endstops & toggle LED, Z servo probe test, toggle pins
//  104  * M48  - Measure Z Probe repeatability: M48 P<points> X<pos> Y<pos> V<level> E<engage> L<legs>. (Requires Z_MIN_PROBE_REPEATABILITY_TEST)
//  105  * M75  - Start the print job timer.
//  106  * M76  - Pause the print job timer.
//  107  * M77  - Stop the print job timer.
//  108  * M78  - Show statistical information about the print jobs. (Requires PRINTCOUNTER)
//  109  * M80  - Turn on Power Supply. (Requires POWER_SUPPLY > 0)
//  110  * M81  - Turn off Power Supply. (Requires POWER_SUPPLY > 0)
//  111  * M82  - Set E codes absolute (default).
//  112  * M83  - Set E codes relative while in Absolute (G90) mode.
//  113  * M84  - Disable steppers until next move, or use S<seconds> to specify an idle
//  114  *        duration after which steppers should turn off. S0 disables the timeout.
//  115  * M85  - Set inactivity shutdown timer with parameter S<seconds>. To disable set zero (default)
//  116  * M92  - Set planner.axis_steps_per_mm for one or more axes.
//  117  * M100 - Watch Free Memory (for debugging) (Requires M100_FREE_MEMORY_WATCHER)
//  118  * M104 - Set extruder target temp.
//  119  * M105 - Report current temperatures.
//  120  * M106 - Set print fan speed.
//  121  * M107 - Print fan off.
//  122  * M108 - Break out of heating loops (M109, M190, M303). With no controller, breaks out of M0/M1. (Requires EMERGENCY_PARSER)
//  123  * M109 - Sxxx Wait for extruder current temp to reach target temp. Waits only when heating
//  124  *        Rxxx Wait for extruder current temp to reach target temp. Waits when heating and cooling
//  125  *        If AUTOTEMP is enabled, S<mintemp> B<maxtemp> F<factor>. Exit autotemp by any M109 without F
//  126  * M110 - Set the current line number. (Used by host printing)
//  127  * M111 - Set debug flags: "M111 S<flagbits>". See flag bits defined in enum.h.
//  128  * M112 - Emergency stop.
//  129  * M113 - Get or set the timeout interval for Host Keepalive "busy" messages. (Requires HOST_KEEPALIVE_FEATURE)
//  130  * M114 - Report current position.
//  131  * M115 - Report capabilities. (Extended capabilities requires EXTENDED_CAPABILITIES_REPORT)
//  132  * M117 - Display a message on the controller screen. (Requires an LCD)
//  133  * M118 - Display a message in the host console.
//  134  * M119 - Report endstops status.
//  135  * M120 - Enable endstops detection.
//  136  * M121 - Disable endstops detection.
//  137  * M122 - Debug stepper (Requires HAVE_TMC2130)
//  138  * M125 - Save current position and move to filament change position. (Requires PARK_HEAD_ON_PAUSE)
//  139  * M126 - Solenoid Air Valve Open. (Requires BARICUDA)
//  140  * M127 - Solenoid Air Valve Closed. (Requires BARICUDA)
//  141  * M128 - EtoP Open. (Requires BARICUDA)
//  142  * M129 - EtoP Closed. (Requires BARICUDA)
//  143  * M140 - Set bed target temp. S<temp>
//  144  * M145 - Set heatup values for materials on the LCD. H<hotend> B<bed> F<fan speed> for S<material> (0=PLA, 1=ABS)
//  145  * M149 - Set temperature units. (Requires TEMPERATURE_UNITS_SUPPORT)
//  146  * M150 - Set Status LED Color as R<red> U<green> B<blue> P<bright>. Values 0-255. (Requires BLINKM, RGB_LED, RGBW_LED, NEOPIXEL_LED, or PCA9632).
//  147  * M155 - Auto-report temperatures with interval of S<seconds>. (Requires AUTO_REPORT_TEMPERATURES)
//  148  * M163 - Set a single proportion for a mixing extruder. (Requires MIXING_EXTRUDER)
//  149  * M164 - Save the mix as a virtual extruder. (Requires MIXING_EXTRUDER and MIXING_VIRTUAL_TOOLS)
//  150  * M165 - Set the proportions for a mixing extruder. Use parameters ABCDHI to set the mixing factors. (Requires MIXING_EXTRUDER)
//  151  * M190 - Sxxx Wait for bed current temp to reach target temp. ** Waits only when heating! **
//  152  *        Rxxx Wait for bed current temp to reach target temp. ** Waits for heating or cooling. **
//  153  * M200 - Set filament diameter, D<diameter>, setting E axis units to cubic. (Use S0 to revert to linear units.)
//  154  * M201 - Set max acceleration in units/s^2 for print moves: "M201 X<accel> Y<accel> Z<accel> E<accel>"
//  155  * M202 - Set max acceleration in units/s^2 for travel moves: "M202 X<accel> Y<accel> Z<accel> E<accel>" ** UNUSED IN MARLIN! **
//  156  * M203 - Set maximum feedrate: "M203 X<fr> Y<fr> Z<fr> E<fr>" in units/sec.
//  157  * M204 - Set default acceleration in units/sec^2: P<printing> R<extruder_only> T<travel>
//  158  * M205 - Set advanced settings. Current units apply:
//  159             S<print> T<travel> minimum speeds
//  160             B<minimum segment time>
//  161             X<max X jerk>, Y<max Y jerk>, Z<max Z jerk>, E<max E jerk>
//  162  * M206 - Set additional homing offset. (Disabled by NO_WORKSPACE_OFFSETS or DELTA)
//  163  * M207 - Set Retract Length: S<length>, Feedrate: F<units/min>, and Z lift: Z<distance>. (Requires FWRETRACT)
//  164  * M208 - Set Recover (unretract) Additional (!) Length: S<length> and Feedrate: F<units/min>. (Requires FWRETRACT)
//  165  * M209 - Turn Automatic Retract Detection on/off: S<0|1> (For slicers that don't support G10/11). (Requires FWRETRACT)
//  166           Every normal extrude-only move will be classified as retract depending on the direction.
//  167  * M211 - Enable, Disable, and/or Report software endstops: S<0|1> (Requires MIN_SOFTWARE_ENDSTOPS or MAX_SOFTWARE_ENDSTOPS)
//  168  * M218 - Set a tool offset: "M218 T<index> X<offset> Y<offset>". (Requires 2 or more extruders)
//  169  * M220 - Set Feedrate Percentage: "M220 S<percent>" (i.e., "FR" on the LCD)
//  170  * M221 - Set Flow Percentage: "M221 S<percent>"
//  171  * M226 - Wait until a pin is in a given state: "M226 P<pin> S<state>"
//  172  * M240 - Trigger a camera to take a photograph. (Requires CHDK or PHOTOGRAPH_PIN)
//  173  * M250 - Set LCD contrast: "M250 C<contrast>" (0-63). (Requires LCD support)
//  174  * M260 - i2c Send Data (Requires EXPERIMENTAL_I2CBUS)
//  175  * M261 - i2c Request Data (Requires EXPERIMENTAL_I2CBUS)
//  176  * M280 - Set servo position absolute: "M280 P<index> S<angle|碌s>". (Requires servos)
//  177  * M290 - Babystepping (Requires BABYSTEPPING)
//  178  * M300 - Play beep sound S<frequency Hz> P<duration ms>
//  179  * M301 - Set PID parameters P I and D. (Requires PIDTEMP)
//  180  * M302 - Allow cold extrudes, or set the minimum extrude S<temperature>. (Requires PREVENT_COLD_EXTRUSION)
//  181  * M303 - PID relay autotune S<temperature> sets the target temperature. Default 150C. (Requires PIDTEMP)
//  182  * M304 - Set bed PID parameters P I and D. (Requires PIDTEMPBED)
//  183  * M350 - Set microstepping mode. (Requires digital microstepping pins.)
//  184  * M351 - Toggle MS1 MS2 pins directly. (Requires digital microstepping pins.)
//  185  * M355 - Set Case Light on/off and set brightness. (Requires CASE_LIGHT_PIN)
//  186  * M380 - Activate solenoid on active extruder. (Requires EXT_SOLENOID)
//  187  * M381 - Disable all solenoids. (Requires EXT_SOLENOID)
//  188  * M400 - Finish all moves.
//  189  * M401 - Lower Z probe. (Requires a probe)
//  190  * M402 - Raise Z probe. (Requires a probe)
//  191  * M404 - Display or set the Nominal Filament Width: "W<diameter>". (Requires FILAMENT_WIDTH_SENSOR)
//  192  * M405 - Enable Filament Sensor flow control. "M405 D<delay_cm>". (Requires FILAMENT_WIDTH_SENSOR)
//  193  * M406 - Disable Filament Sensor flow control. (Requires FILAMENT_WIDTH_SENSOR)
//  194  * M407 - Display measured filament diameter in millimeters. (Requires FILAMENT_WIDTH_SENSOR)
//  195  * M410 - Quickstop. Abort all planned moves.
//  196  * M420 - Enable/Disable Leveling (with current values) S1=enable S0=disable (Requires MESH_BED_LEVELING or ABL)
//  197  * M421 - Set a single Z coordinate in the Mesh Leveling grid. X<units> Y<units> Z<units> (Requires MESH_BED_LEVELING or AUTO_BED_LEVELING_UBL)
//  198  * M428 - Set the home_offset based on the current_position. Nearest edge applies. (Disabled by NO_WORKSPACE_OFFSETS or DELTA)
//  199  * M500 - Store parameters in EEPROM. (Requires EEPROM_SETTINGS)
//  200  * M501 - Restore parameters from EEPROM. (Requires EEPROM_SETTINGS)
//  201  * M502 - Revert to the default "factory settings". ** Does not write them to EEPROM! **
//  202  * M503 - Print the current settings (in memory): "M503 S<verbose>". S0 specifies compact output.
//  203  * M540 - Enable/disable SD card abort on endstop hit: "M540 S<state>". (Requires ABORT_ON_ENDSTOP_HIT_FEATURE_ENABLED)
//  204  * M600 - Pause for filament change: "M600 X<pos> Y<pos> Z<raise> E<first_retract> L<later_retract>". (Requires ADVANCED_PAUSE_FEATURE)
//  205  * M665 - Set delta configurations: "M665 L<diagonal rod> R<delta radius> S<segments/s> A<rod A trim mm> B<rod B trim mm> C<rod C trim mm> I<tower A trim angle> J<tower B trim angle> K<tower C trim angle>" (Requires DELTA)
//  206  * M666 - Set delta endstop adjustment. (Requires DELTA)
//  207  * M605 - Set dual x-carriage movement mode: "M605 S<mode> [X<x_offset>] [R<temp_offset>]". (Requires DUAL_X_CARRIAGE)
//  208  * M851 - Set Z probe's Z offset in current units. (Negative = below the nozzle.)
//  209  * M852 - Set skew factors: "M852 [I<xy>] [J<xz>] [K<yz>]". (Requires SKEW_CORRECTION_GCODE, and SKEW_CORRECTION_FOR_Z for IJ)
//  210  * M860 - Report the position of position encoder modules.
//  211  * M861 - Report the status of position encoder modules.
//  212  * M862 - Perform an axis continuity test for position encoder modules.
//  213  * M863 - Perform steps-per-mm calibration for position encoder modules.
//  214  * M864 - Change position encoder module I2C address.
//  215  * M865 - Check position encoder module firmware version.
//  216  * M866 - Report or reset position encoder module error count.
//  217  * M867 - Enable/disable or toggle error correction for position encoder modules.
//  218  * M868 - Report or set position encoder module error correction threshold.
//  219  * M869 - Report position encoder module error.
//  220  * M900 - Get and/or Set advance K factor and WH/D ratio. (Requires LIN_ADVANCE)
//  221  * M906 - Set or get motor current in milliamps using axis codes X, Y, Z, E. Report values if no axis codes given. (Requires HAVE_TMC2130 or HAVE_TMC2208)
//  222  * M907 - Set digital trimpot motor current using axis codes. (Requires a board with digital trimpots)
//  223  * M908 - Control digital trimpot directly. (Requires DAC_STEPPER_CURRENT or DIGIPOTSS_PIN)
//  224  * M909 - Print digipot/DAC current value. (Requires DAC_STEPPER_CURRENT)
//  225  * M910 - Commit digipot/DAC value to external EEPROM via I2C. (Requires DAC_STEPPER_CURRENT)
//  226  * M911 - Report stepper driver overtemperature pre-warn condition. (Requires HAVE_TMC2130 or HAVE_TMC2208)
//  227  * M912 - Clear stepper driver overtemperature pre-warn condition flag. (Requires HAVE_TMC2130 or HAVE_TMC2208)
//  228  * M913 - Set HYBRID_THRESHOLD speed. (Requires HYBRID_THRESHOLD)
//  229  * M914 - Set SENSORLESS_HOMING sensitivity. (Requires SENSORLESS_HOMING)
//  230  *
//  231  * M360 - SCARA calibration: Move to cal-position ThetaA (0 deg calibration)
//  232  * M361 - SCARA calibration: Move to cal-position ThetaB (90 deg calibration - steps per degree)
//  233  * M362 - SCARA calibration: Move to cal-position PsiA (0 deg calibration)
//  234  * M363 - SCARA calibration: Move to cal-position PsiB (90 deg calibration - steps per degree)
//  235  * M364 - SCARA calibration: Move to cal-position PSIC (90 deg to Theta calibration position)
//  236  *
//  237  * ************ Custom codes - This can change to suit future G-code regulations
//  238  * M928 - Start SD logging: "M928 filename.gco". Stop with M29. (Requires SDSUPPORT)
//  239  * M998	- Stop SD print. (Requires SDSUPPORT)
//  240  * M999 - Restart after being stopped by error
//  241  *
//  242  * "T" Codes
//  243  *
//  244  * T0-T3 - Select an extruder (tool) by index: "T<n> F<units/min>"
//  245  *
//  246  */
//  247 
//  248 #include "Marlin.h"
//  249 
//  250 #include "ultralcd.h"
//  251 #include "planner.h"
//  252 #include "stepper.h"
//  253 #include "endstops.h"
//  254 #include "temperature.h"
//  255 #include "cardreader.h"
//  256 #include "configuration_store.h"
//  257 #include "language.h"
//  258 //#include "pins_arduino.h"
//  259 #include "math.h"
//  260 #include "nozzle.h"
//  261 #include "duration_t.h"
//  262 //#include "types.h"
//  263 #include "tim.h"
//  264 #include "gcode.h"
//  265 
//  266 #include "least_squares_fit.h"
//  267 #include "ubl.h"
//  268 
//  269 #include "mks_cfg.h"
//  270 #include "mks_reprint.h"
//  271 
//  272 #if 1
//  273 
//  274 #include "wifi_module.h"
//  275 
//  276 #include "gui.h"
//  277 
//  278 #include "draw_ready_print.h"
//  279 
//  280 #include "draw_ui.h"
//  281 #include "wifi_module.h"
//  282 #include "draw_printing.h"
//  283 #include "draw_pause_ui.h"
//  284 #include "sdio_sdcard.h"
//  285 #include "draw_keyboard.h"
//  286 #include "draw_Tips.h"
//  287 #include "ili9320.h"
//  288 

        SECTION `.bss`:DATA:REORDER:NOROOT(0)
//  289 volatile uint8_t temper_error_flg = 0;
temper_error_flg:
        DS8 1
//  290 volatile uint8_t temper_error_type = 0;
temper_error_type:
        DS8 1
//  291 
//  292 volatile uint8_t mks_heating_busy = 0;
//  293 
//  294 extern void PowerOff_Filament_Check();
//  295 extern void display_temper_error();
//  296 extern void Close_machine_display();
//  297 
//  298 extern uint8_t IsChooseAutoShutdown;
//  299 
//  300 extern uint8_t temperature_change_frequency;
//  301 
//  302 static uint32_t temperature_change_frequency_cnt = 0;
//  303 static uint32_t After_finish_print_time = 0;
//  304 
//  305 uint8_t filament_loading_time_flg;
//  306 uint32_t filament_loading_time_cnt;
//  307 uint8_t filament_loading_completed;
//  308 uint8_t filament_unloading_time_flg;
//  309 uint32_t filament_unloading_time_cnt;
//  310 uint8_t filament_unloading_completed;
//  311 
//  312 uint8_t filament_heat_completed_load;
//  313 uint8_t filament_heat_completed_unload;
//  314 
//  315 extern uint32_t filament_rate;
//  316 
//  317 
//  318 volatile uint32_t TimeIncrease;
//  319 uint8_t volatile printing_rate_update_flag;
//  320 uint8_t preview_no_display;
//  321 extern PRINT_TIME  print_time;
//  322 
//  323 extern uint8_t from_flash_pic;
//  324 volatile uint8_t loop_start=0;
//  325 #endif
//  326 
//  327 
//  328 #if 0
//  329 #if HAS_ABL
//  330   #include "vector_3.h"
//  331   #if ENABLED(AUTO_BED_LEVELING_LINEAR)
//  332     #include "least_squares_fit.h"
//  333   #endif
//  334 #elif ENABLED(MESH_BED_LEVELING)
//  335   #include "mesh_bed_leveling.h"
//  336 #endif
//  337 #endif
//  338 #include "vector_3.h"
//  339 //#include "qr_solve.h"
//  340 #include "mesh_bed_leveling.h"
//  341 
//  342 #if ENABLED(BEZIER_CURVE_SUPPORT)
//  343   #include "planner_bezier.h"
//  344 #endif
//  345 
//  346 #if HAS_BUZZER && DISABLED(LCD_USE_I2C_BUZZER)
//  347   #include "buzzer.h"
//  348 #endif
//  349 
//  350 #if ENABLED(USE_WATCHDOG)
//  351   #include "watchdog.h"
//  352 #endif
//  353 
//  354 #if ENABLED(MAX7219_DEBUG)
//  355   #include "Max7219_Debug_LEDs.h"
//  356 #endif
//  357 
//  358 #if HAS_COLOR_LEDS
//  359   #include "leds.h"
//  360 #endif
//  361 
//  362 #if HAS_SERVOS
//  363   #include "servo.h"
//  364 #endif
//  365 
//  366 #if HAS_DIGIPOTSS
//  367   #include <SPI.h>
//  368 #endif
//  369 
//  370 #if ENABLED(DAC_STEPPER_CURRENT)
//  371   #include "stepper_dac.h"
//  372 #endif
//  373 
//  374 #if ENABLED(EXPERIMENTAL_I2CBUS)
//  375   #include "twibus.h"
//  376 #endif
//  377 
//  378 #if ENABLED(I2C_POSITION_ENCODERS)
//  379   #include "I2CPositionEncoder.h"
//  380 #endif
//  381 
//  382 #if ENABLED(ENDSTOP_INTERRUPTS_FEATURE)
//  383   #include "endstop_interrupts.h"
//  384 #endif
//  385 
//  386 #if ENABLED(M100_FREE_MEMORY_WATCHER)
//  387   void gcode_M100();
//  388   void M100_dump_routine(const char * const title, const char *start, const char *end);
//  389 #endif
//  390 
//  391 #if ENABLED(G26_MESH_VALIDATION)
//  392   bool g26_debug_flag; // =false
//  393   void gcode_G26();
//  394 #endif
//  395 
//  396 #if ENABLED(SDSUPPORT)

        SECTION `.text`:CODE:NOROOT(1)
          CFI Block cfiBlock0 Using cfiCommon0
          CFI Function __sti__routine
        THUMB
// static __intrinsic __interwork __softfp void __sti__routine()
__sti__routine:
        PUSH     {R4-R10,LR}
          CFI R14 Frame(CFA, -4)
          CFI R10 Frame(CFA, -8)
          CFI R9 Frame(CFA, -12)
          CFI R8 Frame(CFA, -16)
          CFI R7 Frame(CFA, -20)
          CFI R6 Frame(CFA, -24)
          CFI R5 Frame(CFA, -28)
          CFI R4 Frame(CFA, -32)
          CFI CFA R13+32
//  397   CardReader card;
        LDR.W    R5,??DataTable134_3
        MOV      R0,R5
          CFI FunCall _ZN10CardReaderC1Ev
        BL       _ZN10CardReaderC1Ev
//  398 #endif
//  399 
//  400 #if ENABLED(EXPERIMENTAL_I2CBUS)
//  401   TWIBus i2c;
//  402 #endif
//  403 
//  404 #if ENABLED(G38_PROBE_TARGET)
//  405   bool G38_move = false,
//  406        G38_endstop_hit = false;
//  407 #endif
//  408 
//  409 #if 1//ENABLED(AUTO_BED_LEVELING_UBL)
//  410   #include "ubl.h"
//  411   extern bool defer_return_to_status;
//  412   unified_bed_leveling ubl;
        LDR.W    R4,??DataTable134_4
        ADD      R0,R4,#+132
          CFI FunCall _ZN20unified_bed_levelingC1Ev
        BL       _ZN20unified_bed_levelingC1Ev
        ADDW     R0,R5,#+3436
          CFI FunCall _ZN9StopwatchC1Ev
        BL       _ZN9StopwatchC1Ev
        LDR.W    R5,??DataTable134_5
        LDR      R0,[R5, #+116]
        LDR.W    R1,??DataTable134_6  ;; 0x42700000
          CFI FunCall __aeabi_fdiv
        BL       __aeabi_fdiv
        STR      R0,[R4, #+116]
        LDR      R0,[R5, #+28]
        STR      R0,[R4, #+124]
        LDR.W    R7,??DataTable134_7  ;; 0x43160000
        MOV      R9,R7
        MOV      R10,#+2
        MOV      R6,#+1065353216
        MOV      R8,R6
        B.N      ??__sti__routine_0
??__sti__routine_1:
        MOV      R0,R9
        MOV      R1,R9
          CFI FunCall __aeabi_fmul
        BL       __aeabi_fmul
        MOV      R9,R0
??__sti__routine_0:
        LSLS     R0,R10,#+31
        BPL.N    ??__sti__routine_2
        MOV      R0,R8
        MOV      R1,R9
          CFI FunCall __aeabi_fmul
        BL       __aeabi_fmul
        MOV      R8,R0
??__sti__routine_2:
        LSRS     R10,R10,#+1
        BNE.N    ??__sti__routine_1
        LDR.W    R9,??DataTable134_8
        STR      R8,[R9, #+52]
        MOV      R1,R8
        MOV      R0,#+1073741824
          CFI FunCall __aeabi_fmul
        BL       __aeabi_fmul
        STR      R0,[R4, #+128]
        MOVS     R4,#+2
        B.N      ??__sti__routine_3
??__sti__routine_4:
        MOV      R0,R7
        MOV      R1,R7
          CFI FunCall __aeabi_fmul
        BL       __aeabi_fmul
        MOV      R7,R0
??__sti__routine_3:
        LSLS     R0,R4,#+31
        BPL.N    ??__sti__routine_5
        MOV      R0,R6
        MOV      R1,R7
          CFI FunCall __aeabi_fmul
        BL       __aeabi_fmul
        MOV      R6,R0
??__sti__routine_5:
        LSRS     R4,R4,#+1
        BNE.N    ??__sti__routine_4
        STR      R6,[R9, #+56]
        LDR      R0,[R5, #+8]
        STR      R0,[R9, #+4]
        LDR      R0,[R5, #+12]
        STR      R0,[R9, #+8]
        LDR      R0,[R5, #+16]
        STR      R0,[R9, #+12]
        LDR      R0,[R5, #+20]
        STR      R0,[R9, #+16]
        LDR      R0,[R5, #+24]
        STR      R0,[R9, #+20]
        LDR      R0,[R5, #+28]
        STR      R0,[R9, #+24]
        LDR      R0,[R5, #+80]
        STR      R0,[R9, #+36]
        LDR      R0,[R5, #+20]
        LDR      R1,[R5, #+8]
          CFI FunCall __aeabi_fsub
        BL       __aeabi_fsub
        STR      R0,[R9, #+40]
        LDR      R0,[R5, #+24]
        LDR      R1,[R5, #+12]
          CFI FunCall __aeabi_fsub
        BL       __aeabi_fsub
        STR      R0,[R9, #+44]
        LDR      R0,[R5, #+28]
        LDR      R1,[R5, #+16]
          CFI FunCall __aeabi_fsub
        BL       __aeabi_fsub
        STR      R0,[R9, #+48]
        LDRB     R0,[R5, #+5]
        STRB     R0,[R9, #+0]
        LDRB     R0,[R5, #+6]
        STRB     R0,[R9, #+1]
        LDRB     R0,[R5, #+7]
        STRB     R0,[R9, #+2]
        POP      {R4-R10,PC}      ;; return
          CFI EndBlock cfiBlock0
//  413 #endif
//  414 
//  415 #if ENABLED(CNC_COORDINATE_SYSTEMS)
//  416   int8_t active_coordinate_system = -1; // machine space
//  417   float coordinate_system[MAX_COORDINATE_SYSTEMS][XYZ];
//  418 #endif
//  419 
//  420 bool Running = true;
//  421 
//  422 uint8_t marlin_debug_flags = DEBUG_NONE;
//  423 
//  424 /**
//  425  * Cartesian Current Position
//  426  *   Used to track the native machine position as moves are queued.
//  427  *   Used by 'buffer_line_to_current_position' to do a move after changing it.
//  428  *   Used by 'SYNC_PLAN_POSITION_KINEMATIC' to update 'planner.position'.
//  429  */
//  430 float current_position[XYZE] = { 0.0 };
//  431 
//  432 /**
//  433  * Cartesian Destination
//  434  *   The destination for a move, filled in by G-code movement commands,
//  435  *   and expected by functions like 'prepare_move_to_destination'.
//  436  *   Set with 'gcode_get_destination' or 'set_destination_from_current'.
//  437  */
//  438 float destination[XYZE] = { 0.0 };
//  439 
//  440 /**
//  441  * axis_homed
//  442  *   Flags that each linear axis was homed.
//  443  *   XYZ on cartesian, ABC on delta, ABZ on SCARA.
//  444  *
//  445  * axis_known_position
//  446  *   Flags that the position is known in each linear axis. Set when homed.
//  447  *   Cleared whenever a stepper powers off, potentially losing its position.
//  448  */
//  449 bool axis_homed[XYZ] = { false }, axis_known_position[XYZ] = { false };
//  450 
//  451 /**
//  452  * GCode line number handling. Hosts may opt to include line numbers when
//  453  * sending commands to Marlin, and lines will be checked for sequentiality.
//  454  * M110 N<int> sets the current line number.
//  455  */
//  456 static long gcode_N, gcode_LastN, Stopped_gcode_LastN = 0;
//  457 
//  458 /**
//  459  * GCode Command Queue
//  460  * A simple ring buffer of BUFSIZE command strings.
//  461  *
//  462  * Commands are copied into this buffer by the command injectors
//  463  * (immediate, serial, sd card) and they are processed sequentially by
//  464  * the main loop. The process_next_command function parses the next
//  465  * command and hands off execution to individual handler functions.
//  466  */
//  467 uint8_t commands_in_queue = 0; // Count of commands in the queue
//  468 static uint8_t cmd_queue_index_r = 0, // Ring buffer read position
//  469                cmd_queue_index_w = 0; // Ring buffer write position
//  470 #if ENABLED(M100_FREE_MEMORY_WATCHER)
//  471   char command_queue[BUFSIZE][MAX_CMD_SIZE];  // Necessary so M100 Free Memory Dumper can show us the commands and any corruption
//  472 #else                                         // This can be collapsed back to the way it was soon.
//  473 static char command_queue[BUFSIZE][MAX_CMD_SIZE];
//  474 #endif
//  475 
//  476 /**
//  477  * Next Injected Command pointer. NULL if no commands are being injected.
//  478  * Used by Marlin internally to ensure that commands initiated from within
//  479  * are enqueued ahead of any pending serial or sd card commands.
//  480  */
//  481 static const char *injected_commands_P = NULL;
//  482 
//  483 #if ENABLED(TEMPERATURE_UNITS_SUPPORT)
//  484   TempUnit input_temp_units = TEMPUNIT_C;
//  485 #endif
//  486 
//  487 /**
//  488  * Feed rates are often configured with mm/m
//  489  * but the planner and stepper like mm/s units.
//  490  */
//  491  /*
//  492 static const float homing_feedrate_mm_s[] PROGMEM = {
//  493   #if ENABLED(DELTA)
//  494     MMM_TO_MMS(HOMING_FEEDRATE_Z), MMM_TO_MMS(HOMING_FEEDRATE_Z),
//  495   #else
//  496     MMM_TO_MMS(HOMING_FEEDRATE_XY), MMM_TO_MMS(HOMING_FEEDRATE_XY),
//  497   #endif
//  498   MMM_TO_MMS(HOMING_FEEDRATE_Z), 0
//  499 };
//  500 
//  501 FORCE_INLINE float homing_feedrate(const AxisEnum a) { return pgm_read_float(&homing_feedrate_mm_s[a]); }
//  502 */
//  503 
//  504 float  homing_feedrate_mm_s[4];
//  505 
//  506 float feedrate_mm_s = MMM_TO_MMS(1500.0);
//  507 static float saved_feedrate_mm_s;
//  508 int16_t feedrate_percentage = 100, saved_feedrate_percentage;
//  509 
//  510 // Initialized by settings.load()
//  511 bool axis_relative_modes[] = AXIS_RELATIVE_MODES;
//  512 
//  513 #if HAS_WORKSPACE_OFFSET
//  514   #if HAS_POSITION_SHIFT
//  515     // The distance that XYZ has been offset by G92. Reset by G28.
//  516     float position_shift[XYZ] = { 0 };
//  517   #endif
//  518   #if HAS_HOME_OFFSET
//  519     // This offset is added to the configured home position.
//  520     // Set by M206, M428, or menu item. Saved to EEPROM.
//  521     float home_offset[XYZ] = { 0 };
//  522   #endif
//  523   #if HAS_HOME_OFFSET && HAS_POSITION_SHIFT
//  524     // The above two are combined to save on computes
//  525     float workspace_offset[XYZ] = { 0 };
//  526   #endif
//  527 #endif
//  528 
//  529 // Software Endstops are based on the configured limits.
//  530 /*
//  531 float soft_endstop_min[XYZ] = { X_MIN_BED, Y_MIN_BED, Z_MIN_POS },
//  532       soft_endstop_max[XYZ] = { X_MAX_BED, Y_MAX_BED, Z_MAX_POS };
//  533 */
//  534 float soft_endstop_min[XYZ],soft_endstop_max[XYZ];

        SECTION `.text`:CODE:NOROOT(1)
          CFI Block cfiBlock1 Using cfiCommon0
          CFI Function _Z21soft_endstop_min_initv
        THUMB
//  535 void soft_endstop_min_init()
//  536 {
_Z21soft_endstop_min_initv:
        PUSH     {R4-R8,LR}
          CFI R14 Frame(CFA, -4)
          CFI R8 Frame(CFA, -8)
          CFI R7 Frame(CFA, -12)
          CFI R6 Frame(CFA, -16)
          CFI R5 Frame(CFA, -20)
          CFI R4 Frame(CFA, -24)
          CFI CFA R13+24
//  537     if(MACHINETPYE & IS_KINEMATIC)
        LDR.W    R4,??DataTable134_5
        LDR      R0,[R4, #+20]
        LDR.W    R5,??DataTable134_9
        MOV      R6,#+1056964608
        LDR.W    R7,??DataTable134_4
        LDRH     R1,[R4, #+88]
        MOVW     R2,#+770
        TST      R1,R2
        BEQ.N    ??soft_endstop_min_init_0
//  538     {
//  539         soft_endstop_min[0]= X_MIN_BED_IS_KINEMATIC;
        MOV      R8,#-1090519040
        MOV      R1,R8
          CFI FunCall __aeabi_fmul
        BL       __aeabi_fmul
        STR      R0,[R7, #+68]
//  540         soft_endstop_min[1]= Y_MIN_BED_IS_KINEMATIC;
        LDR      R0,[R4, #+24]
        MOV      R1,R8
          CFI FunCall __aeabi_fmul
        BL       __aeabi_fmul
        STR      R0,[R7, #+72]
//  541         soft_endstop_min[2]= Z_MIN_POS;
        LDR      R0,[R4, #+16]
        STR      R0,[R7, #+76]
//  542 
//  543         soft_endstop_max[0] = X_MAX_BED_IS_KINEMATIC;
        LDR      R0,[R4, #+20]
        MOV      R1,R6
          CFI FunCall __aeabi_fmul
        BL       __aeabi_fmul
        STR      R0,[R5, #+36]
//  544         soft_endstop_max[1] = Y_MAX_BED_IS_KINEMATIC;
        LDR      R0,[R4, #+24]
        MOV      R1,R6
          CFI FunCall __aeabi_fmul
        BL       __aeabi_fmul
        STR      R0,[R5, #+40]
//  545         soft_endstop_max[2] = Z_MAX_POS;
        LDR      R0,[R4, #+28]
        STR      R0,[R5, #+44]
        B.N      ??soft_endstop_min_init_1
//  546     }
//  547     else
//  548     {
//  549         soft_endstop_min[0]= X_MIN_BED_IS_CARTESIAN;
??soft_endstop_min_init_0:
        MOV      R1,R6
          CFI FunCall __aeabi_fmul
        BL       __aeabi_fmul
        MOV      R1,R0
          CFI FunCall __aeabi_fsub
        BL       __aeabi_fsub
        STR      R0,[R7, #+68]
//  550         soft_endstop_min[1]= Y_MIN_BED_IS_CARTESIAN;
        LDR      R0,[R4, #+24]
        MOV      R1,R6
          CFI FunCall __aeabi_fmul
        BL       __aeabi_fmul
        MOV      R1,R0
          CFI FunCall __aeabi_fsub
        BL       __aeabi_fsub
        STR      R0,[R7, #+72]
//  551         soft_endstop_min[2]= Z_MIN_POS;
        LDR      R0,[R4, #+16]
        STR      R0,[R7, #+76]
//  552 
//  553         soft_endstop_max[0] = X_MAX_BED_IS_CARTESIAN;
        MOV      R7,#+1073741824
        LDR      R0,[R4, #+20]
        MOV      R1,R6
          CFI FunCall __aeabi_fmul
        BL       __aeabi_fmul
        MOV      R1,R7
          CFI FunCall __aeabi_fmul
        BL       __aeabi_fmul
        STR      R0,[R5, #+36]
//  554         soft_endstop_max[1] = Y_MAX_BED_IS_CARTESIAN;
        LDR      R0,[R4, #+24]
        MOV      R1,R6
          CFI FunCall __aeabi_fmul
        BL       __aeabi_fmul
        MOV      R1,R7
          CFI FunCall __aeabi_fmul
        BL       __aeabi_fmul
        STR      R0,[R5, #+40]
//  555         soft_endstop_max[2] = Z_MAX_POS;
        LDR      R0,[R4, #+28]
        STR      R0,[R5, #+44]
//  556     }        
//  557 }
??soft_endstop_min_init_1:
        POP      {R4-R8,PC}       ;; return
          CFI EndBlock cfiBlock1
//  558 
//  559 #if HAS_SOFTWARE_ENDSTOPS
//  560   bool soft_endstops_enabled = true;
//  561   #if 1// IS_KINEMATIC
//  562     float soft_endstop_radius, soft_endstop_radius_2;
//  563   #endif
//  564 #endif
//  565 
//  566 #if FAN_COUNT > 0
//  567   int fanSpeeds[FAN_COUNT] = { 0 };
//  568   #if ENABLED(EXTRA_FAN_SPEED)
//  569     int16_t old_fanSpeeds[FAN_COUNT],
//  570             new_fanSpeeds[FAN_COUNT];
//  571   #endif
//  572   #if ENABLED(PROBING_FANS_OFF)
//  573     bool fans_paused = false;
//  574     int16_t paused_fanSpeeds[FAN_COUNT] = { 0 };
//  575   #endif
//  576 #endif
//  577 
//  578 // The active extruder (tool). Set with T<extruder> command.
//  579 uint8_t active_extruder = 0;
//  580 
//  581 // Relative Mode. Enable with G91, disable with G90.
//  582 static bool relative_mode = false;
//  583 
//  584 // For M109 and M190, this flag may be cleared (by M108) to exit the wait loop
//  585 volatile bool wait_for_heatup = true;
//  586 
//  587 // For M0/M1, this flag may be cleared (by M108) to exit the wait-for-user loop
//  588 #if HAS_RESUME_CONTINUE
//  589   volatile bool wait_for_user = false;
//  590 #endif
//  591 
//  592 const char axis_codes[XYZE] = { 'X', 'Y', 'Z', 'E' };
//  593 
//  594 // Number of characters read in the current line of serial input
//  595 static int serial_count = 0;
//  596 static int wifi_read_count = 0;
//  597 
//  598 // Inactivity shutdown
//  599 millis_t previous_cmd_ms = 0;
//  600 static millis_t max_inactive_time = 0;
//  601 static millis_t stepper_inactive_time = (DEFAULT_STEPPER_DEACTIVE_TIME) * 1000UL;
//  602 
//  603 // Print Job Timer
//  604 #if ENABLED(PRINTCOUNTER)
//  605   PrintCounter print_job_timer = PrintCounter();
//  606 #else
//  607   Stopwatch print_job_timer = Stopwatch();
//  608 #endif
//  609 
//  610 // Buzzer - I2C on the LCD or a BEEPER_PIN
//  611 #if ENABLED(LCD_USE_I2C_BUZZER)
//  612   #define BUZZ(d,f) lcd_buzz(d, f)
//  613 #elif PIN_EXISTS(BEEPER)
//  614   Buzzer buzzer;
//  615   #define BUZZ(d,f) buzzer.tone(d, f)
//  616 #else
//  617   #define BUZZ(d,f) NOOP
//  618 #endif
//  619 
//  620 uint8_t target_extruder;
//  621 
//  622 #if HAS_BED_PROBE
//  623   float zprobe_zoffset; // Initialized by settings.load()
//  624 #endif
//  625 
//  626 #if 1//HAS_ABL
//  627   float xy_probe_feedrate_mm_s = MMM_TO_MMS(XY_PROBE_SPEED);
//  628   #define XY_PROBE_FEEDRATE_MM_S xy_probe_feedrate_mm_s
//  629 #elif defined(XY_PROBE_SPEED)
//  630   #define XY_PROBE_FEEDRATE_MM_S MMM_TO_MMS(XY_PROBE_SPEED)
//  631 #else
//  632   #define XY_PROBE_FEEDRATE_MM_S PLANNER_XY_FEEDRATE()
//  633 #endif
//  634 
//  635 #if 1//ENABLED(AUTO_BED_LEVELING_BILINEAR)
//  636 /*
//  637   #if ENABLED(DELTA)
//  638     #define ADJUST_DELTA(V) \ 
//  639       if (planner.leveling_active) { \ 
//  640         const float zadj = bilinear_z_offset(V); \ 
//  641         delta[A_AXIS] += zadj; \ 
//  642         delta[B_AXIS] += zadj; \ 
//  643         delta[C_AXIS] += zadj; \ 
//  644       }
//  645   #else
//  646     #define ADJUST_DELTA(V) if (planner.leveling_active) { delta[Z_AXIS] += bilinear_z_offset(V); }
//  647   #endif
//  648   */

        SECTION `.text`:CODE:NOROOT(1)
          CFI Block cfiBlock2 Using cfiCommon0
          CFI Function _Z12ADJUST_DELTAPKf
        THUMB
//  649 void  ADJUST_DELTA(const float logical[XYZ])
//  650 {
_Z12ADJUST_DELTAPKf:
        PUSH     {R3-R5,LR}
          CFI R14 Frame(CFA, -4)
          CFI R5 Frame(CFA, -8)
          CFI R4 Frame(CFA, -12)
          CFI CFA R13+16
//  651 	float zadj;
//  652 
//  653 	if(MACHINETPYE == DELTA)
        LDR.W    R1,??DataTable135
        LDRB     R1,[R1, #+0]
        LDR.W    R2,??DataTable134_5
        LDRSH    R2,[R2, #+88]
        CMP      R2,#+2
        BNE.N    ??ADJUST_DELTA_0
//  654 		{
//  655       	if (planner.leveling_active) { 
        CMP      R1,#+0
        BEQ.N    ??ADJUST_DELTA_1
//  656        	 	zadj = bilinear_z_offset(logical); 
          CFI FunCall _Z17bilinear_z_offsetPKf
        BL       _Z17bilinear_z_offsetPKf
        MOV      R4,R0
//  657         	delta[A_AXIS] += zadj; 
        LDR.W    R5,??DataTable134_4
        LDR      R0,[R5, #+80]
        MOV      R1,R4
          CFI FunCall __aeabi_fadd
        BL       __aeabi_fadd
        STR      R0,[R5, #+80]
//  658        		delta[B_AXIS] += zadj; 
        LDR      R0,[R5, #+84]
        MOV      R1,R4
          CFI FunCall __aeabi_fadd
        BL       __aeabi_fadd
        STR      R0,[R5, #+84]
//  659         	delta[C_AXIS] += zadj; 
        LDR      R0,[R5, #+88]
        MOV      R1,R4
          CFI FunCall __aeabi_fadd
        BL       __aeabi_fadd
        STR      R0,[R5, #+88]
        POP      {R0,R4,R5,PC}
//  660       		}
//  661 		}
//  662 		else
//  663 			{
//  664 			if (planner.leveling_active) 
??ADJUST_DELTA_0:
        CMP      R1,#+0
        BEQ.N    ??ADJUST_DELTA_1
//  665 				 delta[Z_AXIS] += bilinear_z_offset(logical); 
          CFI FunCall _Z17bilinear_z_offsetPKf
        BL       _Z17bilinear_z_offsetPKf
        LDR.W    R5,??DataTable134_4
        LDR      R1,[R5, #+88]
          CFI FunCall __aeabi_fadd
        BL       __aeabi_fadd
        STR      R0,[R5, #+88]
//  666 			}
//  667 }  
??ADJUST_DELTA_1:
        POP      {R0,R4,R5,PC}    ;; return
          CFI EndBlock cfiBlock2

        SECTION `.data`:DATA:REORDER:NOROOT(2)
mks_heating_busy:
        DATA
        DC8 0
marlin_debug_flags:
        DC8 0
commands_in_queue:
        DC8 0
active_extruder:
        DC8 0
wait_for_heatup:
        DC8 1
target_extruder:
        DC8 0
feedrate_percentage:
        DC16 100
current_position:
        DC32 0H
        DC8 0, 0, 0, 0, 0, 0, 0, 0, 0, 0, 0, 0
destination:
        DC32 0H
        DC8 0, 0, 0, 0, 0, 0, 0, 0, 0, 0, 0, 0
homing_feedrate_mm_s:
        DC8 0, 0, 0, 0, 0, 0, 0, 0, 0, 0, 0, 0, 0, 0, 0, 0
workspace_offset:
        DC32 0H
        DC8 0, 0, 0, 0, 0, 0, 0, 0
soft_endstop_min:
        DC8 0, 0, 0, 0, 0, 0, 0, 0, 0, 0, 0, 0
//  668 //#elif IS_KINEMATIC
//  669 //  #define ADJUST_DELTA(V) NOOP
//  670 #endif
//  671 
//  672 #if ENABLED(X_DUAL_ENDSTOPS)
//  673   float x_endstop_adj;                // Initialized by settings.load()
//  674 #endif
//  675 #if ENABLED(Y_DUAL_ENDSTOPS)
//  676   float y_endstop_adj;                // Initialized by settings.load()
//  677 #endif
//  678 #if 1//ENABLED(Z_DUAL_ENDSTOPS)
//  679   float z_endstop_adj;                // Initialized by settings.load()
//  680 #endif
//  681 
//  682 // Extruder offsets
//  683 #if HOTENDS > 1
//  684   float hotend_offset[XYZ][HOTENDS];  // Initialized by settings.load()
//  685 #endif
//  686 
//  687 #if HAS_Z_SERVO_ENDSTOP
//  688   const int z_servo_angle[2] = Z_SERVO_ANGLES;
//  689 #endif
//  690 
//  691 #if ENABLED(BARICUDA)
//  692   uint8_t baricuda_valve_pressure = 0,
//  693           baricuda_e_to_p_pressure = 0;
//  694 #endif
//  695 
//  696 #if ENABLED(FWRETRACT)                      // Initialized by settings.load()...
//  697   bool autoretract_enabled,                 // M209 S - Autoretract switch
//  698        retracted[EXTRUDERS] = { false };    // Which extruders are currently retracted
//  699   float retract_length,                     // M207 S - G10 Retract length
//  700         retract_feedrate_mm_s,              // M207 F - G10 Retract feedrate
//  701         retract_zlift,                      // M207 Z - G10 Retract hop size
//  702         retract_recover_length,             // M208 S - G11 Recover length
//  703         retract_recover_feedrate_mm_s,      // M208 F - G11 Recover feedrate
//  704         swap_retract_length,                // M207 W - G10 Swap Retract length
//  705         swap_retract_recover_length,        // M208 W - G11 Swap Recover length
//  706         swap_retract_recover_feedrate_mm_s; // M208 R - G11 Swap Recover feedrate
//  707   #if EXTRUDERS > 1
//  708     bool retracted_swap[EXTRUDERS] = { false }; // Which extruders are swap-retracted
//  709   #else
//  710     constexpr bool retracted_swap[1] = { false };
//  711   #endif
//  712 #endif // FWRETRACT
//  713 
//  714 #if HAS_POWER_SWITCH
//  715   bool powersupply_on =
//  716     #if ENABLED(PS_DEFAULT_OFF)
//  717       false
//  718     #else
//  719       true
//  720     #endif
//  721   ;
//  722 #endif
//  723 
//  724 #if 1//ENABLED(DELTA)
//  725 
//  726   float delta[ABC];
delta:
        DC8 0, 0, 0, 0, 0, 0, 0, 0, 0, 0, 0, 0
feedrate_mm_s:
        DC32 41C80000H
position_shift:
        DC32 0H
        DC8 0, 0, 0, 0, 0, 0, 0, 0
fanSpeeds:
        DC32 0
zprobe_zoffset:
        DC8 0, 0, 0, 0
xy_probe_feedrate_mm_s:
        DC8 0, 0, 0, 0
//  727 
//  728   // Initialized by settings.load()
//  729   float delta_height,
delta_height:
        DC8 0, 0, 0, 0
//  730         delta_endstop_adj[ABC] = { 0 },
//  731         delta_radius,
//  732         delta_tower_angle_trim[ABC],
//  733         delta_tower[ABC][2],
//  734         delta_diagonal_rod,
//  735         delta_calibration_radius,
//  736         delta_diagonal_rod_2_tower[ABC],
//  737         delta_segments_per_second,
//  738         delta_clip_start_height = Z_MAX_POS;
delta_clip_start_height:
        DC8 0, 0, 0, 0
        DC8 0, 0, 0, 0
ubl:
        DC8 0, 0, 0, 0
//  739 
//  740   float delta_safe_distance_from_top();
//  741 
//  742 #endif
//  743 
//  744 #if 1//ENABLED(AUTO_BED_LEVELING_BILINEAR)
//  745   int bilinear_grid_spacing[2], bilinear_start[2];
//  746   float bilinear_grid_factor[2],
//  747         //z_values[GRID_MAX_POINTS_X][GRID_MAX_POINTS_Y];
//  748         z_values[GRID_MAX_POINTS_X_MAX][GRID_MAX_POINTS_Y_MAX];
//  749 #endif
//  750 
//  751 #if 1//IS_SCARA
//  752   // Float constants for SCARA calculations
//  753   const float L1 = SCARA_LINKAGE_1, L2 = SCARA_LINKAGE_2,
//  754               L1_2 = sq(float(L1)), L1_2_2 = 2.0 * L1_2,
//  755               L2_2 = sq(float(L2));
//  756 
//  757   //float delta_segments_per_second = SCARA_SEGMENTS_PER_SECOND,
//  758   //      delta[ABC];
//  759 #endif
//  760 
//  761 float cartes[XYZ] = { 0 };
//  762 
//  763 #if ENABLED(FILAMENT_WIDTH_SENSOR)
//  764   bool filament_sensor = false;                                 // M405 turns on filament sensor control. M406 turns it off.
//  765   float filament_width_nominal = DEFAULT_NOMINAL_FILAMENT_DIA,  // Nominal filament width. Change with M404.
//  766         filament_width_meas = DEFAULT_MEASURED_FILAMENT_DIA;    // Measured filament diameter
//  767   uint8_t meas_delay_cm = MEASUREMENT_DELAY_CM;                 // Distance delay setting
//  768   int8_t measurement_delay[MAX_MEASUREMENT_DELAY + 1],          // Ring buffer to delayed measurement. Store extruder factor after subtracting 100
//  769          filwidth_delay_index[2] = { 0, -1 };                   // Indexes into ring buffer
//  770 #endif
//  771 
//  772 #if ENABLED(FILAMENT_RUNOUT_SENSOR)
//  773   static bool filament_ran_out = false;
//  774 #endif
//  775 
//  776 #if ENABLED(ADVANCED_PAUSE_FEATURE)
//  777   AdvancedPauseMenuResponse advanced_pause_menu_response;
//  778 #endif
//  779 
//  780 #if ENABLED(MIXING_EXTRUDER)
//  781   float mixing_factor[MIXING_STEPPERS]; // Reciprocal of mix proportion. 0.0 = off, otherwise >= 1.0.
//  782   #if MIXING_VIRTUAL_TOOLS > 1
//  783     float mixing_virtual_tool_mix[MIXING_VIRTUAL_TOOLS][MIXING_STEPPERS];
//  784   #endif
//  785 #endif
//  786 
//  787 static bool send_ok[BUFSIZE];
//  788 
//  789 #if HAS_SERVOS
//  790   Servo servo[NUM_SERVOS];
//  791   #define MOVE_SERVO(I, P) servo[I].move(P)
//  792   #if HAS_Z_SERVO_ENDSTOP
//  793     #define DEPLOY_Z_SERVO() MOVE_SERVO(Z_ENDSTOP_SERVO_NR, z_servo_angle[0])
//  794     #define STOW_Z_SERVO() MOVE_SERVO(Z_ENDSTOP_SERVO_NR, z_servo_angle[1])
//  795   #endif
//  796 #endif
//  797 
//  798 #ifdef CHDK
//  799   millis_t chdkHigh = 0;
//  800   bool chdkActive = false;
//  801 #endif
//  802 
//  803 #if ENABLED(PID_EXTRUSION_SCALING)
//  804   int lpq_len = 20;
//  805 #endif
//  806 
//  807 #if ENABLED(HOST_KEEPALIVE_FEATURE)
//  808   MarlinBusyState busy_state = NOT_BUSY;
//  809   static millis_t next_busy_signal_ms = 0;
//  810   uint8_t host_keepalive_interval = DEFAULT_KEEPALIVE_INTERVAL;
//  811 #else
//  812   #define host_keepalive() NOOP
//  813 #endif
//  814 
//  815 #if ENABLED(I2C_POSITION_ENCODERS)
//  816   I2CPositionEncodersMgr I2CPEM;
//  817   uint8_t blockBufferIndexRef = 0;
//  818   millis_t lastUpdateMillis;
//  819 #endif
//  820 
//  821 #if ENABLED(CNC_WORKSPACE_PLANES)
//  822   static WorkspacePlane workspace_plane = PLANE_XY;
//  823 #endif
//  824 
//  825 //FORCE_INLINE float pgm_read_any(const float *p) { return pgm_read_float_near(p); }
//  826 //FORCE_INLINE signed char pgm_read_any(const signed char *p) { return pgm_read_byte_near(p); }
//  827 static inline float pgm_read_any(const float *p) { return (*(const float *)(p)); }
//  828 static inline signed char pgm_read_any(const signed char *p) { return (*(const signed char *)(p)); }
//  829 /*P
//  830 #define XYZ_CONSTS_FROM_CONFIG(type, array, CONFIG) \ 
//  831   static const PROGMEM type array##_P[XYZ] = { X_##CONFIG, Y_##CONFIG, Z_##CONFIG }; \ 
//  832   static inline type array(const AxisEnum axis) { return pgm_read_any(&array##_P[axis]); } \ 
//  833   typedef void __void_##CONFIG##__
//  834 */
//  835 #define XYZ_CONSTS_FROM_CONFIG(type, array, CONFIG) \ 
//  836 	  type array##_P[XYZ] = { X_##CONFIG, Y_##CONFIG, Z_##CONFIG }; \ 
//  837 	  static inline type array(AxisEnum axis) { return (array##_P[axis]); } 
//  838 

        SECTION `.text`:CODE:NOROOT(1)
          CFI Block cfiBlock3 Using cfiCommon0
          CFI Function _Z12base_min_pos8AxisEnum
          CFI NoCalls
        THUMB
//  839 XYZ_CONSTS_FROM_CONFIG(float, base_min_pos,   MIN_POS);
_Z12base_min_pos8AxisEnum:
        LDR.W    R1,??DataTable134_8
        ADD      R0,R1,R0, LSL #+2
        LDR      R0,[R0, #+4]
        BX       LR               ;; return
          CFI EndBlock cfiBlock3

        SECTION `.text`:CODE:NOROOT(1)
          CFI Block cfiBlock4 Using cfiCommon0
          CFI Function _Z12base_max_pos8AxisEnum
          CFI NoCalls
        THUMB
//  840 XYZ_CONSTS_FROM_CONFIG(float, base_max_pos,   MAX_POS);
_Z12base_max_pos8AxisEnum:
        LDR.W    R1,??DataTable134_8
        ADD      R0,R1,R0, LSL #+2
        LDR      R0,[R0, #+16]
        BX       LR               ;; return
          CFI EndBlock cfiBlock4

        SECTION `.text`:CODE:NOROOT(1)
          CFI Block cfiBlock5 Using cfiCommon0
          CFI Function _Z13base_home_pos8AxisEnum
          CFI NoCalls
        THUMB
//  841 XYZ_CONSTS_FROM_CONFIG(float, base_home_pos,  HOME_POS);
_Z13base_home_pos8AxisEnum:
        LDR.W    R1,??DataTable134_8
        ADD      R0,R1,R0, LSL #+2
        LDR      R0,[R0, #+28]
        BX       LR               ;; return
          CFI EndBlock cfiBlock5

        SECTION `.text`:CODE:NOROOT(1)
          CFI Block cfiBlock6 Using cfiCommon0
          CFI Function _Z10max_length8AxisEnum
          CFI NoCalls
        THUMB
//  842 XYZ_CONSTS_FROM_CONFIG(float, max_length,     MAX_LENGTH);
_Z10max_length8AxisEnum:
        LDR.W    R1,??DataTable134_8
        ADD      R0,R1,R0, LSL #+2
        LDR      R0,[R0, #+40]
        BX       LR               ;; return
          CFI EndBlock cfiBlock6

        SECTION `.text`:CODE:NOROOT(1)
          CFI Block cfiBlock7 Using cfiCommon0
          CFI Function _Z12home_bump_mm8AxisEnum
          CFI NoCalls
        THUMB
//  843 XYZ_CONSTS_FROM_CONFIG(float, home_bump_mm,   HOME_BUMP_MM);
_Z12home_bump_mm8AxisEnum:
        LDR.W    R1,??DataTable137
        LDR      R0,[R1, R0, LSL #+2]
        BX       LR               ;; return
          CFI EndBlock cfiBlock7

        SECTION `.text`:CODE:NOROOT(1)
          CFI Block cfiBlock8 Using cfiCommon0
          CFI Function _Z8home_dir8AxisEnum
          CFI NoCalls
        THUMB
//  844 XYZ_CONSTS_FROM_CONFIG(signed char, home_dir, HOME_DIR);
_Z8home_dir8AxisEnum:
        LDR.W    R1,??DataTable134_8
        LDRSB    R0,[R0, R1]
        BX       LR               ;; return
          CFI EndBlock cfiBlock8
//  845 
//  846 /**
//  847  * ***************************************************************************
//  848  * ******************************** FUNCTIONS ********************************
//  849  * ***************************************************************************
//  850  */
//  851 
//  852 void stop();
//  853 
//  854 void get_available_commands();
//  855 void process_next_command();
//  856 void process_parsed_command();
//  857 
//  858 void get_cartesian_from_steppers();
//  859 void set_current_from_steppers_for_axis(const AxisEnum axis);
//  860 
//  861 #if ENABLED(ARC_SUPPORT)
//  862   void plan_arc(const float (&cart)[XYZE], const float (&offset)[2], const bool clockwise);
//  863 #endif
//  864 
//  865 #if ENABLED(BEZIER_CURVE_SUPPORT)
//  866   void plan_cubic_move(const float (&offset)[4]);
//  867 #endif
//  868 
//  869 void tool_change(const uint8_t tmp_extruder, const float fr_mm_s=0.0, bool no_move=false);
//  870 void report_current_position();
//  871 void report_current_position_detail();
//  872 
//  873 #if ENABLED(DEBUG_LEVELING_FEATURE)
//  874   void print_xyz(const char* prefix, const char* suffix, const float x, const float y, const float z) {
//  875     serialprintPGM(prefix);
//  876     SERIAL_CHAR('(');
//  877     SERIAL_ECHO(x);
//  878     SERIAL_ECHOPAIR(", ", y);
//  879     SERIAL_ECHOPAIR(", ", z);
//  880     SERIAL_CHAR(')');
//  881     if (suffix) serialprintPGM(suffix); else SERIAL_EOL();
//  882   }
//  883 
//  884   void print_xyz(const char* prefix, const char* suffix, const float xyz[]) {
//  885     print_xyz(prefix, suffix, xyz[X_AXIS], xyz[Y_AXIS], xyz[Z_AXIS]);
//  886   }
//  887 
//  888   #if 1//HAS_ABL
//  889     void print_xyz(const char* prefix, const char* suffix, const vector_3 &xyz) {
//  890       print_xyz(prefix, suffix, xyz.x, xyz.y, xyz.z);
//  891     }
//  892   #endif
//  893 
//  894   #define DEBUG_POS(SUFFIX,VAR) do { \ 
//  895     print_xyz(PSTR("  " STRINGIFY(VAR) "="), PSTR(" : " SUFFIX "\n"), VAR); }while(0)
//  896 #endif
//  897 
//  898 /**
//  899  * sync_plan_position
//  900  *
//  901  * Set the planner/stepper positions directly from current_position with
//  902  * no kinematic translation. Used for homing axes and cartesian/core syncing.
//  903  */

        SECTION `.text`:CODE:NOROOT(1)
          CFI Block cfiBlock9 Using cfiCommon0
          CFI Function _Z18sync_plan_positionv
        THUMB
//  904 void sync_plan_position() {
//  905   #if ENABLED(DEBUG_LEVELING_FEATURE)
//  906     if (DEBUGGING(LEVELING)) DEBUG_POS("sync_plan_position", current_position);
//  907   #endif
//  908   planner.set_position_mm(current_position[X_AXIS], current_position[Y_AXIS], current_position[Z_AXIS], current_position[E_AXIS]);
_Z18sync_plan_positionv:
        LDR.W    R0,??DataTable134_4
        ADD      R3,R0,#+20
        LDR      R2,[R0, #+16]
        LDR      R1,[R0, #+12]
        LDR      R0,[R0, #+8]
          CFI FunCall _ZN7Planner15set_position_mmEfffRKf
        B.W      _ZN7Planner15set_position_mmEfffRKf
          CFI EndBlock cfiBlock9
//  909 }
//  910 inline void sync_plan_position_e() { planner.set_e_position_mm(current_position[E_AXIS]); }
//  911 
//  912 //#if IS_KINEMATIC
//  913 
//  914   inline void sync_plan_position_kinematic() {
//  915     #if ENABLED(DEBUG_LEVELING_FEATURE)
//  916       if (DEBUGGING(LEVELING)) DEBUG_POS("sync_plan_position_kinematic", current_position);
//  917     #endif
//  918     planner.set_position_mm_kinematic(current_position);
//  919   }
//  920 //  #define SYNC_PLAN_POSITION_KINEMATIC() sync_plan_position_kinematic()
//  921 
//  922 //#else
//  923 
//  924 //  #define SYNC_PLAN_POSITION_KINEMATIC() sync_plan_position()
//  925 
//  926 //#endif
//  927 

        SECTION `.text`:CODE:NOROOT(1)
          CFI Block cfiBlock10 Using cfiCommon0
          CFI Function _Z28SYNC_PLAN_POSITION_KINEMATICv
        THUMB
//  928 void SYNC_PLAN_POSITION_KINEMATIC()
//  929 {
//  930 	if(MACHINETPYE & IS_KINEMATIC)
_Z28SYNC_PLAN_POSITION_KINEMATICv:
        LDR.W    R0,??DataTable134_5
        LDRH     R0,[R0, #+88]
        MOVW     R1,#+770
        TST      R0,R1
        BEQ.N    ??SYNC_PLAN_POSITION_KINEMATIC_0
//  931 		sync_plan_position_kinematic();
          CFI FunCall _Z28sync_plan_position_kinematicv
        B.W      _Z28sync_plan_position_kinematicv
//  932 	else
//  933 		sync_plan_position();
??SYNC_PLAN_POSITION_KINEMATIC_0:
          CFI FunCall _Z18sync_plan_positionv
        B.N      _Z18sync_plan_positionv
          CFI EndBlock cfiBlock10
//  934 }
//  935 
//  936 #if 0//ENABLED(SDSUPPORT)
//  937   #include "SdFatUtil.h"
//  938   int freeMemory() { return SdFatUtil::FreeRam(); }
//  939 #else
//  940 /*
//  941 extern "C" {
//  942   extern char __bss_end;
//  943   extern char __heap_start;
//  944   extern void* __brkval;
//  945 
//  946   int freeMemory() {
//  947     int free_memory;
//  948     if ((int)__brkval == 0)
//  949       free_memory = ((int)&free_memory) - ((int)&__bss_end);
//  950     else
//  951       free_memory = ((int)&free_memory) - ((int)__brkval);
//  952     return free_memory;
//  953   }
//  954 }
//  955 */

        SECTION `.text`:CODE:NOROOT(1)
          CFI Block cfiBlock11 Using cfiCommon0
          CFI Function _Z10freeMemoryv
          CFI NoCalls
        THUMB
//  956 	int freeMemory() { return 4396; }	//No free ram management
_Z10freeMemoryv:
        MOVW     R0,#+4396
        BX       LR               ;; return
          CFI EndBlock cfiBlock11
//  957 
//  958 #endif // !SDSUPPORT
//  959 
//  960 #if ENABLED(DIGIPOT_I2C)
//  961   extern void digipot_i2c_set_current(uint8_t channel, float current);
//  962   extern void digipot_i2c_init();
//  963 #endif
//  964 
//  965 /**
//  966  * Inject the next "immediate" command, when possible, onto the front of the queue.
//  967  * Return true if any immediate commands remain to inject.
//  968  */

        SECTION `.text`:CODE:NOROOT(1)
          CFI Block cfiBlock12 Using cfiCommon0
          CFI Function _Z25drain_injected_commands_Pv
        THUMB
//  969 static bool drain_injected_commands_P() {
_Z25drain_injected_commands_Pv:
        PUSH     {R4-R6,LR}
          CFI R14 Frame(CFA, -4)
          CFI R6 Frame(CFA, -8)
          CFI R5 Frame(CFA, -12)
          CFI R4 Frame(CFA, -16)
          CFI CFA R13+16
        SUB      SP,SP,#+32
          CFI CFA R13+48
//  970   if (injected_commands_P != NULL) {
        LDR.W    R4,??DataTable137_1
        LDR      R1,[R4, #+0]
        CMP      R1,#+0
        BEQ.N    ??drain_injected_commands_P_0
//  971     size_t i = 0;
        MOVS     R5,#+0
//  972     char c, cmd[30];
//  973     //strncpy_P(cmd, injected_commands_P, sizeof(cmd) - 1);
//  974     strncpy(cmd, injected_commands_P, sizeof(cmd) - 1);	/*--mks--*/
        MOVS     R2,#+29
        ADD      R0,SP,#+0
          CFI FunCall strncpy
        BL       strncpy
//  975     cmd[sizeof(cmd) - 1] = '\0';
        ADD      R0,SP,#+0
        MOV      R1,R5
        STRB     R1,[R0, #+29]
        B.N      ??drain_injected_commands_P_1
//  976     while ((c = cmd[i]) && c != '\n') i++; // find the end of this gcode command
??drain_injected_commands_P_2:
        ADDS     R5,R5,#+1
??drain_injected_commands_P_1:
        LDRSB    R6,[R5, R0]
        CMP      R6,#+0
        BEQ.N    ??drain_injected_commands_P_3
        CMP      R6,#+10
        BNE.N    ??drain_injected_commands_P_2
//  977     cmd[i] = '\0';
??drain_injected_commands_P_3:
        STRB     R1,[R5, R0]
//  978     if (enqueue_and_echo_command(cmd))     // success?
          CFI FunCall _Z24enqueue_and_echo_commandPKcb
        BL       _Z24enqueue_and_echo_commandPKcb
        CMP      R0,#+0
        BEQ.N    ??drain_injected_commands_P_0
//  979       injected_commands_P = c ? injected_commands_P + i + 1 : NULL; // next command or done
        CMP      R6,#+0
        BEQ.N    ??drain_injected_commands_P_4
        LDR      R0,[R4, #+0]
        ADDS     R0,R5,R0
        ADDS     R0,R0,#+1
        STR      R0,[R4, #+0]
        B.N      ??drain_injected_commands_P_0
??drain_injected_commands_P_4:
        MOVS     R0,#+0
        STR      R0,[R4, #+0]
//  980   }
//  981   return (injected_commands_P != NULL);    // return whether any more remain
??drain_injected_commands_P_0:
        LDR      R0,[R4, #+0]
        CMP      R0,#+0
        BEQ.N    ??drain_injected_commands_P_5
        MOVS     R0,#+1
        B.N      ??drain_injected_commands_P_6
??drain_injected_commands_P_5:
        MOVS     R0,#+0
??drain_injected_commands_P_6:
        ADD      SP,SP,#+32
          CFI CFA R13+16
        POP      {R4-R6,PC}       ;; return
          CFI EndBlock cfiBlock12
//  982 }
//  983 
//  984 /**
//  985  * Record one or many commands to run from program memory.
//  986  * Aborts the current queue, if any.
//  987  * Note: drain_injected_commands_P() must be called repeatedly to drain the commands afterwards
//  988  */

        SECTION `.text`:CODE:NOROOT(1)
          CFI Block cfiBlock13 Using cfiCommon0
          CFI Function _Z27enqueue_and_echo_commands_PPKc
        THUMB
//  989 void enqueue_and_echo_commands_P(const char * const pgcode) {
//  990   injected_commands_P = pgcode;
_Z27enqueue_and_echo_commands_PPKc:
        LDR.W    R1,??DataTable137_1
        STR      R0,[R1, #+0]
//  991   drain_injected_commands_P(); // first command executed asap (when possible)
          CFI FunCall _Z25drain_injected_commands_Pv
        B.N      _Z25drain_injected_commands_Pv
          CFI EndBlock cfiBlock13
//  992 }
//  993 
//  994 /**
//  995  * Clear the Marlin command queue
//  996  */

        SECTION `.text`:CODE:NOROOT(1)
          CFI Block cfiBlock14 Using cfiCommon0
          CFI Function _Z19clear_command_queuev
          CFI NoCalls
        THUMB
//  997 void clear_command_queue() {
//  998   cmd_queue_index_r = cmd_queue_index_w;
_Z19clear_command_queuev:
        LDR.W    R0,??DataTable137_2
        LDRB     R1,[R0, #+8]
        STRB     R1,[R0, #+7]
//  999   commands_in_queue = 0;
        MOVS     R0,#+0
        LDR.W    R1,??DataTable134_4
        STRB     R0,[R1, #+2]
// 1000 }
        BX       LR               ;; return
          CFI EndBlock cfiBlock14
// 1001 
// 1002 /**
// 1003  * Once a new command is in the ring buffer, call this to commit it
// 1004  */
// 1005 inline void _commit_command(bool say_ok) {
// 1006   send_ok[cmd_queue_index_w] = say_ok;
// 1007   if (++cmd_queue_index_w >= BUFSIZE) cmd_queue_index_w = 0;
// 1008   commands_in_queue++;
// 1009 }
// 1010 
// 1011 /**
// 1012  * Copy a command from RAM into the main command buffer.
// 1013  * Return true if the command was successfully added.
// 1014  * Return false for a full buffer, or if the 'command' is a comment.
// 1015  */
// 1016 inline bool _enqueuecommand(const char* cmd, bool say_ok=false) {
// 1017   if (*cmd == ';' || commands_in_queue >= BUFSIZE) return false;
// 1018   strcpy(command_queue[cmd_queue_index_w], cmd);
// 1019   _commit_command(say_ok);
// 1020   return true;
// 1021 }
// 1022 
// 1023 /**
// 1024  * Enqueue with Serial Echo
// 1025  */

        SECTION `.text`:CODE:NOROOT(1)
          CFI Block cfiBlock15 Using cfiCommon0
          CFI Function _Z24enqueue_and_echo_commandPKcb
        THUMB
// 1026 bool enqueue_and_echo_command(const char* cmd, bool say_ok/*=false*/) {
_Z24enqueue_and_echo_commandPKcb:
        PUSH     {R4,LR}
          CFI R14 Frame(CFA, -4)
          CFI R4 Frame(CFA, -8)
          CFI CFA R13+8
        MOV      R4,R0
// 1027   if (_enqueuecommand(cmd, say_ok)) {
          CFI FunCall _Z15_enqueuecommandPKcb
        BL       _Z15_enqueuecommandPKcb
        CMP      R0,#+0
        BEQ.N    ??enqueue_and_echo_command_0
// 1028     SERIAL_ECHO_START();
        LDR.W    R0,??DataTable137_3
          CFI FunCall _Z14serialprintPGMPKc
        BL       _Z14serialprintPGMPKc
// 1029     SERIAL_ECHOPAIR(MSG_ENQUEUEING, cmd);
        MOV      R1,R4
        ADR.W    R0,`?<Constant "enqueueing \\"">`
          CFI FunCall _Z17serial_echopair_PPKcS0_
        BL       _Z17serial_echopair_PPKcS0_
// 1030     SERIAL_CHAR('"');
        LDR.W    R4,??DataTable137_4
        MOVS     R1,#+34
        MOV      R0,R4
          CFI FunCall _ZN10USARTClass5writeEh
        BL       _ZN10USARTClass5writeEh
// 1031     SERIAL_EOL();
        MOVS     R1,#+10
        MOV      R0,R4
          CFI FunCall _ZN10USARTClass5writeEh
        BL       _ZN10USARTClass5writeEh
// 1032     return true;
        MOVS     R0,#+1
        POP      {R4,PC}
// 1033   }
// 1034   return false;
??enqueue_and_echo_command_0:
        MOVS     R0,#+0
        POP      {R4,PC}          ;; return
          CFI EndBlock cfiBlock15
// 1035 }

        SECTION `.text`:CODE:NOROOT(2)
        SECTION_TYPE SHT_PROGBITS, 0
        DATA
`?<Constant "enqueueing \\"">`:
        DC8 "enqueueing \""
        DC8 0, 0, 0
// 1036 

        SECTION `.text`:CODE:NOROOT(1)
          CFI Block cfiBlock16 Using cfiCommon0
          CFI Function _Z13setup_killpinv
          CFI NoCalls
        THUMB
// 1037 void setup_killpin() {
// 1038   #if HAS_KILL
// 1039     SET_INPUT_PULLUP(KILL_PIN);
// 1040   #endif
// 1041 }
_Z13setup_killpinv:
        BX       LR               ;; return
          CFI EndBlock cfiBlock16
// 1042 
// 1043 #if ENABLED(FILAMENT_RUNOUT_SENSOR)
// 1044 
// 1045   void setup_filrunoutpin() {
// 1046     #if ENABLED(ENDSTOPPULLUP_FIL_RUNOUT)
// 1047       SET_INPUT_PULLUP(FIL_RUNOUT_PIN);
// 1048     #else
// 1049       SET_INPUT(FIL_RUNOUT_PIN);
// 1050     #endif
// 1051   }
// 1052 
// 1053 #endif
// 1054 

        SECTION `.text`:CODE:NOROOT(1)
          CFI Block cfiBlock17 Using cfiCommon0
          CFI Function _Z15setup_powerholdv
          CFI NoCalls
        THUMB
// 1055 void setup_powerhold() {
// 1056   #if HAS_SUICIDE
// 1057     OUT_WRITE(SUICIDE_PIN, HIGH);
// 1058   #endif
// 1059   #if HAS_POWER_SWITCH
// 1060     #if ENABLED(PS_DEFAULT_OFF)
// 1061       OUT_WRITE(PS_ON_PIN, PS_ON_ASLEEP);
// 1062     #else
// 1063       OUT_WRITE(PS_ON_PIN, PS_ON_AWAKE);
// 1064     #endif
// 1065   #endif
// 1066 }
_Z15setup_powerholdv:
        BX       LR               ;; return
          CFI EndBlock cfiBlock17
// 1067 

        SECTION `.text`:CODE:NOROOT(1)
          CFI Block cfiBlock18 Using cfiCommon0
          CFI Function _Z7suicidev
          CFI NoCalls
        THUMB
// 1068 void suicide() {
// 1069   #if HAS_SUICIDE
// 1070     OUT_WRITE(SUICIDE_PIN, LOW);
// 1071   #endif
// 1072 }
_Z7suicidev:
        BX       LR               ;; return
          CFI EndBlock cfiBlock18
// 1073 

        SECTION `.text`:CODE:NOROOT(1)
          CFI Block cfiBlock19 Using cfiCommon0
          CFI Function _Z10servo_initv
          CFI NoCalls
        THUMB
// 1074 void servo_init() {
// 1075   #if NUM_SERVOS >= 1 && HAS_SERVO_0
// 1076     servo[0].attach(SERVO0_PIN);
// 1077     servo[0].detach(); // Just set up the pin. We don't have a position yet. Don't move to a random position.
// 1078   #endif
// 1079   #if NUM_SERVOS >= 2 && HAS_SERVO_1
// 1080     servo[1].attach(SERVO1_PIN);
// 1081     servo[1].detach();
// 1082   #endif
// 1083   #if NUM_SERVOS >= 3 && HAS_SERVO_2
// 1084     servo[2].attach(SERVO2_PIN);
// 1085     servo[2].detach();
// 1086   #endif
// 1087   #if NUM_SERVOS >= 4 && HAS_SERVO_3
// 1088     servo[3].attach(SERVO3_PIN);
// 1089     servo[3].detach();
// 1090   #endif
// 1091 
// 1092   #if HAS_Z_SERVO_ENDSTOP
// 1093     /**
// 1094      * Set position of Z Servo Endstop
// 1095      *
// 1096      * The servo might be deployed and positioned too low to stow
// 1097      * when starting up the machine or rebooting the board.
// 1098      * There's no way to know where the nozzle is positioned until
// 1099      * homing has been done - no homing with z-probe without init!
// 1100      *
// 1101      */
// 1102     STOW_Z_SERVO();
// 1103   #endif
// 1104 }
_Z10servo_initv:
        BX       LR               ;; return
          CFI EndBlock cfiBlock19
// 1105 
// 1106 /**
// 1107  * Stepper Reset (RigidBoard, et.al.)
// 1108  */
// 1109 #if HAS_STEPPER_RESET
// 1110   void disableStepperDrivers() {
// 1111     OUT_WRITE(STEPPER_RESET_PIN, LOW);  // drive it down to hold in reset motor driver chips
// 1112   }
// 1113   void enableStepperDrivers() { SET_INPUT(STEPPER_RESET_PIN); }  // set to input, which allows it to be pulled high by pullups
// 1114 #endif
// 1115 
// 1116 #if ENABLED(EXPERIMENTAL_I2CBUS) && I2C_SLAVE_ADDRESS > 0
// 1117 
// 1118   void i2c_on_receive(int bytes) { // just echo all bytes received to serial
// 1119     i2c.receive(bytes);
// 1120   }
// 1121 
// 1122   void i2c_on_request() {          // just send dummy data for now
// 1123     i2c.reply("Hello World!\n");
// 1124   }
// 1125 
// 1126 #endif
// 1127 

        SECTION `.text`:CODE:NOROOT(1)
          CFI Block cfiBlock20 Using cfiCommon0
          CFI Function _Z16gcode_line_errorPKcb
        THUMB
// 1128 void gcode_line_error(const char* err, bool doFlush = true) {
_Z16gcode_line_errorPKcb:
        PUSH     {R4-R6,LR}
          CFI R14 Frame(CFA, -4)
          CFI R6 Frame(CFA, -8)
          CFI R5 Frame(CFA, -12)
          CFI R4 Frame(CFA, -16)
          CFI CFA R13+16
        MOV      R4,R0
        MOV      R5,R1
// 1129   SERIAL_ERROR_START();
        LDR.W    R0,??DataTable137_5
          CFI FunCall _Z14serialprintPGMPKc
        BL       _Z14serialprintPGMPKc
// 1130   serialprintPGM(err);
        MOV      R0,R4
          CFI FunCall _Z14serialprintPGMPKc
        BL       _Z14serialprintPGMPKc
// 1131   SERIAL_ERRORLN(gcode_LastN);
        LDR.W    R4,??DataTable137_4
        LDR.W    R6,??DataTable139
        MOVS     R2,#+10
        LDR      R1,[R6, #+44]
        MOV      R0,R4
          CFI FunCall _ZN5Print5printEli
        BL       _ZN5Print5printEli
        MOVS     R1,#+10
        MOV      R0,R4
          CFI FunCall _ZN10USARTClass5writeEh
        BL       _ZN10USARTClass5writeEh
// 1132   //Serial.println(gcode_N);
// 1133   if (doFlush) FlushSerialRequestResend();
        CMP      R5,#+0
        BEQ.N    ??gcode_line_error_0
          CFI FunCall _Z24FlushSerialRequestResendv
        BL       _Z24FlushSerialRequestResendv
// 1134   serial_count = 0;
??gcode_line_error_0:
        MOVS     R0,#+0
        STR      R0,[R6, #+52]
// 1135 }
        POP      {R4-R6,PC}       ;; return
          CFI EndBlock cfiBlock20
// 1136 
// 1137 uint8_t serial_wait_tick = 0; //use to calculate the serial wait ticks
// 1138 
// 1139 uint8_t from_wifi_flag = 0; // whether data comes from wifi model
// 1140 
// 1141 /**
// 1142  * Get all commands waiting on the serial port and queue them.
// 1143  * Exit when the buffer is full or when no more characters are
// 1144  * left on the serial port.
// 1145  */
// 1146 inline void get_serial_commands() {
// 1147   static char serial_line_buffer[MAX_CMD_SIZE];
// 1148   static bool serial_comment_mode = false;
// 1149   static millis_t last_wait_time = 0;
// 1150   const millis_t wait_ms = millis();
// 1151 
// 1152   // If the command buffer is empty for too long,
// 1153   // send "wait" to indicate Marlin is still waiting.
// 1154   #if defined(NO_TIMEOUTS) && NO_TIMEOUTS > 0
// 1155     static millis_t last_command_time = 0;
// 1156     const millis_t ms = millis();
// 1157     if (commands_in_queue == 0 && !MYSERIAL.available() && ELAPSED(ms, last_command_time + NO_TIMEOUTS)) {
// 1158       SERIAL_ECHOLNPGM(MSG_WAIT);
// 1159       last_command_time = ms;
// 1160     }
// 1161   #endif
// 1162 #if 1
// 1163   
// 1164 	  /*5s?¨?2a2?|ì?????¨2¨oy?Y?¨°¨¨??a??¨?D¨￠a?¨2?????ê??¨|¨o1¨??wifi*/
// 1165 	 if (commands_in_queue == 0 && !MYSERIAL.available() && ELAPSED(wait_ms, last_wait_time + 1000)) {
// 1166 		if(serial_wait_tick <= 5)
// 1167 	  {
// 1168 		  serial_wait_tick ++;
// 1169 	  }
// 1170 		last_wait_time = wait_ms;
// 1171 	  }
// 1172 #endif
// 1173 
// 1174   /**
// 1175    * Loop while serial characters are incoming and the queue is not full
// 1176    */
// 1177   int c;
// 1178   while (commands_in_queue < BUFSIZE && (c = MYSERIAL.read()) >= 0) {
// 1179 
// 1180     char serial_char = c;
// 1181 	
// 1182 	serial_wait_tick = 0;
// 1183 	from_wifi_flag = 0;
// 1184 
// 1185     /**
// 1186      * If the character ends the line
// 1187      */
// 1188     if (serial_char == '\n' || serial_char == '\r') {
// 1189 
// 1190       serial_comment_mode = false;                      // end of line == end of comment
// 1191 
// 1192       if (!serial_count) continue;                      // Skip empty lines
// 1193 
// 1194       serial_line_buffer[serial_count] = 0;             // Terminate string
// 1195       serial_count = 0;                                 // Reset buffer
// 1196 
// 1197       char* command = serial_line_buffer;
// 1198 
// 1199       while (*command == ' ') command++;                // Skip leading spaces
// 1200       char *npos = (*command == 'N') ? command : NULL;  // Require the N parameter to start the line
// 1201 
// 1202       if (npos) {
// 1203 
// 1204         bool M110 = strstr_P(command, PSTR("M110")) != NULL;
// 1205 
// 1206         if (M110) {
// 1207           char* n2pos = strchr(command + 4, 'N');
// 1208           if (n2pos) npos = n2pos;
// 1209         }
// 1210 
// 1211         gcode_N = strtol(npos + 1, NULL, 10);
// 1212 
// 1213         if (gcode_N != gcode_LastN + 1 && !M110) {
// 1214           gcode_line_error(PSTR(MSG_ERR_LINE_NO));
// 1215           return;
// 1216         }
// 1217 
// 1218         char *apos = strrchr(command, '*');
// 1219         if (apos) {
// 1220           uint8_t checksum = 0, count = uint8_t(apos - command);
// 1221           while (count) checksum ^= command[--count];
// 1222           if (strtol(apos + 1, NULL, 10) != checksum) {
// 1223             gcode_line_error(PSTR(MSG_ERR_CHECKSUM_MISMATCH));
// 1224             return;
// 1225           }
// 1226         }
// 1227         else {
// 1228           gcode_line_error(PSTR(MSG_ERR_NO_CHECKSUM));
// 1229           return;
// 1230         }
// 1231 
// 1232         gcode_LastN = gcode_N;
// 1233       }
// 1234 
// 1235       // Movement commands alert when stopped
// 1236       if (IsStopped()) {
// 1237         char* gpos = strchr(command, 'G');
// 1238         if (gpos) {
// 1239           const int codenum = strtol(gpos + 1, NULL, 10);
// 1240           switch (codenum) {
// 1241             case 0:
// 1242             case 1:
// 1243             case 2:
// 1244             case 3:
// 1245               SERIAL_ERRORLNPGM(MSG_ERR_STOPPED);
// 1246               LCD_MESSAGEPGM(MSG_STOPPED);
// 1247               break;
// 1248           }
// 1249         }
// 1250       }
// 1251 
// 1252       #if DISABLED(EMERGENCY_PARSER)
// 1253         // If command was e-stop process now
// 1254         if (strcmp(command, "M108") == 0) {
// 1255           wait_for_heatup = false;
// 1256           #if ENABLED(ULTIPANEL)
// 1257             wait_for_user = false;
// 1258           #endif
// 1259         }
// 1260         if (strcmp(command, "M112") == 0) kill(PSTR(MSG_KILLED));
// 1261         if (strcmp(command, "M410") == 0) { quickstop_stepper(); }
// 1262       #endif
// 1263 
// 1264       #if defined(NO_TIMEOUTS) && NO_TIMEOUTS > 0
// 1265         last_command_time = ms;
// 1266       #endif
// 1267 
// 1268       // Add the command to the queue
// 1269       _enqueuecommand(serial_line_buffer, true);
// 1270     }
// 1271     else if (serial_count >= MAX_CMD_SIZE - 1) {
// 1272       // Keep fetching, but ignore normal characters beyond the max length
// 1273       // The command will be injected when EOL is reached
// 1274     }
// 1275     else if (serial_char == '\\') {  // Handle escapes
// 1276       if ((c = MYSERIAL.read()) >= 0) {
// 1277         // if we have one more character, copy it over
// 1278         serial_char = c;
// 1279         if (!serial_comment_mode) serial_line_buffer[serial_count++] = serial_char;
// 1280       }
// 1281       // otherwise do nothing
// 1282     }
// 1283     else { // it's not a newline, carriage return or escape char
// 1284       if (serial_char == ';') serial_comment_mode = true;
// 1285       if (!serial_comment_mode) serial_line_buffer[serial_count++] = serial_char;
// 1286     }
// 1287 
// 1288   } // queue has space, serial has data
// 1289 }
// 1290 
// 1291 #if ENABLED(SDSUPPORT)
// 1292 
// 1293 uint8_t sd_read_error_flg=0;
// 1294 uint8_t sd_read_cnt=0;
// 1295 

        SECTION `.text`:CODE:NOROOT(1)
          CFI Block cfiBlock21 Using cfiCommon0
          CFI Function _Z16display_sd_errorv
        THUMB
// 1296 void display_sd_error()
// 1297 {
_Z16display_sd_errorv:
        PUSH     {R4,R5,LR}
          CFI R14 Frame(CFA, -4)
          CFI R5 Frame(CFA, -8)
          CFI R4 Frame(CFA, -12)
          CFI CFA R13+12
        SUB      SP,SP,#+36
          CFI CFA R13+48
// 1298   char buf_sd_err[30]={0};
        ADD      R0,SP,#+0
        MOVS     R1,#+32
          CFI FunCall __aeabi_memclr4
        BL       __aeabi_memclr4
// 1299   
// 1300   if(sd_read_error_flg == 1)
        LDR.W    R4,??DataTable137_2
        LDRB     R0,[R4, #+9]
        CMP      R0,#+1
        BNE.N    ??display_sd_error_0
// 1301   {
// 1302       GUI_SetBkColor(gCfgItems.background_color);
        LDR.W    R5,??DataTable139_1
        LDR      R0,[R5, #+4]
          CFI FunCall GUI_SetBkColor
        BL       GUI_SetBkColor
// 1303       GUI_SetColor(0X0000ff);//   oìé?×?ì?
        MOVS     R0,#+255
          CFI FunCall GUI_SetColor
        BL       GUI_SetColor
// 1304       //memset(buf_sd_err,' ',sizeof(buf_sd_err)-1);
// 1305       //GUI_DispStringAt(buf_sd_err,250, TITLE_YPOS);
// 1306       sprintf(buf_sd_err,"sd:%d",sd_read_cnt);
        LDRB     R2,[R4, #+10]
        ADR.W    R1,`?<Constant "sd:%d">`
        ADD      R0,SP,#+0
          CFI FunCall sprintf
        BL       sprintf
// 1307       GUI_DispStringAt(buf_sd_err,400, TITLE_YPOS);
        MOVS     R2,#+5
        MOV      R1,#+400
        ADD      R0,SP,#+0
          CFI FunCall GUI_DispStringAt
        BL       GUI_DispStringAt
// 1308       GUI_SetBkColor(gCfgItems.background_color);
        LDR      R0,[R5, #+4]
          CFI FunCall GUI_SetBkColor
        BL       GUI_SetBkColor
// 1309       GUI_SetColor(gCfgItems.title_color);            
        LDR      R0,[R5, #+8]
          CFI FunCall GUI_SetColor
        BL       GUI_SetColor
// 1310   }
// 1311 }
??display_sd_error_0:
        ADD      SP,SP,#+36
          CFI CFA R13+12
        POP      {R4,R5,PC}       ;; return
          CFI EndBlock cfiBlock21

        SECTION `.text`:CODE:NOROOT(2)
        SECTION_TYPE SHT_PROGBITS, 0
        DATA
`?<Constant "sd:%d">`:
        DC8 "sd:%d"
        DC8 0, 0
// 1312 
// 1313 
// 1314   /**
// 1315    * Get commands from the SD Card until the command buffer is full
// 1316    * or until the end of the file is reached. The special character '#'
// 1317    * can also interrupt buffering.
// 1318    */
// 1319   inline void get_sdcard_commands() {
// 1320     static bool stop_buffering = false,
// 1321                 sd_comment_mode = false;
// 1322 
// 1323     if (!card.sdprinting) return;
// 1324 
// 1325     /**
// 1326      * '#' stops reading from SD to the buffer prematurely, so procedural
// 1327      * macro calls are possible. If it occurs, stop_buffering is triggered
// 1328      * and the buffer is run dry; this character _can_ occur in serial com
// 1329      * due to checksums, however, no checksums are used in SD printing.
// 1330      */
// 1331 
// 1332     if (commands_in_queue == 0) stop_buffering = false;
// 1333 
// 1334     uint16_t sd_count = 0;
// 1335     bool card_eof = card.eof();
// 1336     while (commands_in_queue < BUFSIZE && !card_eof && !stop_buffering) {
// 1337       const int16_t n = card.get();
// 1338       char sd_char = (char)n;
// 1339       card_eof = card.eof();
// 1340       if (card_eof || n == -1
// 1341           || sd_char == '\n' || sd_char == '\r'
// 1342           || ((sd_char == '#' || sd_char == ':') && !sd_comment_mode)
// 1343       ) {
// 1344         if (card_eof) {
// 1345           gCfgItems.breakpoint_reprint_flg = 0;
// 1346           gCfgItems.breakpoint_z_pos = 0;
// 1347           gCfgItems.breakpoint_flg=0;
// 1348 
// 1349           card.printingHasFinished();
// 1350 
// 1351           if (card.sdprinting)
// 1352             sd_count = 0; // If a sub-file was printing, continue from call point
// 1353           else {
// 1354             SERIAL_PROTOCOLLNPGM(MSG_FILE_PRINTED);
// 1355             #if ENABLED(PRINTER_EVENT_LEDS)
// 1356               LCD_MESSAGEPGM(MSG_INFO_COMPLETED_PRINTS);
// 1357               leds.set_green();
// 1358               #if HAS_RESUME_CONTINUE
// 1359                 enqueue_and_echo_commands_P(PSTR("M0")); // end of the queue!
// 1360               #else
// 1361                 safe_delay(1000);
// 1362               #endif
// 1363               leds.set_off();
// 1364             #endif
// 1365             card.checkautostart(true);
// 1366 			
// 1367 			#if 1
// 1368 			
// 1369 			
// 1370 			//′òíê1??ú?￡
// 1371 			//if((gCfgItems.print_finish_close_machine_flg == 1)&&(IsChooseAutoShutdown==1))
// 1372 			//    Close_machine_display();
// 1373 
// 1374             #endif 				
// 1375           }
// 1376         }
// 1377         else if (n == -1) {
// 1378           SERIAL_ERROR_START();
// 1379           SERIAL_ECHOLNPGM(MSG_SD_ERR_READ);
// 1380           //sd_count++;
// 1381           //card.cardOK=false;
// 1382           //commands_in_queue+=1;
// 1383           //sdpos_bak=card.sdpos;
// 1384           //card.sdprinting=false;
// 1385           SD_Init();
// 1386           card.initsd();
// 1387           if(card.reopenfile(curFileName))
// 1388           {
// 1389             card.setIndex(card.sdpos);
// 1390           }
// 1391           memset(command_queue[cmd_queue_index_w],0,sizeof(command_queue[cmd_queue_index_w]));
// 1392           //GUI_TOUCH_Exec(); 	  
// 1393           //GUI_Exec();
// 1394          #if 1
// 1395 	  thermalManager.manage_heater();
// 1396 	  
// 1397 	  display_temper_error();
// 1398 	  
// 1399 	  //wifi_looping();
// 1400 	  
// 1401 	  if(wifi_link_state != WIFI_TRANS_FILE)
// 1402 	  {
// 1403 		  GUI_RefreshPage();
// 1404 	  }
// 1405 	  #if defined(TFT70)
// 1406 	  disp_pre_gcode(3,40);
// 1407 	  #elif defined(TFT35)
// 1408 	  //#if defined(MKS_ROBIN2)
// 1409 	  if(preview_no_display != 1)
// 1410 	  {
// 1411 		  disp_pre_gcode(2,36);
// 1412 	  }
// 1413 	  //#endif
// 1414 	  #endif
// 1415 	  
// 1416 	  GUI_TOUCH_Exec(); 	  
// 1417 	  GUI_Exec(); 
// 1418 
// 1419 	#endif
// 1420 
// 1421           sd_read_error_flg=1;
// 1422           sd_read_cnt++;
// 1423         }
// 1424         if (sd_char == '#') stop_buffering = true;
// 1425 
// 1426         sd_comment_mode = false; // for new command
// 1427 
// 1428         if (!sd_count) continue; // skip empty lines (and comment lines)
// 1429 
// 1430         command_queue[cmd_queue_index_w][sd_count] = '\0'; // terminate string
// 1431         sd_count = 0; // clear sd line buffer
// 1432 
// 1433         _commit_command(false);
// 1434       }
// 1435       else if (sd_count >= MAX_CMD_SIZE - 1) {
// 1436         /**
// 1437          * Keep fetching, but ignore normal characters beyond the max length
// 1438          * The command will be injected when EOL is reached
// 1439          */
// 1440       }
// 1441       else {
// 1442         if (sd_char == ';') sd_comment_mode = true;
// 1443         //if (!sd_comment_mode) command_queue[cmd_queue_index_w][sd_count++] = sd_char;
// 1444         if (!sd_comment_mode) 
// 1445         {
// 1446 			command_queue[cmd_queue_index_w][sd_count++] = sd_char;
// 1447 			if(sd_char == 0x5a ) //"Z"
// 1448 			{
// 1449 				mksReprint.sdpos = card.getsdpos()-3;	//"・?2?????"
// 1450 				#if 1
// 1451 				mksReprint.sdpos_bak = mksReprint.sdpos;//sdpos_bakμ?èY??μ?￡????′ê1ó?
// 1452 				if(gCfgItems.pwroff_save_mode != 1)//sd?¨±￡′???μ?êy?Y
// 1453                 #endif
// 1454 					mksReprint.refresh = true;
// 1455 			}
// 1456         }        
// 1457       }
// 1458     }
// 1459   }
// 1460 
// 1461 #endif // SDSUPPORT
// 1462 #if 1
// 1463 inline void get_wifi_commands() {
// 1464   static char wifi_line_buffer[MAX_CMD_SIZE];
// 1465   static bool wifi_comment_mode = false;
// 1466 
// 1467   if(serial_wait_tick > 5)
// 1468   {
// 1469   	from_wifi_flag = 1;
// 1470 
// 1471 /**
// 1472 	   * Loop while serial characters are incoming and the queue is not full
// 1473 	   */
// 1474 	  while ((commands_in_queue < BUFSIZE) && (espGcodeFifo.r != espGcodeFifo.w)) {
// 1475 
// 1476 	    char wifi_char = espGcodeFifo.Buffer[espGcodeFifo.r];
// 1477 
// 1478 	    espGcodeFifo.r = (espGcodeFifo.r + 1) % WIFI_GCODE_BUFFER_SIZE;
// 1479 
// 1480 	    /**
// 1481 	     * If the character ends the line
// 1482 	     */
// 1483 	    if (wifi_char == '\n' || wifi_char == '\r') {
// 1484 
// 1485 	      wifi_comment_mode = false; // end of line == end of comment
// 1486 
// 1487 	      if (!wifi_read_count) continue; // skip empty lines
// 1488 
// 1489 	      wifi_line_buffer[wifi_read_count] = 0; // terminate string
// 1490 	      wifi_read_count = 0; //reset buffer
// 1491 
// 1492 	      char* command = wifi_line_buffer;
// 1493 
// 1494 	      while (*command == ' ') command++; // skip any leading spaces	    
// 1495 
// 1496 	      // Movement commands alert when stopped
// 1497 	      if (IsStopped()) {
// 1498 	        char* gpos = strchr(command, 'G');
// 1499 	        if (gpos) {
// 1500 	          const int codenum = strtol(gpos + 1, NULL, 10);
// 1501 	          switch (codenum) {
// 1502 	            case 0:
// 1503 	            case 1:
// 1504 	            case 2:
// 1505 	            case 3:
// 1506 	              SERIAL_ERRORLNPGM(MSG_ERR_STOPPED);
// 1507 	              LCD_MESSAGEPGM(MSG_STOPPED);
// 1508 	              break;
// 1509 	          }
// 1510 	        }
// 1511 	      }
// 1512 
// 1513 	      #if DISABLED(EMERGENCY_PARSER)
// 1514 	        // If command was e-stop process now
// 1515 	        if (strcmp(command, "M108") == 0) {
// 1516 	          wait_for_heatup = false;
// 1517 	          #if ENABLED(ULTIPANEL)
// 1518 	            wait_for_user = false;
// 1519 	          #endif
// 1520 	        }
// 1521 	        if (strcmp(command, "M112") == 0) kill(PSTR(MSG_KILLED));
// 1522 	        if (strcmp(command, "M410") == 0) { quickstop_stepper(); }
// 1523 	      #endif
// 1524 
// 1525 	      #if defined(NO_TIMEOUTS) && NO_TIMEOUTS > 0
// 1526 	        last_command_time = ms;
// 1527 	      #endif
// 1528 
// 1529 	      // Add the command to the queue
// 1530 	      _enqueuecommand(wifi_line_buffer, true);
// 1531 	    }
// 1532 	    else if (wifi_read_count >= MAX_CMD_SIZE - 1) {
// 1533 	      // Keep fetching, but ignore normal characters beyond the max length
// 1534 	      // The command will be injected when EOL is reached
// 1535 	    }
// 1536 		/*
// 1537 	    else if (wifi_char == '\\') {  // Handle escapes
// 1538 	      if (MYSERIAL.available() > 0) {
// 1539 	        // if we have one more character, copy it over
// 1540 	        wifi_char = MYSERIAL.read();
// 1541 	        if (!serial_comment_mode) serial_line_buffer[serial_count++] = serial_char;
// 1542 	      }
// 1543 	      // otherwise do nothing
// 1544 	    }*/
// 1545 	    else { // it's not a newline, carriage return or escape char
// 1546 	      if (wifi_char == ';') wifi_comment_mode = true;
// 1547 	      if (!wifi_comment_mode) wifi_line_buffer[wifi_read_count++] = wifi_char;
// 1548 	    }
// 1549 
// 1550 	  }
// 1551     }// queue has space, serial has data
// 1552     else
// 1553     {
// 1554     	from_wifi_flag = 0;
// 1555     }
// 1556 }
// 1557 #endif
// 1558 
// 1559 /**
// 1560  * Add to the circular command queue the next command from:
// 1561  *  - The command-injection queue (injected_commands_P)
// 1562  *  - The active serial input (usually USB)
// 1563  *  - The SD card file being actively printed
// 1564  */

        SECTION `.text`:CODE:NOROOT(1)
          CFI Block cfiBlock22 Using cfiCommon0
          CFI Function _Z22get_available_commandsv
        THUMB
// 1565 void get_available_commands() {
_Z22get_available_commandsv:
        PUSH     {R7,LR}
          CFI R14 Frame(CFA, -4)
          CFI CFA R13+8
// 1566 
// 1567   // if any immediate commands remain, don't get other commands yet
// 1568   if (drain_injected_commands_P()) return;
          CFI FunCall _Z25drain_injected_commands_Pv
        BL       _Z25drain_injected_commands_Pv
        CMP      R0,#+0
        BNE.N    ??get_available_commands_0
// 1569 
// 1570   get_serial_commands();
          CFI FunCall _Z19get_serial_commandsv
        BL       _Z19get_serial_commandsv
// 1571   
// 1572 #if 1
// 1573 	get_wifi_commands();
          CFI FunCall _Z17get_wifi_commandsv
        BL       _Z17get_wifi_commandsv
// 1574 #endif
// 1575 
// 1576   #if ENABLED(SDSUPPORT)
// 1577     get_sdcard_commands();
        POP      {R0,LR}
          CFI R14 SameValue
          CFI CFA R13+0
          CFI FunCall _Z19get_sdcard_commandsv
        B.W      _Z19get_sdcard_commandsv
          CFI R14 Frame(CFA, -4)
          CFI CFA R13+8
??get_available_commands_0:
        POP      {R0,PC}          ;; return
          CFI EndBlock cfiBlock22
// 1578   #endif
// 1579 }
// 1580 
// 1581 /**
// 1582  * Set target_extruder from the T parameter or the active_extruder
// 1583  *
// 1584  * Returns TRUE if the target is invalid
// 1585  */

        SECTION `.text`:CODE:NOROOT(1)
          CFI Block cfiBlock23 Using cfiCommon0
          CFI Function _Z32get_target_extruder_from_commandt
        THUMB
// 1586 bool get_target_extruder_from_command(const uint16_t code) {
_Z32get_target_extruder_from_commandt:
        PUSH     {R4-R6,LR}
          CFI R14 Frame(CFA, -4)
          CFI R6 Frame(CFA, -8)
          CFI R5 Frame(CFA, -12)
          CFI R4 Frame(CFA, -16)
          CFI CFA R13+16
        MOV      R4,R0
// 1587   if (parser.seenval('T')) {
        MOVS     R0,#+84
          CFI FunCall _ZN11GCodeParser7seenvalEc
        BL       _ZN11GCodeParser7seenvalEc
        CMP      R0,#+0
        BEQ.N    ??get_target_extruder_from_command_0
// 1588     const int8_t e = parser.value_byte();
          CFI FunCall _ZN11GCodeParser10value_byteEv
        BL       _ZN11GCodeParser10value_byteEv
        MOV      R5,R0
        SXTB     R5,R5
// 1589     if (e >= EXTRUDERS) {
        CMP      R5,#+2
        BLT.N    ??get_target_extruder_from_command_1
// 1590       SERIAL_ECHO_START();
        LDR.W    R0,??DataTable137_3
          CFI FunCall _Z14serialprintPGMPKc
        BL       _Z14serialprintPGMPKc
// 1591       SERIAL_CHAR('M');
        LDR.W    R6,??DataTable137_4
        MOVS     R1,#+77
        MOV      R0,R6
          CFI FunCall _ZN10USARTClass5writeEh
        BL       _ZN10USARTClass5writeEh
// 1592       SERIAL_ECHO(code);
        MOVS     R2,#+10
        MOV      R1,R4
        MOV      R0,R6
          CFI FunCall _ZN5Print5printEii
        BL       _ZN5Print5printEii
// 1593       SERIAL_ECHOLNPAIR(" " MSG_INVALID_EXTRUDER " ", e);
        MOV      R1,R5
        ADR.W    R0,`?<Constant " Invalid extruder ">`
          CFI FunCall _Z17serial_echopair_PPKci
        BL       _Z17serial_echopair_PPKci
        MOVS     R1,#+10
        MOV      R0,R6
          CFI FunCall _ZN10USARTClass5writeEh
        BL       _ZN10USARTClass5writeEh
// 1594       return true;
        MOVS     R0,#+1
        POP      {R4-R6,PC}
// 1595     }
// 1596     target_extruder = e;
??get_target_extruder_from_command_1:
        LDR.W    R0,??DataTable134_4
        STRB     R5,[R0, #+5]
        B.N      ??get_target_extruder_from_command_2
// 1597   }
// 1598   else
// 1599     target_extruder = active_extruder;
??get_target_extruder_from_command_0:
        LDR.W    R0,??DataTable134_4
        LDRB     R1,[R0, #+3]
        STRB     R1,[R0, #+5]
// 1600 
// 1601   return false;
??get_target_extruder_from_command_2:
        MOVS     R0,#+0
        POP      {R4-R6,PC}       ;; return
          CFI EndBlock cfiBlock23
// 1602 }

        SECTION `.text`:CODE:NOROOT(2)
        SECTION_TYPE SHT_PROGBITS, 0
        DATA
`?<Constant " Invalid extruder ">`:
        DC8 " Invalid extruder "
        DC8 0
// 1603 
// 1604 #if ENABLED(DUAL_X_CARRIAGE) || ENABLED(DUAL_NOZZLE_DUPLICATION_MODE)
// 1605   bool extruder_duplication_enabled = false; // Used in Dual X mode 2
// 1606 #endif
// 1607 
// 1608 #if ENABLED(DUAL_X_CARRIAGE)
// 1609 
// 1610   static DualXMode dual_x_carriage_mode = DEFAULT_DUAL_X_CARRIAGE_MODE;
// 1611 
// 1612   static float x_home_pos(const int extruder) {
// 1613     if (extruder == 0)
// 1614       return base_home_pos(X_AXIS);
// 1615     else
// 1616       /**
// 1617        * In dual carriage mode the extruder offset provides an override of the
// 1618        * second X-carriage position when homed - otherwise X2_HOME_POS is used.
// 1619        * This allows soft recalibration of the second extruder home position
// 1620        * without firmware reflash (through the M218 command).
// 1621        */
// 1622       return hotend_offset[X_AXIS][1] > 0 ? hotend_offset[X_AXIS][1] : X2_HOME_POS;
// 1623   }
// 1624 
// 1625   static int x_home_dir(const int extruder) { return extruder ? X2_HOME_DIR : X_HOME_DIR; }
// 1626 
// 1627   static float inactive_extruder_x_pos = X2_MAX_POS; // used in mode 0 & 1
// 1628   static bool active_extruder_parked = false;        // used in mode 1 & 2
// 1629   static float raised_parked_position[XYZE];         // used in mode 1
// 1630   static millis_t delayed_move_time = 0;             // used in mode 1
// 1631   static float duplicate_extruder_x_offset = DEFAULT_DUPLICATION_X_OFFSET; // used in mode 2
// 1632   static int16_t duplicate_extruder_temp_offset = 0; // used in mode 2
// 1633 
// 1634 #endif // DUAL_X_CARRIAGE
// 1635 
// 1636 #if HAS_WORKSPACE_OFFSET || ENABLED(DUAL_X_CARRIAGE)
// 1637 
// 1638   /**
// 1639    * Software endstops can be used to monitor the open end of
// 1640    * an axis that has a hardware endstop on the other end. Or
// 1641    * they can prevent axes from moving past endstops and grinding.
// 1642    *
// 1643    * To keep doing their job as the coordinate system changes,
// 1644    * the software endstop positions must be refreshed to remain
// 1645    * at the same positions relative to the machine.
// 1646    */

        SECTION `.text`:CODE:NOROOT(1)
          CFI Block cfiBlock24 Using cfiCommon0
          CFI Function _Z24update_software_endstops8AxisEnum
        THUMB
// 1647   void update_software_endstops(const AxisEnum axis) {
_Z24update_software_endstops8AxisEnum:
        PUSH     {R3-R9,LR}
          CFI R14 Frame(CFA, -4)
          CFI R9 Frame(CFA, -8)
          CFI R8 Frame(CFA, -12)
          CFI R7 Frame(CFA, -16)
          CFI R6 Frame(CFA, -20)
          CFI R5 Frame(CFA, -24)
          CFI R4 Frame(CFA, -28)
          CFI CFA R13+32
        MOV      R6,R0
// 1648     #if HAS_HOME_OFFSET && HAS_POSITION_SHIFT
// 1649       workspace_offset[axis] = home_offset[axis] + position_shift[axis];
        MOV      R7,R6
        LDR.W    R4,??DataTable134_4
        ADD      R8,R4,R7, LSL #+2
        LDR.W    R0,??DataTable137_2
        ADD      R0,R0,R7, LSL #+2
        LDR      R1,[R0, #+48]
        LDR      R0,[R8, #+96]
          CFI FunCall __aeabi_fadd
        BL       __aeabi_fadd
        STR      R0,[R8, #+56]
// 1650     #endif
// 1651 
// 1652     #if ENABLED(DUAL_X_CARRIAGE)
// 1653       if (axis == X_AXIS) {
// 1654 
// 1655         // In Dual X mode hotend_offset[X] is T1's home position
// 1656         float dual_max_x = max(hotend_offset[X_AXIS][1], X2_MAX_POS);
// 1657 
// 1658         if (active_extruder != 0) {
// 1659           // T1 can move from X2_MIN_POS to X2_MAX_POS or X2 home position (whichever is larger)
// 1660           soft_endstop_min[X_AXIS] = X2_MIN_POS;
// 1661           soft_endstop_max[X_AXIS] = dual_max_x;
// 1662         }
// 1663         else if (dual_x_carriage_mode == DXC_DUPLICATION_MODE) {
// 1664           // In Duplication Mode, T0 can move as far left as X_MIN_POS
// 1665           // but not so far to the right that T1 would move past the end
// 1666           soft_endstop_min[X_AXIS] = base_min_pos(X_AXIS);
// 1667           soft_endstop_max[X_AXIS] = min(base_max_pos(X_AXIS), dual_max_x - duplicate_extruder_x_offset);
// 1668         }
// 1669         else {
// 1670           // In other modes, T0 can move from X_MIN_POS to X_MAX_POS
// 1671           soft_endstop_min[axis] = base_min_pos(axis);
// 1672           soft_endstop_max[axis] = base_max_pos(axis);
// 1673         }
// 1674       }
// 1675 	#else
// 1676     if (MACHINETPYE == DELTA)//ENABLED(DELTA)
        LDR.W    R5,??DataTable134_9
        LDR.W    R9,??DataTable134_5
        LDRSH    R0,[R9, #+88]
        CMP      R0,#+2
        MOV      R0,R6
        BNE.N    ??update_software_endstops_0
// 1677     {
// 1678       soft_endstop_min[axis] = base_min_pos(axis);
          CFI FunCall _Z12base_min_pos8AxisEnum
        BL       _Z12base_min_pos8AxisEnum
        STR      R0,[R8, #+68]
// 1679       soft_endstop_max[axis] = axis == Z_AXIS ? delta_height : base_max_pos(axis);
        CMP      R7,#+2
        BNE.N    ??update_software_endstops_1
        LDR      R0,[R4, #+120]
        B.N      ??update_software_endstops_2
??update_software_endstops_1:
        MOV      R0,R6
          CFI FunCall _Z12base_max_pos8AxisEnum
        BL       _Z12base_max_pos8AxisEnum
??update_software_endstops_2:
        ADD      R1,R5,R7, LSL #+2
        STR      R0,[R1, #+36]
        B.N      ??update_software_endstops_3
// 1680     }
// 1681     else
// 1682     {
// 1683       soft_endstop_min[axis] = base_min_pos(axis);
??update_software_endstops_0:
          CFI FunCall _Z12base_min_pos8AxisEnum
        BL       _Z12base_min_pos8AxisEnum
        STR      R0,[R8, #+68]
// 1684       soft_endstop_max[axis] = base_max_pos(axis);
        MOV      R0,R6
          CFI FunCall _Z12base_max_pos8AxisEnum
        BL       _Z12base_max_pos8AxisEnum
        ADD      R1,R5,R7, LSL #+2
        STR      R0,[R1, #+36]
// 1685     }
// 1686     #endif
// 1687 
// 1688     #if ENABLED(DEBUG_LEVELING_FEATURE)
// 1689       if (DEBUGGING(LEVELING)) {
// 1690         SERIAL_ECHOPAIR("For ", axis_codes[axis]);
// 1691         #if HAS_HOME_OFFSET
// 1692           SERIAL_ECHOPAIR(" axis:\n home_offset = ", home_offset[axis]);
// 1693         #endif
// 1694         #if HAS_POSITION_SHIFT
// 1695           SERIAL_ECHOPAIR("\n position_shift = ", position_shift[axis]);
// 1696         #endif
// 1697         SERIAL_ECHOPAIR("\n soft_endstop_min = ", soft_endstop_min[axis]);
// 1698         SERIAL_ECHOLNPAIR("\n soft_endstop_max = ", soft_endstop_max[axis]);
// 1699       }
// 1700     #endif
// 1701 
// 1702     //#if ENABLED(DELTA)
// 1703     if(MACHINETPYE == DELTA)
??update_software_endstops_3:
        LDRSH    R0,[R9, #+88]
        CMP      R0,#+2
        BNE.N    ??update_software_endstops_4
// 1704     {
// 1705       switch(axis) {
        CMP      R6,#+0
        BEQ.N    ??update_software_endstops_5
        CMP      R6,#+2
        BEQ.N    ??update_software_endstops_6
        BCS.N    ??update_software_endstops_4
// 1706         case X_AXIS:
// 1707         case Y_AXIS:
// 1708           // Get a minimum radius for clamping
// 1709           soft_endstop_radius = MIN3(FABS(max(soft_endstop_min[X_AXIS], soft_endstop_min[Y_AXIS])), soft_endstop_max[X_AXIS], soft_endstop_max[Y_AXIS]);
??update_software_endstops_5:
        LDR      R1,[R4, #+68]
        LDR      R0,[R4, #+72]
          CFI FunCall __aeabi_cfcmple
        BL       __aeabi_cfcmple
        BCC.N    ??update_software_endstops_7
        MOV      R1,R0
??update_software_endstops_7:
        BIC      R0,R1,#0x80000000
        LDR      R2,[R5, #+36]
        MOV      R1,R2
          CFI FunCall __aeabi_cfcmple
        BL       __aeabi_cfcmple
        BCS.N    ??update_software_endstops_8
        LDR      R1,[R4, #+68]
        LDR      R0,[R4, #+72]
          CFI FunCall __aeabi_cfcmple
        BL       __aeabi_cfcmple
        BCC.N    ??update_software_endstops_9
        MOV      R1,R0
??update_software_endstops_9:
        BIC      R2,R1,#0x80000000
??update_software_endstops_8:
        LDR      R1,[R5, #+40]
        MOV      R0,R2
          CFI FunCall __aeabi_cfcmple
        BL       __aeabi_cfcmple
        BCS.N    ??update_software_endstops_10
        LDR      R1,[R4, #+68]
        LDR      R0,[R4, #+72]
          CFI FunCall __aeabi_cfcmple
        BL       __aeabi_cfcmple
        BCC.N    ??update_software_endstops_11
        MOV      R1,R0
??update_software_endstops_11:
        BIC      R0,R1,#0x80000000
        LDR      R1,[R5, #+36]
          CFI FunCall __aeabi_cfcmple
        BL       __aeabi_cfcmple
        BCS.N    ??update_software_endstops_12
        LDR      R1,[R4, #+68]
        LDR      R0,[R4, #+72]
          CFI FunCall __aeabi_cfcmple
        BL       __aeabi_cfcmple
        BCC.N    ??update_software_endstops_13
        MOV      R1,R0
??update_software_endstops_13:
        BIC      R0,R1,#0x80000000
        STR      R0,[R5, #+84]
        B.N      ??update_software_endstops_14
??update_software_endstops_12:
        STR      R1,[R5, #+84]
        B.N      ??update_software_endstops_14
??update_software_endstops_10:
        STR      R1,[R5, #+84]
// 1710           soft_endstop_radius_2 = sq(soft_endstop_radius);
??update_software_endstops_14:
        LDR      R4,[R5, #+84]
        MOVS     R6,#+2
        MOV      R7,#+1065353216
        B.N      ??update_software_endstops_15
??update_software_endstops_16:
        MOV      R0,R4
        MOV      R1,R4
          CFI FunCall __aeabi_fmul
        BL       __aeabi_fmul
        MOV      R4,R0
??update_software_endstops_15:
        LSLS     R0,R6,#+31
        BPL.N    ??update_software_endstops_17
        MOV      R0,R7
        MOV      R1,R4
          CFI FunCall __aeabi_fmul
        BL       __aeabi_fmul
        MOV      R7,R0
??update_software_endstops_17:
        LSRS     R6,R6,#+1
        BNE.N    ??update_software_endstops_16
        STR      R7,[R5, #+88]
// 1711           break;
        B.N      ??update_software_endstops_4
// 1712         case Z_AXIS:
// 1713           delta_clip_start_height = soft_endstop_max[axis] - delta_safe_distance_from_top();
??update_software_endstops_6:
          CFI FunCall _Z28delta_safe_distance_from_topv
        BL       _Z28delta_safe_distance_from_topv
        MOV      R1,R0
        LDR      R0,[R5, #+44]
          CFI FunCall __aeabi_fsub
        BL       __aeabi_fsub
        STR      R0,[R4, #+124]
// 1714         default: break;
// 1715       }
// 1716     }
// 1717     //#endif
// 1718   }
??update_software_endstops_4:
        POP      {R0,R4-R9,PC}    ;; return
          CFI EndBlock cfiBlock24
// 1719 
// 1720 #endif // HAS_WORKSPACE_OFFSET || DUAL_X_CARRIAGE
// 1721 
// 1722 #if 1//HAS_M206_COMMAND
// 1723   /**
// 1724    * Change the home offset for an axis, update the current
// 1725    * position and the software endstops to retain the same
// 1726    * relative distance to the new home.
// 1727    *
// 1728    * Since this changes the current_position, code should
// 1729    * call sync_plan_position soon after this.
// 1730    */

        SECTION `.text`:CODE:NOROOT(1)
          CFI Block cfiBlock25 Using cfiCommon0
          CFI Function _Z15set_home_offset8AxisEnumf
        THUMB
// 1731   static void set_home_offset(const AxisEnum axis, const float v) {
// 1732 
// 1733   	if(MACHINETPYE == DELTA)	return;
_Z15set_home_offset8AxisEnumf:
        LDR.W    R2,??DataTable134_5
        LDRSH    R2,[R2, #+88]
        CMP      R2,#+2
        BEQ.N    ??set_home_offset_0
// 1734 	
// 1735     home_offset[axis] = v;
        LDR.W    R2,??DataTable137_2
        ADD      R2,R2,R0, LSL #+2
        STR      R1,[R2, #+48]
// 1736     update_software_endstops(axis);
          CFI FunCall _Z24update_software_endstops8AxisEnum
        B.N      _Z24update_software_endstops8AxisEnum
??set_home_offset_0:
        BX       LR               ;; return
          CFI EndBlock cfiBlock25
// 1737   }
// 1738 #endif // HAS_M206_COMMAND
// 1739 
// 1740 /**
// 1741  * Set an axis' current position to its home position (after homing).
// 1742  *
// 1743  * For Core and Cartesian robots this applies one-to-one when an
// 1744  * individual axis has been homed.
// 1745  *
// 1746  * DELTA should wait until all homing is done before setting the XYZ
// 1747  * current_position to home, because homing is a single operation.
// 1748  * In the case where the axis positions are already known and previously
// 1749  * homed, DELTA could home to X or Y individually by moving either one
// 1750  * to the center. However, homing Z always homes XY and Z.
// 1751  *
// 1752  * SCARA should wait until all XY homing is done before setting the XY
// 1753  * current_position to home, because neither X nor Y is at home until
// 1754  * both are at home. Z can however be homed individually.
// 1755  *
// 1756  * Callers must sync the planner position after calling this!
// 1757  */

        SECTION `.text`:CODE:NOROOT(1)
          CFI Block cfiBlock26 Using cfiCommon0
          CFI Function _Z19set_axis_is_at_home8AxisEnum
        THUMB
// 1758 static void set_axis_is_at_home(const AxisEnum axis) {
_Z19set_axis_is_at_home8AxisEnum:
        PUSH     {R4-R10,LR}
          CFI R14 Frame(CFA, -4)
          CFI R10 Frame(CFA, -8)
          CFI R9 Frame(CFA, -12)
          CFI R8 Frame(CFA, -16)
          CFI R7 Frame(CFA, -20)
          CFI R6 Frame(CFA, -24)
          CFI R5 Frame(CFA, -28)
          CFI R4 Frame(CFA, -32)
          CFI CFA R13+32
        SUB      SP,SP,#+16
          CFI CFA R13+48
        MOV      R4,R0
// 1759   #if ENABLED(DEBUG_LEVELING_FEATURE)
// 1760     if (DEBUGGING(LEVELING)) {
// 1761       SERIAL_ECHOPAIR(">>> set_axis_is_at_home(", axis_codes[axis]);
// 1762       SERIAL_CHAR(')');
// 1763       SERIAL_EOL();
// 1764     }
// 1765   #endif
// 1766 
// 1767   axis_known_position[axis] = axis_homed[axis] = true;
        MOV      R5,R4
        LDR.W    R6,??DataTable134_9
        MOVS     R0,#+1
        STRB     R0,[R5, R6]
        ADDS     R1,R5,R6
        STRB     R0,[R1, #+4]
// 1768 
// 1769   #if HAS_POSITION_SHIFT
// 1770     position_shift[axis] = 0;
        LDR.W    R7,??DataTable134_4
        ADD      R8,R7,R5, LSL #+2
        MOVS     R0,#+0
        STR      R0,[R8, #+96]
// 1771     update_software_endstops(axis);
        MOV      R0,R4
          CFI FunCall _Z24update_software_endstops8AxisEnum
        BL       _Z24update_software_endstops8AxisEnum
// 1772   #endif
// 1773 
// 1774   #if ENABLED(DUAL_X_CARRIAGE)
// 1775     if (axis == X_AXIS && (active_extruder == 1 || dual_x_carriage_mode == DXC_DUPLICATION_MODE)) {
// 1776       current_position[X_AXIS] = x_home_pos(active_extruder);
// 1777       return;
// 1778     }
// 1779   #endif
// 1780 
// 1781   //#if ENABLED(MORGAN_SCARA)
// 1782   if(MACHINETPYE&MORGAN_SCARA)
        LDR.W    R9,??DataTable134_5
        LDRSH    R0,[R9, #+88]
        LSLS     R1,R0,#+23
        BPL.N    ??set_axis_is_at_home_0
// 1783   	{
// 1784     /**
// 1785      * Morgan SCARA homes XY at the same time
// 1786      */
// 1787     if (axis == X_AXIS || axis == Y_AXIS) {
        CMP      R4,#+0
        BEQ.N    ??set_axis_is_at_home_1
        CMP      R5,#+1
        BNE.N    ??set_axis_is_at_home_2
// 1788 
// 1789       float homeposition[XYZ] = {
??set_axis_is_at_home_1:
        MOVS     R0,#+0
          CFI FunCall _Z13base_home_pos8AxisEnum
        BL       _Z13base_home_pos8AxisEnum
        STR      R0,[SP, #+0]
        ADD      R10,SP,#+0
        MOVS     R0,#+1
          CFI FunCall _Z13base_home_pos8AxisEnum
        BL       _Z13base_home_pos8AxisEnum
        STR      R0,[R10, #+4]
        MOVS     R0,#+2
          CFI FunCall _Z13base_home_pos8AxisEnum
        BL       _Z13base_home_pos8AxisEnum
        STR      R0,[R10, #+8]
// 1790         base_home_pos(X_AXIS),
// 1791         base_home_pos(Y_AXIS),
// 1792         base_home_pos(Z_AXIS)
// 1793       };
// 1794 
// 1795       // SERIAL_ECHOPAIR("homeposition X:", homeposition[X_AXIS]);
// 1796       // SERIAL_ECHOLNPAIR(" Y:", homeposition[Y_AXIS]);
// 1797 
// 1798       /**
// 1799        * Get Home position SCARA arm angles using inverse kinematics,
// 1800        * and calculate homing offset using forward kinematics
// 1801        */
// 1802       inverse_kinematics_MORGAN_SCARA(homeposition);
        ADD      R0,SP,#+0
          CFI FunCall _Z31inverse_kinematics_MORGAN_SCARAPKf
        BL       _Z31inverse_kinematics_MORGAN_SCARAPKf
// 1803       forward_kinematics_SCARA(delta[A_AXIS], delta[B_AXIS]);
        ADD      R1,R7,#+84
        ADD      R0,R7,#+80
          CFI FunCall _Z24forward_kinematics_SCARARKfS0_
        BL       _Z24forward_kinematics_SCARARKfS0_
// 1804 
// 1805       // SERIAL_ECHOPAIR("Cartesian X:", cartes[X_AXIS]);
// 1806       // SERIAL_ECHOLNPAIR(" Y:", cartes[Y_AXIS]);
// 1807 
// 1808       current_position[axis] = cartes[axis];
        ADD      R6,R6,R5, LSL #+2
        LDR      R0,[R6, #+72]
        STR      R0,[R8, #+8]
// 1809 
// 1810       /**
// 1811        * SCARA home positions are based on configuration since the actual
// 1812        * limits are determined by the inverse kinematic transform.
// 1813        */
// 1814       soft_endstop_min[axis] = base_min_pos(axis); // + (cartes[axis] - base_home_pos(axis));
        MOV      R0,R4
          CFI FunCall _Z12base_min_pos8AxisEnum
        BL       _Z12base_min_pos8AxisEnum
        STR      R0,[R8, #+68]
// 1815       soft_endstop_max[axis] = base_max_pos(axis); // + (cartes[axis] - base_home_pos(axis));
        MOV      R0,R4
          CFI FunCall _Z12base_max_pos8AxisEnum
        BL       _Z12base_max_pos8AxisEnum
        STR      R0,[R6, #+36]
        B.N      ??set_axis_is_at_home_3
// 1816     }
// 1817     else
// 1818 	{
// 1819 	    current_position[axis] = base_home_pos(axis);
??set_axis_is_at_home_2:
        MOV      R0,R4
          CFI FunCall _Z13base_home_pos8AxisEnum
        BL       _Z13base_home_pos8AxisEnum
        STR      R0,[R8, #+8]
        B.N      ??set_axis_is_at_home_3
// 1820 	}		
// 1821   	}
// 1822   //#elif ENABLED(DELTA)
// 1823   else if(MACHINETPYE&DELTA)
??set_axis_is_at_home_0:
        LSLS     R0,R0,#+30
        BPL.N    ??set_axis_is_at_home_4
// 1824   {
// 1825     if (axis == Z_AXIS)
        CMP      R5,#+2
        BNE.N    ??set_axis_is_at_home_5
// 1826       current_position[axis] = delta_height;
        LDR      R0,[R7, #+120]
        STR      R0,[R8, #+8]
        B.N      ??set_axis_is_at_home_3
// 1827     else
// 1828   //#endif
// 1829   	{
// 1830     	current_position[axis] = base_home_pos(axis);
??set_axis_is_at_home_5:
        MOV      R0,R4
          CFI FunCall _Z13base_home_pos8AxisEnum
        BL       _Z13base_home_pos8AxisEnum
        STR      R0,[R8, #+8]
        B.N      ??set_axis_is_at_home_3
// 1831   	}
// 1832   }
// 1833   else
// 1834   {
// 1835     	current_position[axis] = base_home_pos(axis);
??set_axis_is_at_home_4:
        MOV      R0,R4
          CFI FunCall _Z13base_home_pos8AxisEnum
        BL       _Z13base_home_pos8AxisEnum
        STR      R0,[R8, #+8]
// 1836   }    
// 1837   /**
// 1838    * Z Probe Z Homing? Account for the probe's Z offset.
// 1839    */
// 1840   #if HAS_BED_PROBE //&& Z_HOME_DIR < 0
// 1841   if(Z_HOME_DIR < 0)
??set_axis_is_at_home_3:
        LDRSB    R0,[R9, #+7]
        CMP      R0,#+0
        BPL.N    ??set_axis_is_at_home_6
// 1842   {
// 1843     if (axis == Z_AXIS) {
        CMP      R5,#+2
        BNE.N    ??set_axis_is_at_home_6
// 1844       #if HOMING_Z_WITH_PROBE
// 1845 	  if(Z_MIN_PROBE_PIN_MODE == Z_MIN_PROBE_USES_Z_MIN_ENDSTOP_PIN)
        LDRB     R0,[R9, #+153]
        CMP      R0,#+1
        BNE.N    ??set_axis_is_at_home_7
// 1846 	  {
// 1847         current_position[Z_AXIS] -= zprobe_zoffset;
        LDR      R0,[R7, #+16]
        LDR      R1,[R7, #+112]
          CFI FunCall __aeabi_fsub
        BL       __aeabi_fsub
        STR      R0,[R7, #+16]
        B.N      ??set_axis_is_at_home_6
// 1848 
// 1849         #if ENABLED(DEBUG_LEVELING_FEATURE)
// 1850           if (DEBUGGING(LEVELING)) {
// 1851             SERIAL_ECHOLNPGM("*** Z HOMED WITH PROBE (Z_MIN_PROBE_USES_Z_MIN_ENDSTOP_PIN) ***");
// 1852             SERIAL_ECHOLNPAIR("> zprobe_zoffset = ", zprobe_zoffset);
// 1853           }
// 1854         #endif
// 1855 	  }
// 1856 	  else
// 1857 	  {
// 1858 		  if (DEBUGGING(LEVELING)) SERIAL_ECHOLNPGM("*** Z HOMED TO ENDSTOP (Z_MIN_PROBE_ENDSTOP) ***");	  
??set_axis_is_at_home_7:
        LDRB     R0,[R7, #+1]
        LSLS     R0,R0,#+26
        BPL.N    ??set_axis_is_at_home_6
        ADR.W    R0,`?<Constant "*** Z HOMED TO ENDSTO...">`
          CFI FunCall _Z14serialprintPGMPKc
        BL       _Z14serialprintPGMPKc
// 1859 	  }
// 1860       #elif ENABLED(DEBUG_LEVELING_FEATURE)
// 1861 
// 1862         if (DEBUGGING(LEVELING)) SERIAL_ECHOLNPGM("*** Z HOMED TO ENDSTOP (Z_MIN_PROBE_ENDSTOP) ***");
// 1863 
// 1864       #endif
// 1865     }
// 1866   }
// 1867   #endif
// 1868 
// 1869   #if ENABLED(DEBUG_LEVELING_FEATURE)
// 1870     if (DEBUGGING(LEVELING)) {
// 1871       #if HAS_HOME_OFFSET
// 1872         SERIAL_ECHOPAIR("> home_offset[", axis_codes[axis]);
// 1873         SERIAL_ECHOLNPAIR("] = ", home_offset[axis]);
// 1874       #endif
// 1875       DEBUG_POS("", current_position);
// 1876       SERIAL_ECHOPAIR("<<< set_axis_is_at_home(", axis_codes[axis]);
// 1877       SERIAL_CHAR(')');
// 1878       SERIAL_EOL();
// 1879     }
// 1880   #endif
// 1881 
// 1882   #if ENABLED(I2C_POSITION_ENCODERS)
// 1883     I2CPEM.homed(axis);
// 1884   #endif
// 1885 }
??set_axis_is_at_home_6:
        POP      {R0-R10,PC}      ;; return
          CFI EndBlock cfiBlock26

        SECTION `.text`:CODE:NOROOT(2)
        SECTION_TYPE SHT_PROGBITS, 0
        DATA
`?<Constant "*** Z HOMED TO ENDSTO...">`:
        DC8 "*** Z HOMED TO ENDSTOP (Z_MIN_PROBE_ENDSTOP) ***\012"
        DC8 0, 0
// 1886 
// 1887 /**
// 1888  * Some planner shorthand inline functions
// 1889  */
// 1890 inline float get_homing_bump_feedrate(const AxisEnum axis) {
// 1891   //static const uint8_t homing_bump_divisor[] PROGMEM = HOMING_BUMP_DIVISOR;
// 1892 	int  homing_bump_divisor[4];
// 1893 	if(MACHINETPYE == DELTA)
// 1894 	{
// 1895 		homing_bump_divisor[0] = 10;
// 1896 		homing_bump_divisor[1] = 10;
// 1897 		homing_bump_divisor[2] = 10;
// 1898 	}
// 1899 	else
// 1900 	{
// 1901 		homing_bump_divisor[0] = 2;
// 1902 		homing_bump_divisor[1] = 2;
// 1903 		homing_bump_divisor[2] = 4;
// 1904 	}  
// 1905   uint8_t hbd = pgm_read_byte(&homing_bump_divisor[axis]);
// 1906   if (hbd < 1) {
// 1907     hbd = 10;
// 1908     SERIAL_ECHO_START();
// 1909     SERIAL_ECHOLNPGM("Warning: Homing Bump Divisor < 1");
// 1910   }
// 1911   //return homing_feedrate(axis) / hbd;
// 1912   return homing_feedrate_mm_s[axis] / hbd;
// 1913 }
// 1914 
// 1915 /**
// 1916  * Move the planner to the current position from wherever it last moved
// 1917  * (or from wherever it has been told it is located).
// 1918  */
// 1919 inline void buffer_line_to_current_position() {
// 1920   planner.buffer_line(current_position[X_AXIS], current_position[Y_AXIS], current_position[Z_AXIS], current_position[E_AXIS], feedrate_mm_s, active_extruder);
// 1921 }
// 1922 
// 1923 /**
// 1924  * Move the planner to the position stored in the destination array, which is
// 1925  * used by G0/G1/G2/G3/G5 and many other functions to set a destination.
// 1926  */
// 1927 inline void buffer_line_to_destination(const float fr_mm_s) {
// 1928   planner.buffer_line(destination[X_AXIS], destination[Y_AXIS], destination[Z_AXIS], destination[E_AXIS], fr_mm_s, active_extruder);
// 1929 }
// 1930 
// 1931 #if 1//IS_KINEMATIC
// 1932   /**
// 1933    * Calculate delta, start a line, and set current_position to destination
// 1934    */

        SECTION `.text`:CODE:NOROOT(1)
          CFI Block cfiBlock27 Using cfiCommon0
          CFI Function _Z42prepare_uninterpolated_move_to_destinationf
        THUMB
// 1935   void prepare_uninterpolated_move_to_destination(const float fr_mm_s=0.0) {
_Z42prepare_uninterpolated_move_to_destinationf:
        PUSH     {R3-R5,LR}
          CFI R14 Frame(CFA, -4)
          CFI R5 Frame(CFA, -8)
          CFI R4 Frame(CFA, -12)
          CFI CFA R13+16
        MOV      R4,R0
// 1936     #if ENABLED(DEBUG_LEVELING_FEATURE)
// 1937       if (DEBUGGING(LEVELING)) DEBUG_POS("prepare_uninterpolated_move_to_destination", destination);
// 1938     #endif
// 1939 
// 1940     refresh_cmd_timeout();
          CFI FunCall _Z19refresh_cmd_timeoutv
        BL       _Z19refresh_cmd_timeoutv
// 1941 
// 1942     #if UBL_SEGMENTED
// 1943       // ubl segmented line will do z-only moves in single segment
// 1944       ubl.prepare_segmented_line_to(destination, MMS_SCALED(fr_mm_s ? fr_mm_s : feedrate_mm_s));
// 1945     #else
// 1946       if ( current_position[X_AXIS] == destination[X_AXIS]
// 1947         && current_position[Y_AXIS] == destination[Y_AXIS]
// 1948         && current_position[Z_AXIS] == destination[Z_AXIS]
// 1949         && current_position[E_AXIS] == destination[E_AXIS]
// 1950       ) return;
        LDR.W    R5,??DataTable134_4
        LDR      R0,[R5, #+8]
        LDR      R1,[R5, #+24]
          CFI FunCall __aeabi_cfcmpeq
        BL       __aeabi_cfcmpeq
        BNE.N    ??prepare_uninterpolated_move_to_destination_0
        LDR      R0,[R5, #+12]
        LDR      R1,[R5, #+28]
          CFI FunCall __aeabi_cfcmpeq
        BL       __aeabi_cfcmpeq
        BNE.N    ??prepare_uninterpolated_move_to_destination_0
        LDR      R0,[R5, #+16]
        LDR      R1,[R5, #+32]
          CFI FunCall __aeabi_cfcmpeq
        BL       __aeabi_cfcmpeq
        BNE.N    ??prepare_uninterpolated_move_to_destination_0
        LDR      R0,[R5, #+20]
        LDR      R1,[R5, #+36]
          CFI FunCall __aeabi_cfcmpeq
        BL       __aeabi_cfcmpeq
        BEQ.N    ??prepare_uninterpolated_move_to_destination_1
// 1951 
// 1952       planner.buffer_line_kinematic(destination, MMS_SCALED(fr_mm_s ? fr_mm_s : feedrate_mm_s), active_extruder);
??prepare_uninterpolated_move_to_destination_0:
        MOV      R0,R4
        MOVS     R1,#+0
          CFI FunCall __aeabi_cfcmpeq
        BL       __aeabi_cfcmpeq
        BNE.N    ??prepare_uninterpolated_move_to_destination_2
        LDR      R4,[R5, #+92]
??prepare_uninterpolated_move_to_destination_2:
        LDRSH    R0,[R5, #+6]
          CFI FunCall __aeabi_i2f
        BL       __aeabi_i2f
        MOV      R1,R4
          CFI FunCall __aeabi_fmul
        BL       __aeabi_fmul
          CFI FunCall __aeabi_f2d
        BL       __aeabi_f2d
        LDR.W    R2,??DataTable143  ;; 0x47ae147b
        LDR.W    R3,??DataTable144  ;; 0x3f847ae1
          CFI FunCall __aeabi_dmul
        BL       __aeabi_dmul
          CFI FunCall __aeabi_d2f
        BL       __aeabi_d2f
        STR      R0,[SP, #+0]
        LDRB     R2,[R5, #+3]
        ADD      R1,SP,#+0
        ADD      R0,R5,#+24
          CFI FunCall _ZN7Planner21buffer_line_kinematicERA4_KfRS0_h
        BL       _ZN7Planner21buffer_line_kinematicERA4_KfRS0_h
// 1953     #endif
// 1954 
// 1955     set_current_from_destination();
          CFI FunCall _Z28set_current_from_destinationv
        BL       _Z28set_current_from_destinationv
// 1956   }
??prepare_uninterpolated_move_to_destination_1:
        POP      {R0,R4,R5,PC}    ;; return
          CFI EndBlock cfiBlock27
// 1957 #endif // IS_KINEMATIC
// 1958 
// 1959 /**
// 1960  *  Plan a move to (X, Y, Z) and set the current_position
// 1961  *  The final current_position may not be the one that was requested
// 1962  */

        SECTION `.text`:CODE:NOROOT(1)
          CFI Block cfiBlock28 Using cfiCommon0
          CFI Function _Z19do_blocking_move_toRKfS0_S0_S0_
        THUMB
// 1963 void do_blocking_move_to(const float &rx, const float &ry, const float &rz, const float &fr_mm_s/*=0.0*/) {
_Z19do_blocking_move_toRKfS0_S0_S0_:
        PUSH     {R4-R10,LR}
          CFI R14 Frame(CFA, -4)
          CFI R10 Frame(CFA, -8)
          CFI R9 Frame(CFA, -12)
          CFI R8 Frame(CFA, -16)
          CFI R7 Frame(CFA, -20)
          CFI R6 Frame(CFA, -24)
          CFI R5 Frame(CFA, -28)
          CFI R4 Frame(CFA, -32)
          CFI CFA R13+32
        MOV      R7,R0
        MOV      R8,R1
        MOV      R4,R2
        MOV      R9,R3
// 1964   const float old_feedrate_mm_s = feedrate_mm_s;
        LDR.W    R5,??DataTable134_4
        LDR      R6,[R5, #+92]
// 1965 
// 1966   #if ENABLED(DEBUG_LEVELING_FEATURE)
// 1967     if (DEBUGGING(LEVELING)) print_xyz(PSTR(">>> do_blocking_move_to"), NULL, LOGICAL_X_POSITION(rx), LOGICAL_Y_POSITION(ry), LOGICAL_Z_POSITION(rz));
// 1968   #endif
// 1969 
// 1970   const float z_feedrate = fr_mm_s ? fr_mm_s : homing_feedrate_mm_s[Z_AXIS];
        LDR      R10,[R9, #+0]
        MOV      R0,R10
        MOVS     R1,#+0
          CFI FunCall __aeabi_cfcmpeq
        BL       __aeabi_cfcmpeq
        BNE.N    ??do_blocking_move_to_0
        LDR      R10,[R5, #+48]
??do_blocking_move_to_0:
        LDR.W    R0,??DataTable134_5
        LDRSH    R0,[R0, #+88]
        CMP      R0,#+2
        BNE.N    ??do_blocking_move_to_1
// 1971 
// 1972   //#if ENABLED(DELTA)
// 1973   if(MACHINETPYE == DELTA)
// 1974   {
// 1975     if (!position_is_reachable_IS_KINEMATIC(rx, ry)) return;
        MOV      R1,R8
        MOV      R0,R7
          CFI FunCall _Z34position_is_reachable_IS_KINEMATICRKfS0_
        BL       _Z34position_is_reachable_IS_KINEMATICRKfS0_
        CMP      R0,#+0
        BEQ.W    ??do_blocking_move_to_2
// 1976 
// 1977     feedrate_mm_s = fr_mm_s ? fr_mm_s : XY_PROBE_FEEDRATE_MM_S;
        LDR      R2,[R9, #+0]
        MOV      R0,R2
        MOVS     R1,#+0
          CFI FunCall __aeabi_cfcmpeq
        BL       __aeabi_cfcmpeq
        BEQ.N    ??do_blocking_move_to_3
        STR      R2,[R5, #+92]
        B.N      ??do_blocking_move_to_4
??do_blocking_move_to_3:
        LDR      R0,[R5, #+116]
        STR      R0,[R5, #+92]
// 1978 
// 1979     set_destination_from_current();          // sync destination at the start
??do_blocking_move_to_4:
          CFI FunCall _Z28set_destination_from_currentv
        BL       _Z28set_destination_from_currentv
// 1980 
// 1981     #if ENABLED(DEBUG_LEVELING_FEATURE)
// 1982       if (DEBUGGING(LEVELING)) DEBUG_POS("set_destination_from_current", destination);
// 1983     #endif
// 1984 
// 1985     // when in the danger zone
// 1986     if (current_position[Z_AXIS] > delta_clip_start_height) {
        LDR      R0,[R5, #+124]
        LDR      R1,[R5, #+16]
          CFI FunCall __aeabi_cfcmple
        BL       __aeabi_cfcmple
        BCS.N    ??do_blocking_move_to_5
// 1987       if (rz > delta_clip_start_height) {   // staying in the danger zone
        LDR      R1,[R4, #+0]
          CFI FunCall __aeabi_cfcmple
        BL       __aeabi_cfcmple
        BCS.N    ??do_blocking_move_to_6
// 1988         destination[X_AXIS] = rx;           // move directly (uninterpolated)
        LDR      R0,[R7, #+0]
        STR      R0,[R5, #+24]
// 1989         destination[Y_AXIS] = ry;
        LDR      R0,[R8, #+0]
        STR      R0,[R5, #+28]
// 1990         destination[Z_AXIS] = rz;
        LDR      R0,[R4, #+0]
        STR      R0,[R5, #+32]
// 1991         prepare_uninterpolated_move_to_destination(); // set_current_from_destination
        MOVS     R0,#+0
        POP      {R4-R10,LR}
          CFI R4 SameValue
          CFI R5 SameValue
          CFI R6 SameValue
          CFI R7 SameValue
          CFI R8 SameValue
          CFI R9 SameValue
          CFI R10 SameValue
          CFI R14 SameValue
          CFI CFA R13+0
          CFI FunCall _Z42prepare_uninterpolated_move_to_destinationf
        B.N      _Z42prepare_uninterpolated_move_to_destinationf
          CFI R4 Frame(CFA, -32)
          CFI R5 Frame(CFA, -28)
          CFI R6 Frame(CFA, -24)
          CFI R7 Frame(CFA, -20)
          CFI R8 Frame(CFA, -16)
          CFI R9 Frame(CFA, -12)
          CFI R10 Frame(CFA, -8)
          CFI R14 Frame(CFA, -4)
          CFI CFA R13+32
// 1992         #if ENABLED(DEBUG_LEVELING_FEATURE)
// 1993           if (DEBUGGING(LEVELING)) DEBUG_POS("danger zone move", current_position);
// 1994         #endif
// 1995         return;
// 1996       }
// 1997       destination[Z_AXIS] = delta_clip_start_height;
??do_blocking_move_to_6:
        STR      R0,[R5, #+32]
// 1998       prepare_uninterpolated_move_to_destination(); // set_current_from_destination
        MOVS     R0,#+0
          CFI FunCall _Z42prepare_uninterpolated_move_to_destinationf
        BL       _Z42prepare_uninterpolated_move_to_destinationf
// 1999       #if ENABLED(DEBUG_LEVELING_FEATURE)
// 2000         if (DEBUGGING(LEVELING)) DEBUG_POS("zone border move", current_position);
// 2001       #endif
// 2002     }
// 2003 
// 2004     if (rz > current_position[Z_AXIS]) {    // raising?
??do_blocking_move_to_5:
        LDR      R1,[R4, #+0]
        LDR      R0,[R5, #+16]
          CFI FunCall __aeabi_cfcmple
        BL       __aeabi_cfcmple
        BCS.N    ??do_blocking_move_to_7
// 2005       destination[Z_AXIS] = rz;
        STR      R1,[R5, #+32]
// 2006       prepare_uninterpolated_move_to_destination(z_feedrate);   // set_current_from_destination
        MOV      R0,R10
          CFI FunCall _Z42prepare_uninterpolated_move_to_destinationf
        BL       _Z42prepare_uninterpolated_move_to_destinationf
// 2007       #if ENABLED(DEBUG_LEVELING_FEATURE)
// 2008         if (DEBUGGING(LEVELING)) DEBUG_POS("z raise move", current_position);
// 2009       #endif
// 2010     }
// 2011 
// 2012     destination[X_AXIS] = rx;
??do_blocking_move_to_7:
        LDR      R0,[R7, #+0]
        STR      R0,[R5, #+24]
// 2013     destination[Y_AXIS] = ry;
        LDR      R0,[R8, #+0]
        STR      R0,[R5, #+28]
// 2014     prepare_move_to_destination();         // set_current_from_destination
          CFI FunCall _Z27prepare_move_to_destinationv
        BL       _Z27prepare_move_to_destinationv
// 2015     #if ENABLED(DEBUG_LEVELING_FEATURE)
// 2016       if (DEBUGGING(LEVELING)) DEBUG_POS("xy move", current_position);
// 2017     #endif
// 2018 
// 2019     if (rz < current_position[Z_AXIS]) {    // lowering?
        LDR      R0,[R4, #+0]
        LDR      R1,[R5, #+16]
          CFI FunCall __aeabi_cfcmple
        BL       __aeabi_cfcmple
        BCS.N    ??do_blocking_move_to_8
        B.N      ??do_blocking_move_to_9
// 2020       destination[Z_AXIS] = rz;
// 2021       prepare_uninterpolated_move_to_destination(z_feedrate);   // set_current_from_destination
// 2022       #if ENABLED(DEBUG_LEVELING_FEATURE)
// 2023         if (DEBUGGING(LEVELING)) DEBUG_POS("z lower move", current_position);
// 2024       #endif
// 2025     }
// 2026   }
// 2027   //#elif IS_SCARA
// 2028   else if(MACHINETPYE&IS_SCARA) {
??do_blocking_move_to_1:
        MOV      R1,#+768
        TST      R0,R1
        BEQ.N    ??do_blocking_move_to_10
// 2029 
// 2030     if (!position_is_reachable_IS_KINEMATIC(rx, ry)) return;
        MOV      R1,R8
        MOV      R0,R7
          CFI FunCall _Z34position_is_reachable_IS_KINEMATICRKfS0_
        BL       _Z34position_is_reachable_IS_KINEMATICRKfS0_
        CMP      R0,#+0
        BEQ.N    ??do_blocking_move_to_2
// 2031 
// 2032     set_destination_from_current();
          CFI FunCall _Z28set_destination_from_currentv
        BL       _Z28set_destination_from_currentv
// 2033 
// 2034     // If Z needs to raise, do it before moving XY
// 2035     if (destination[Z_AXIS] < rz) {
        LDR      R1,[R4, #+0]
        LDR      R0,[R5, #+32]
          CFI FunCall __aeabi_cfcmple
        BL       __aeabi_cfcmple
        BCS.N    ??do_blocking_move_to_11
// 2036       destination[Z_AXIS] = rz;
        STR      R1,[R5, #+32]
// 2037       prepare_uninterpolated_move_to_destination(z_feedrate);
        MOV      R0,R10
          CFI FunCall _Z42prepare_uninterpolated_move_to_destinationf
        BL       _Z42prepare_uninterpolated_move_to_destinationf
// 2038     }
// 2039 
// 2040     destination[X_AXIS] = rx;
??do_blocking_move_to_11:
        LDR      R0,[R7, #+0]
        STR      R0,[R5, #+24]
// 2041     destination[Y_AXIS] = ry;
        LDR      R0,[R8, #+0]
        STR      R0,[R5, #+28]
// 2042     prepare_uninterpolated_move_to_destination(fr_mm_s ? fr_mm_s : XY_PROBE_FEEDRATE_MM_S);
        LDR      R2,[R9, #+0]
        MOV      R0,R2
        MOVS     R1,#+0
          CFI FunCall __aeabi_cfcmpeq
        BL       __aeabi_cfcmpeq
        BNE.N    ??do_blocking_move_to_12
        LDR      R2,[R5, #+116]
??do_blocking_move_to_12:
        MOV      R0,R2
          CFI FunCall _Z42prepare_uninterpolated_move_to_destinationf
        BL       _Z42prepare_uninterpolated_move_to_destinationf
// 2043 
// 2044     // If Z needs to lower, do it after moving XY
// 2045     if (destination[Z_AXIS] > rz) {
        LDR      R0,[R4, #+0]
        LDR      R1,[R5, #+32]
          CFI FunCall __aeabi_cfcmple
        BL       __aeabi_cfcmple
        BCS.N    ??do_blocking_move_to_8
// 2046       destination[Z_AXIS] = rz;
??do_blocking_move_to_9:
        LDR      R0,[R4, #+0]
        STR      R0,[R5, #+32]
// 2047       prepare_uninterpolated_move_to_destination(z_feedrate);
        MOV      R0,R10
          CFI FunCall _Z42prepare_uninterpolated_move_to_destinationf
        BL       _Z42prepare_uninterpolated_move_to_destinationf
        B.N      ??do_blocking_move_to_8
// 2048     }
// 2049   }
// 2050   //#else
// 2051   else
// 2052   {
// 2053     // If Z needs to raise, do it before moving XY
// 2054     if (current_position[Z_AXIS] < rz) {
??do_blocking_move_to_10:
        LDR      R0,[R5, #+16]
        LDR      R1,[R4, #+0]
          CFI FunCall __aeabi_cfcmple
        BL       __aeabi_cfcmple
        BCS.N    ??do_blocking_move_to_13
// 2055       feedrate_mm_s = z_feedrate;
        STR      R10,[R5, #+92]
// 2056       current_position[Z_AXIS] = rz;
        LDR      R0,[R4, #+0]
        STR      R0,[R5, #+16]
// 2057       buffer_line_to_current_position();
          CFI FunCall _Z31buffer_line_to_current_positionv
        BL       _Z31buffer_line_to_current_positionv
// 2058     }
// 2059 
// 2060     feedrate_mm_s = fr_mm_s ? fr_mm_s : XY_PROBE_FEEDRATE_MM_S;
??do_blocking_move_to_13:
        LDR      R2,[R9, #+0]
        MOV      R0,R2
        MOVS     R1,#+0
          CFI FunCall __aeabi_cfcmpeq
        BL       __aeabi_cfcmpeq
        BEQ.N    ??do_blocking_move_to_14
        STR      R2,[R5, #+92]
        B.N      ??do_blocking_move_to_15
??do_blocking_move_to_14:
        LDR      R0,[R5, #+116]
        STR      R0,[R5, #+92]
// 2061     current_position[X_AXIS] = rx;
??do_blocking_move_to_15:
        LDR      R0,[R7, #+0]
        STR      R0,[R5, #+8]
// 2062     current_position[Y_AXIS] = ry;
        LDR      R0,[R8, #+0]
        STR      R0,[R5, #+12]
// 2063     buffer_line_to_current_position();
          CFI FunCall _Z31buffer_line_to_current_positionv
        BL       _Z31buffer_line_to_current_positionv
// 2064 
// 2065     // If Z needs to lower, do it after moving XY
// 2066     if (current_position[Z_AXIS] > rz) {
        LDR      R0,[R4, #+0]
        LDR      R1,[R5, #+16]
          CFI FunCall __aeabi_cfcmple
        BL       __aeabi_cfcmple
        BCS.N    ??do_blocking_move_to_8
// 2067       feedrate_mm_s = z_feedrate;
        STR      R10,[R5, #+92]
// 2068       current_position[Z_AXIS] = rz;
        LDR      R0,[R4, #+0]
        STR      R0,[R5, #+16]
// 2069       buffer_line_to_current_position();
          CFI FunCall _Z31buffer_line_to_current_positionv
        BL       _Z31buffer_line_to_current_positionv
// 2070     }
// 2071   }
// 2072   //#endif
// 2073 
// 2074   stepper.synchronize();
??do_blocking_move_to_8:
          CFI FunCall _ZN7Stepper11synchronizeEv
        BL       _ZN7Stepper11synchronizeEv
// 2075 
// 2076   feedrate_mm_s = old_feedrate_mm_s;
        STR      R6,[R5, #+92]
// 2077 
// 2078   #if ENABLED(DEBUG_LEVELING_FEATURE)
// 2079     if (DEBUGGING(LEVELING)) SERIAL_ECHOLNPGM("<<< do_blocking_move_to");
// 2080   #endif
// 2081 }
??do_blocking_move_to_2:
        POP      {R4-R10,PC}      ;; return
          CFI EndBlock cfiBlock28

        SECTION `.text`:CODE:NOROOT(1)
          CFI Block cfiBlock29 Using cfiCommon0
          CFI Function _Z21do_blocking_move_to_xRKfS0_
        THUMB
// 2082 void do_blocking_move_to_x(const float &rx, const float &fr_mm_s/*=0.0*/) {
_Z21do_blocking_move_to_xRKfS0_:
        PUSH     {R3,R4}
          CFI R4 Frame(CFA, -4)
          CFI CFA R13+8
// 2083   do_blocking_move_to(rx, current_position[Y_AXIS], current_position[Z_AXIS], fr_mm_s);
        LDR.N    R4,??DataTable134_4
        MOV      R3,R1
        ADD      R2,R4,#+16
        ADD      R1,R4,#+12
        ADD      SP,SP,#+4
          CFI CFA R13+4
        POP      {R4}
          CFI R4 SameValue
          CFI CFA R13+0
          CFI FunCall _Z19do_blocking_move_toRKfS0_S0_S0_
        B.N      _Z19do_blocking_move_toRKfS0_S0_S0_
          CFI EndBlock cfiBlock29
// 2084 }

        SECTION `.text`:CODE:NOROOT(1)
          CFI Block cfiBlock30 Using cfiCommon0
          CFI Function _Z21do_blocking_move_to_zRKfS0_
        THUMB
// 2085 void do_blocking_move_to_z(const float &rz, const float &fr_mm_s/*=0.0*/) {
_Z21do_blocking_move_to_zRKfS0_:
        PUSH     {R3,R4}
          CFI R4 Frame(CFA, -4)
          CFI CFA R13+8
// 2086   do_blocking_move_to(current_position[X_AXIS], current_position[Y_AXIS], rz, fr_mm_s);
        LDR.N    R4,??DataTable134_4
        MOV      R3,R1
        MOV      R2,R0
        ADD      R1,R4,#+12
        ADD      R0,R4,#+8
        ADD      SP,SP,#+4
          CFI CFA R13+4
        POP      {R4}
          CFI R4 SameValue
          CFI CFA R13+0
          CFI FunCall _Z19do_blocking_move_toRKfS0_S0_S0_
        B.N      _Z19do_blocking_move_toRKfS0_S0_S0_
          CFI EndBlock cfiBlock30
// 2087 }

        SECTION `.text`:CODE:NOROOT(1)
          CFI Block cfiBlock31 Using cfiCommon0
          CFI Function _Z22do_blocking_move_to_xyRKfS0_S0_
        THUMB
// 2088 void do_blocking_move_to_xy(const float &rx, const float &ry, const float &fr_mm_s/*=0.0*/) {
// 2089   do_blocking_move_to(rx, ry, current_position[Z_AXIS], fr_mm_s);
_Z22do_blocking_move_to_xyRKfS0_S0_:
        MOV      R3,R2
        LDR.W    R2,??DataTable145
          CFI FunCall _Z19do_blocking_move_toRKfS0_S0_S0_
        B.N      _Z19do_blocking_move_toRKfS0_S0_S0_
          CFI EndBlock cfiBlock31
// 2090 }
// 2091 
// 2092 //
// 2093 // Prepare to do endstop or probe moves
// 2094 // with custom feedrates.
// 2095 //
// 2096 //  - Save current feedrates
// 2097 //  - Reset the rate multiplier
// 2098 //  - Reset the command timeout
// 2099 //  - Enable the endstops (for endstop moves)
// 2100 //

        SECTION `.text`:CODE:NOROOT(1)
          CFI Block cfiBlock32 Using cfiCommon0
          CFI Function _Z31setup_for_endstop_or_probe_movev
        THUMB
// 2101 static void setup_for_endstop_or_probe_move() {
// 2102   #if ENABLED(DEBUG_LEVELING_FEATURE)
// 2103     if (DEBUGGING(LEVELING)) DEBUG_POS("setup_for_endstop_or_probe_move", current_position);
// 2104   #endif
// 2105   saved_feedrate_mm_s = feedrate_mm_s;
_Z31setup_for_endstop_or_probe_movev:
        LDR.W    R0,??DataTable145_1
        LDR.N    R1,??DataTable134_4
        LDR      R2,[R1, #+92]
        STR      R2,[R0, #+4]
// 2106   saved_feedrate_percentage = feedrate_percentage;
        LDRH     R2,[R1, #+6]
        STRH     R2,[R0, #+0]
// 2107   feedrate_percentage = 100;
        MOVS     R0,#+100
        STRH     R0,[R1, #+6]
// 2108   refresh_cmd_timeout();
          CFI FunCall _Z19refresh_cmd_timeoutv
        B.W      _Z19refresh_cmd_timeoutv
          CFI EndBlock cfiBlock32
// 2109 }
// 2110 

        SECTION `.text`:CODE:NOROOT(1)
          CFI Block cfiBlock33 Using cfiCommon0
          CFI Function _Z36clean_up_after_endstop_or_probe_movev
        THUMB
// 2111 static void clean_up_after_endstop_or_probe_move() {
// 2112   #if ENABLED(DEBUG_LEVELING_FEATURE)
// 2113     if (DEBUGGING(LEVELING)) DEBUG_POS("clean_up_after_endstop_or_probe_move", current_position);
// 2114   #endif
// 2115   feedrate_mm_s = saved_feedrate_mm_s;
_Z36clean_up_after_endstop_or_probe_movev:
        LDR.N    R0,??DataTable134_4
        LDR.W    R1,??DataTable145_1
        LDR      R2,[R1, #+4]
        STR      R2,[R0, #+92]
// 2116   feedrate_percentage = saved_feedrate_percentage;
        LDRH     R1,[R1, #+0]
        STRH     R1,[R0, #+6]
// 2117   refresh_cmd_timeout();
          CFI FunCall _Z19refresh_cmd_timeoutv
        B.W      _Z19refresh_cmd_timeoutv
          CFI EndBlock cfiBlock33
// 2118 }
// 2119 
// 2120 #if HAS_BED_PROBE
// 2121   /**
// 2122    * Raise Z to a minimum height to make room for a probe to move
// 2123    */
// 2124   inline void do_probe_raise(const float z_raise) {
// 2125     #if ENABLED(DEBUG_LEVELING_FEATURE)
// 2126       if (DEBUGGING(LEVELING)) {
// 2127         SERIAL_ECHOPAIR("do_probe_raise(", z_raise);
// 2128         SERIAL_CHAR(')');
// 2129         SERIAL_EOL();
// 2130       }
// 2131     #endif
// 2132 
// 2133     float z_dest = z_raise;
// 2134     if (zprobe_zoffset < 0) z_dest -= zprobe_zoffset;
// 2135 
// 2136     if (z_dest > current_position[Z_AXIS])
// 2137       do_blocking_move_to_z(z_dest);
// 2138   }
// 2139 
// 2140 #endif // HAS_BED_PROBE
// 2141 
// 2142 #if HAS_AXIS_UNHOMED_ERR
// 2143 

        SECTION `.text`:CODE:NOROOT(1)
          CFI Block cfiBlock34 Using cfiCommon0
          CFI Function _Z18axis_unhomed_errorbbb
        THUMB
// 2144   bool axis_unhomed_error(const bool x/*=true*/, const bool y/*=true*/, const bool z/*=true*/) {
_Z18axis_unhomed_errorbbb:
        PUSH     {R4-R6,LR}
          CFI R14 Frame(CFA, -4)
          CFI R6 Frame(CFA, -8)
          CFI R5 Frame(CFA, -12)
          CFI R4 Frame(CFA, -16)
          CFI CFA R13+16
// 2145     #if ENABLED(HOME_AFTER_DEACTIVATE)
// 2146       const bool xx = x && !axis_known_position[X_AXIS],
// 2147                  yy = y && !axis_known_position[Y_AXIS],
// 2148                  zz = z && !axis_known_position[Z_AXIS];
// 2149     #else
// 2150       const bool xx = x && !axis_homed[X_AXIS],
        CMP      R0,#+0
        BEQ.N    ??axis_unhomed_error_0
        LDR.N    R0,??DataTable134_9
        LDRB     R0,[R0, #+0]
        EOR      R4,R0,#0x1
        B.N      ??axis_unhomed_error_1
??axis_unhomed_error_0:
        MOVS     R4,#+0
// 2151                  yy = y && !axis_homed[Y_AXIS],
??axis_unhomed_error_1:
        CMP      R1,#+0
        BEQ.N    ??axis_unhomed_error_2
        LDR.N    R0,??DataTable134_9
        LDRB     R0,[R0, #+1]
        EOR      R5,R0,#0x1
        B.N      ??axis_unhomed_error_3
??axis_unhomed_error_2:
        MOVS     R5,#+0
// 2152                  zz = z && !axis_homed[Z_AXIS];
??axis_unhomed_error_3:
        CMP      R2,#+0
        BEQ.N    ??axis_unhomed_error_4
        LDR.N    R0,??DataTable134_9
        LDRB     R0,[R0, #+2]
        EOR      R6,R0,#0x1
        B.N      ??axis_unhomed_error_5
??axis_unhomed_error_4:
        MOVS     R6,#+0
// 2153     #endif
// 2154     if (xx || yy || zz) {
??axis_unhomed_error_5:
        ORR      R0,R5,R4
        ORRS     R0,R6,R0
        BEQ.N    ??axis_unhomed_error_6
// 2155       SERIAL_ECHO_START();
        LDR.W    R0,??DataTable137_3
          CFI FunCall _Z14serialprintPGMPKc
        BL       _Z14serialprintPGMPKc
// 2156       SERIAL_ECHOPGM(MSG_HOME " ");
        ADR.W    R0,`?<Constant "Home ">`
          CFI FunCall _Z14serialprintPGMPKc
        BL       _Z14serialprintPGMPKc
// 2157       if (xx) SERIAL_ECHOPGM(MSG_X);
        CMP      R4,#+0
        BEQ.N    ??axis_unhomed_error_7
        ADR.N    R0,??DataTable134  ;; "X"
          CFI FunCall _Z14serialprintPGMPKc
        BL       _Z14serialprintPGMPKc
// 2158       if (yy) SERIAL_ECHOPGM(MSG_Y);
??axis_unhomed_error_7:
        CMP      R5,#+0
        BEQ.N    ??axis_unhomed_error_8
        ADR.N    R0,??DataTable134_1  ;; "Y"
          CFI FunCall _Z14serialprintPGMPKc
        BL       _Z14serialprintPGMPKc
// 2159       if (zz) SERIAL_ECHOPGM(MSG_Z);
??axis_unhomed_error_8:
        CMP      R6,#+0
        BEQ.N    ??axis_unhomed_error_9
        ADR.N    R0,??DataTable134_2  ;; "Z"
          CFI FunCall _Z14serialprintPGMPKc
        BL       _Z14serialprintPGMPKc
// 2160       SERIAL_ECHOLNPGM(" " MSG_FIRST);
??axis_unhomed_error_9:
        ADR.W    R0,`?<Constant " first\\n">`
          CFI FunCall _Z14serialprintPGMPKc
        BL       _Z14serialprintPGMPKc
// 2161 
// 2162       #if ENABLED(ULTRA_LCD)
// 2163         lcd_status_printf_P(0, PSTR(MSG_HOME " %s%s%s " MSG_FIRST), xx ? MSG_X : "", yy ? MSG_Y : "", zz ? MSG_Z : "");
// 2164       #endif
// 2165       return true;
        MOVS     R0,#+1
        POP      {R4-R6,PC}
// 2166     }
// 2167     return false;
??axis_unhomed_error_6:
        MOVS     R0,#+0
        POP      {R4-R6,PC}       ;; return
          CFI EndBlock cfiBlock34
// 2168   }

        SECTION `.text`:CODE:NOROOT(2)
        SECTION_TYPE SHT_PROGBITS, 0
        DATA
`?<Constant "Home ">`:
        DC8 "Home "
        DC8 0, 0

        SECTION `.text`:CODE:NOROOT(2)
        SECTION_TYPE SHT_PROGBITS, 0
        DATA
`?<Constant " first\\n">`:
        DC8 " first\012"
// 2169 
// 2170 #endif // HAS_AXIS_UNHOMED_ERR
// 2171 
// 2172 #if ENABLED(Z_PROBE_SLED)
// 2173 
// 2174   #ifndef SLED_DOCKING_OFFSET
// 2175     #define SLED_DOCKING_OFFSET 0
// 2176   #endif
// 2177 
// 2178   /**
// 2179    * Method to dock/undock a sled designed by Charles Bell.
// 2180    *
// 2181    * stow[in]     If false, move to MAX_X and engage the solenoid
// 2182    *              If true, move to MAX_X and release the solenoid
// 2183    */
// 2184   static void dock_sled(bool stow) {
// 2185     #if ENABLED(DEBUG_LEVELING_FEATURE)
// 2186       if (DEBUGGING(LEVELING)) {
// 2187         SERIAL_ECHOPAIR("dock_sled(", stow);
// 2188         SERIAL_CHAR(')');
// 2189         SERIAL_EOL();
// 2190       }
// 2191     #endif
// 2192 
// 2193     // Dock sled a bit closer to ensure proper capturing
// 2194     do_blocking_move_to_x(X_MAX_POS + SLED_DOCKING_OFFSET - ((stow) ? 1 : 0));
// 2195 
// 2196     #if HAS_SOLENOID_1 && DISABLED(EXT_SOLENOID)
// 2197       WRITE(SOL1_PIN, !stow); // switch solenoid
// 2198     #endif
// 2199   }
// 2200 
// 2201 #elif ENABLED(Z_PROBE_ALLEN_KEY)
// 2202 
// 2203   FORCE_INLINE void do_blocking_move_to(const float (&raw)[XYZ], const float &fr_mm_s) {
// 2204     do_blocking_move_to(raw[X_AXIS], raw[Y_AXIS], raw[Z_AXIS], fr_mm_s);
// 2205   }
// 2206 
// 2207   void run_deploy_moves_script() {
// 2208     #if defined(Z_PROBE_ALLEN_KEY_DEPLOY_1_X) || defined(Z_PROBE_ALLEN_KEY_DEPLOY_1_Y) || defined(Z_PROBE_ALLEN_KEY_DEPLOY_1_Z)
// 2209       #ifndef Z_PROBE_ALLEN_KEY_DEPLOY_1_X
// 2210         #define Z_PROBE_ALLEN_KEY_DEPLOY_1_X current_position[X_AXIS]
// 2211       #endif
// 2212       #ifndef Z_PROBE_ALLEN_KEY_DEPLOY_1_Y
// 2213         #define Z_PROBE_ALLEN_KEY_DEPLOY_1_Y current_position[Y_AXIS]
// 2214       #endif
// 2215       #ifndef Z_PROBE_ALLEN_KEY_DEPLOY_1_Z
// 2216         #define Z_PROBE_ALLEN_KEY_DEPLOY_1_Z current_position[Z_AXIS]
// 2217       #endif
// 2218       #ifndef Z_PROBE_ALLEN_KEY_DEPLOY_1_FEEDRATE
// 2219         #define Z_PROBE_ALLEN_KEY_DEPLOY_1_FEEDRATE 0.0
// 2220       #endif
// 2221       const float deploy_1[] = { Z_PROBE_ALLEN_KEY_DEPLOY_1_X, Z_PROBE_ALLEN_KEY_DEPLOY_1_Y, Z_PROBE_ALLEN_KEY_DEPLOY_1_Z };
// 2222       do_blocking_move_to(deploy_1, MMM_TO_MMS(Z_PROBE_ALLEN_KEY_DEPLOY_1_FEEDRATE));
// 2223     #endif
// 2224     #if defined(Z_PROBE_ALLEN_KEY_DEPLOY_2_X) || defined(Z_PROBE_ALLEN_KEY_DEPLOY_2_Y) || defined(Z_PROBE_ALLEN_KEY_DEPLOY_2_Z)
// 2225       #ifndef Z_PROBE_ALLEN_KEY_DEPLOY_2_X
// 2226         #define Z_PROBE_ALLEN_KEY_DEPLOY_2_X current_position[X_AXIS]
// 2227       #endif
// 2228       #ifndef Z_PROBE_ALLEN_KEY_DEPLOY_2_Y
// 2229         #define Z_PROBE_ALLEN_KEY_DEPLOY_2_Y current_position[Y_AXIS]
// 2230       #endif
// 2231       #ifndef Z_PROBE_ALLEN_KEY_DEPLOY_2_Z
// 2232         #define Z_PROBE_ALLEN_KEY_DEPLOY_2_Z current_position[Z_AXIS]
// 2233       #endif
// 2234       #ifndef Z_PROBE_ALLEN_KEY_DEPLOY_2_FEEDRATE
// 2235         #define Z_PROBE_ALLEN_KEY_DEPLOY_2_FEEDRATE 0.0
// 2236       #endif
// 2237       const float deploy_2[] = { Z_PROBE_ALLEN_KEY_DEPLOY_2_X, Z_PROBE_ALLEN_KEY_DEPLOY_2_Y, Z_PROBE_ALLEN_KEY_DEPLOY_2_Z };
// 2238       do_blocking_move_to(deploy_2, MMM_TO_MMS(Z_PROBE_ALLEN_KEY_DEPLOY_2_FEEDRATE));
// 2239     #endif
// 2240     #if defined(Z_PROBE_ALLEN_KEY_DEPLOY_3_X) || defined(Z_PROBE_ALLEN_KEY_DEPLOY_3_Y) || defined(Z_PROBE_ALLEN_KEY_DEPLOY_3_Z)
// 2241       #ifndef Z_PROBE_ALLEN_KEY_DEPLOY_3_X
// 2242         #define Z_PROBE_ALLEN_KEY_DEPLOY_3_X current_position[X_AXIS]
// 2243       #endif
// 2244       #ifndef Z_PROBE_ALLEN_KEY_DEPLOY_3_Y
// 2245         #define Z_PROBE_ALLEN_KEY_DEPLOY_3_Y current_position[Y_AXIS]
// 2246       #endif
// 2247       #ifndef Z_PROBE_ALLEN_KEY_DEPLOY_3_Z
// 2248         #define Z_PROBE_ALLEN_KEY_DEPLOY_3_Z current_position[Z_AXIS]
// 2249       #endif
// 2250       #ifndef Z_PROBE_ALLEN_KEY_DEPLOY_3_FEEDRATE
// 2251         #define Z_PROBE_ALLEN_KEY_DEPLOY_3_FEEDRATE 0.0
// 2252       #endif
// 2253       const float deploy_3[] = { Z_PROBE_ALLEN_KEY_DEPLOY_3_X, Z_PROBE_ALLEN_KEY_DEPLOY_3_Y, Z_PROBE_ALLEN_KEY_DEPLOY_3_Z };
// 2254       do_blocking_move_to(deploy_3, MMM_TO_MMS(Z_PROBE_ALLEN_KEY_DEPLOY_3_FEEDRATE));
// 2255     #endif
// 2256     #if defined(Z_PROBE_ALLEN_KEY_DEPLOY_4_X) || defined(Z_PROBE_ALLEN_KEY_DEPLOY_4_Y) || defined(Z_PROBE_ALLEN_KEY_DEPLOY_4_Z)
// 2257       #ifndef Z_PROBE_ALLEN_KEY_DEPLOY_4_X
// 2258         #define Z_PROBE_ALLEN_KEY_DEPLOY_4_X current_position[X_AXIS]
// 2259       #endif
// 2260       #ifndef Z_PROBE_ALLEN_KEY_DEPLOY_4_Y
// 2261         #define Z_PROBE_ALLEN_KEY_DEPLOY_4_Y current_position[Y_AXIS]
// 2262       #endif
// 2263       #ifndef Z_PROBE_ALLEN_KEY_DEPLOY_4_Z
// 2264         #define Z_PROBE_ALLEN_KEY_DEPLOY_4_Z current_position[Z_AXIS]
// 2265       #endif
// 2266       #ifndef Z_PROBE_ALLEN_KEY_DEPLOY_4_FEEDRATE
// 2267         #define Z_PROBE_ALLEN_KEY_DEPLOY_4_FEEDRATE 0.0
// 2268       #endif
// 2269       const float deploy_4[] = { Z_PROBE_ALLEN_KEY_DEPLOY_4_X, Z_PROBE_ALLEN_KEY_DEPLOY_4_Y, Z_PROBE_ALLEN_KEY_DEPLOY_4_Z };
// 2270       do_blocking_move_to(deploy_4, MMM_TO_MMS(Z_PROBE_ALLEN_KEY_DEPLOY_4_FEEDRATE));
// 2271     #endif
// 2272     #if defined(Z_PROBE_ALLEN_KEY_DEPLOY_5_X) || defined(Z_PROBE_ALLEN_KEY_DEPLOY_5_Y) || defined(Z_PROBE_ALLEN_KEY_DEPLOY_5_Z)
// 2273       #ifndef Z_PROBE_ALLEN_KEY_DEPLOY_5_X
// 2274         #define Z_PROBE_ALLEN_KEY_DEPLOY_5_X current_position[X_AXIS]
// 2275       #endif
// 2276       #ifndef Z_PROBE_ALLEN_KEY_DEPLOY_5_Y
// 2277         #define Z_PROBE_ALLEN_KEY_DEPLOY_5_Y current_position[Y_AXIS]
// 2278       #endif
// 2279       #ifndef Z_PROBE_ALLEN_KEY_DEPLOY_5_Z
// 2280         #define Z_PROBE_ALLEN_KEY_DEPLOY_5_Z current_position[Z_AXIS]
// 2281       #endif
// 2282       #ifndef Z_PROBE_ALLEN_KEY_DEPLOY_5_FEEDRATE
// 2283         #define Z_PROBE_ALLEN_KEY_DEPLOY_5_FEEDRATE 0.0
// 2284       #endif
// 2285       const float deploy_5[] = { Z_PROBE_ALLEN_KEY_DEPLOY_5_X, Z_PROBE_ALLEN_KEY_DEPLOY_5_Y, Z_PROBE_ALLEN_KEY_DEPLOY_5_Z };
// 2286       do_blocking_move_to(deploy_5, MMM_TO_MMS(Z_PROBE_ALLEN_KEY_DEPLOY_5_FEEDRATE));
// 2287     #endif
// 2288   }
// 2289 
// 2290   void run_stow_moves_script() {
// 2291     #if defined(Z_PROBE_ALLEN_KEY_STOW_1_X) || defined(Z_PROBE_ALLEN_KEY_STOW_1_Y) || defined(Z_PROBE_ALLEN_KEY_STOW_1_Z)
// 2292       #ifndef Z_PROBE_ALLEN_KEY_STOW_1_X
// 2293         #define Z_PROBE_ALLEN_KEY_STOW_1_X current_position[X_AXIS]
// 2294       #endif
// 2295       #ifndef Z_PROBE_ALLEN_KEY_STOW_1_Y
// 2296         #define Z_PROBE_ALLEN_KEY_STOW_1_Y current_position[Y_AXIS]
// 2297       #endif
// 2298       #ifndef Z_PROBE_ALLEN_KEY_STOW_1_Z
// 2299         #define Z_PROBE_ALLEN_KEY_STOW_1_Z current_position[Z_AXIS]
// 2300       #endif
// 2301       #ifndef Z_PROBE_ALLEN_KEY_STOW_1_FEEDRATE
// 2302         #define Z_PROBE_ALLEN_KEY_STOW_1_FEEDRATE 0.0
// 2303       #endif
// 2304       const float stow_1[] = { Z_PROBE_ALLEN_KEY_STOW_1_X, Z_PROBE_ALLEN_KEY_STOW_1_Y, Z_PROBE_ALLEN_KEY_STOW_1_Z };
// 2305       do_blocking_move_to(stow_1, MMM_TO_MMS(Z_PROBE_ALLEN_KEY_STOW_1_FEEDRATE));
// 2306     #endif
// 2307     #if defined(Z_PROBE_ALLEN_KEY_STOW_2_X) || defined(Z_PROBE_ALLEN_KEY_STOW_2_Y) || defined(Z_PROBE_ALLEN_KEY_STOW_2_Z)
// 2308       #ifndef Z_PROBE_ALLEN_KEY_STOW_2_X
// 2309         #define Z_PROBE_ALLEN_KEY_STOW_2_X current_position[X_AXIS]
// 2310       #endif
// 2311       #ifndef Z_PROBE_ALLEN_KEY_STOW_2_Y
// 2312         #define Z_PROBE_ALLEN_KEY_STOW_2_Y current_position[Y_AXIS]
// 2313       #endif
// 2314       #ifndef Z_PROBE_ALLEN_KEY_STOW_2_Z
// 2315         #define Z_PROBE_ALLEN_KEY_STOW_2_Z current_position[Z_AXIS]
// 2316       #endif
// 2317       #ifndef Z_PROBE_ALLEN_KEY_STOW_2_FEEDRATE
// 2318         #define Z_PROBE_ALLEN_KEY_STOW_2_FEEDRATE 0.0
// 2319       #endif
// 2320       const float stow_2[] = { Z_PROBE_ALLEN_KEY_STOW_2_X, Z_PROBE_ALLEN_KEY_STOW_2_Y, Z_PROBE_ALLEN_KEY_STOW_2_Z };
// 2321       do_blocking_move_to(stow_2, MMM_TO_MMS(Z_PROBE_ALLEN_KEY_STOW_2_FEEDRATE));
// 2322     #endif
// 2323     #if defined(Z_PROBE_ALLEN_KEY_STOW_3_X) || defined(Z_PROBE_ALLEN_KEY_STOW_3_Y) || defined(Z_PROBE_ALLEN_KEY_STOW_3_Z)
// 2324       #ifndef Z_PROBE_ALLEN_KEY_STOW_3_X
// 2325         #define Z_PROBE_ALLEN_KEY_STOW_3_X current_position[X_AXIS]
// 2326       #endif
// 2327       #ifndef Z_PROBE_ALLEN_KEY_STOW_3_Y
// 2328         #define Z_PROBE_ALLEN_KEY_STOW_3_Y current_position[Y_AXIS]
// 2329       #endif
// 2330       #ifndef Z_PROBE_ALLEN_KEY_STOW_3_Z
// 2331         #define Z_PROBE_ALLEN_KEY_STOW_3_Z current_position[Z_AXIS]
// 2332       #endif
// 2333       #ifndef Z_PROBE_ALLEN_KEY_STOW_3_FEEDRATE
// 2334         #define Z_PROBE_ALLEN_KEY_STOW_3_FEEDRATE 0.0
// 2335       #endif
// 2336       const float stow_3[] = { Z_PROBE_ALLEN_KEY_STOW_3_X, Z_PROBE_ALLEN_KEY_STOW_3_Y, Z_PROBE_ALLEN_KEY_STOW_3_Z };
// 2337       do_blocking_move_to(stow_3, MMM_TO_MMS(Z_PROBE_ALLEN_KEY_STOW_3_FEEDRATE));
// 2338     #endif
// 2339     #if defined(Z_PROBE_ALLEN_KEY_STOW_4_X) || defined(Z_PROBE_ALLEN_KEY_STOW_4_Y) || defined(Z_PROBE_ALLEN_KEY_STOW_4_Z)
// 2340       #ifndef Z_PROBE_ALLEN_KEY_STOW_4_X
// 2341         #define Z_PROBE_ALLEN_KEY_STOW_4_X current_position[X_AXIS]
// 2342       #endif
// 2343       #ifndef Z_PROBE_ALLEN_KEY_STOW_4_Y
// 2344         #define Z_PROBE_ALLEN_KEY_STOW_4_Y current_position[Y_AXIS]
// 2345       #endif
// 2346       #ifndef Z_PROBE_ALLEN_KEY_STOW_4_Z
// 2347         #define Z_PROBE_ALLEN_KEY_STOW_4_Z current_position[Z_AXIS]
// 2348       #endif
// 2349       #ifndef Z_PROBE_ALLEN_KEY_STOW_4_FEEDRATE
// 2350         #define Z_PROBE_ALLEN_KEY_STOW_4_FEEDRATE 0.0
// 2351       #endif
// 2352       const float stow_4[] = { Z_PROBE_ALLEN_KEY_STOW_4_X, Z_PROBE_ALLEN_KEY_STOW_4_Y, Z_PROBE_ALLEN_KEY_STOW_4_Z };
// 2353       do_blocking_move_to(stow_4, MMM_TO_MMS(Z_PROBE_ALLEN_KEY_STOW_4_FEEDRATE));
// 2354     #endif
// 2355     #if defined(Z_PROBE_ALLEN_KEY_STOW_5_X) || defined(Z_PROBE_ALLEN_KEY_STOW_5_Y) || defined(Z_PROBE_ALLEN_KEY_STOW_5_Z)
// 2356       #ifndef Z_PROBE_ALLEN_KEY_STOW_5_X
// 2357         #define Z_PROBE_ALLEN_KEY_STOW_5_X current_position[X_AXIS]
// 2358       #endif
// 2359       #ifndef Z_PROBE_ALLEN_KEY_STOW_5_Y
// 2360         #define Z_PROBE_ALLEN_KEY_STOW_5_Y current_position[Y_AXIS]
// 2361       #endif
// 2362       #ifndef Z_PROBE_ALLEN_KEY_STOW_5_Z
// 2363         #define Z_PROBE_ALLEN_KEY_STOW_5_Z current_position[Z_AXIS]
// 2364       #endif
// 2365       #ifndef Z_PROBE_ALLEN_KEY_STOW_5_FEEDRATE
// 2366         #define Z_PROBE_ALLEN_KEY_STOW_5_FEEDRATE 0.0
// 2367       #endif
// 2368       const float stow_5[] = { Z_PROBE_ALLEN_KEY_STOW_5_X, Z_PROBE_ALLEN_KEY_STOW_5_Y, Z_PROBE_ALLEN_KEY_STOW_5_Z };
// 2369       do_blocking_move_to(stow_5, MMM_TO_MMS(Z_PROBE_ALLEN_KEY_STOW_5_FEEDRATE));
// 2370     #endif
// 2371   }
// 2372 
// 2373 #endif // Z_PROBE_ALLEN_KEY
// 2374 
// 2375 #if ENABLED(PROBING_FANS_OFF)
// 2376 
// 2377   void fans_pause(const bool p) {
// 2378     if (p != fans_paused) {
// 2379       fans_paused = p;
// 2380       if (p)
// 2381         for (uint8_t x = 0; x < FAN_COUNT; x++) {
// 2382           paused_fanSpeeds[x] = fanSpeeds[x];
// 2383           fanSpeeds[x] = 0;
// 2384         }
// 2385       else
// 2386         for (uint8_t x = 0; x < FAN_COUNT; x++)
// 2387           fanSpeeds[x] = paused_fanSpeeds[x];
// 2388     }
// 2389   }
// 2390 
// 2391 #endif // PROBING_FANS_OFF
// 2392 
// 2393 #if HAS_BED_PROBE
// 2394 
// 2395   // TRIGGERED_WHEN_STOWED_TEST can easily be extended to servo probes, ... if needed.
// 2396   #if ENABLED(PROBE_IS_TRIGGERED_WHEN_STOWED_TEST)
// 2397     #if 1 //ENABLED(Z_MIN_PROBE_ENDSTOP)
// 2398       #define _TRIGGERED_WHEN_STOWED_TEST (READ(Z_MIN_PROBE_PIN) != Z_MIN_PROBE_ENDSTOP_INVERTING)
// 2399     #else
// 2400       #define _TRIGGERED_WHEN_STOWED_TEST (READ(Z_MIN_PIN) != Z_MIN_ENDSTOP_INVERTING)
// 2401     #endif
// 2402   #endif
// 2403 
// 2404   #if QUIET_PROBING
// 2405     void probing_pause(const bool p) {
// 2406       #if ENABLED(PROBING_HEATERS_OFF)
// 2407         thermalManager.pause(p);
// 2408       #endif
// 2409       #if ENABLED(PROBING_FANS_OFF)
// 2410         fans_pause(p);
// 2411       #endif
// 2412       if (p) safe_delay(
// 2413         #if DELAY_BEFORE_PROBING > 25
// 2414           DELAY_BEFORE_PROBING
// 2415         #else
// 2416           25
// 2417         #endif
// 2418       );
// 2419     }
// 2420   #endif // QUIET_PROBING
// 2421 
// 2422   //#if ENABLED(BLTOUCH)
// 2423 

        SECTION `.text`:CODE:NOROOT(1)
          CFI Block cfiBlock35 Using cfiCommon0
          CFI Function _Z15bltouch_commandi
        THUMB
// 2424     void bltouch_command(int angle) {
// 2425     #if defined(MKS_ROBIN2)||defined(MKS_ROBIN_NANO)
// 2426       //MOVE_SERVO(Z_ENDSTOP_SERVO_NR, angle);  // Give the BL-Touch the command and wait
// 2427       int mksAngle;
// 2428  	  switch(angle)
_Z15bltouch_commandi:
        CMP      R0,#+10
        BEQ.N    ??bltouch_command_0
        CMP      R0,#+60
        BEQ.N    ??bltouch_command_1
        CMP      R0,#+90
        BEQ.N    ??bltouch_command_2
        CMP      R0,#+120
        BEQ.N    ??bltouch_command_3
        B.N      ??bltouch_command_4
// 2429 	  {
// 2430 		 case 10:
// 2431 			 mksAngle = 700/2;
??bltouch_command_0:
        MOV      R0,#+350
// 2432 			 break;
        B.N      ??bltouch_command_5
// 2433 		 case 90:
// 2434 			 mksAngle = 1500/2;
??bltouch_command_2:
        MOVW     R0,#+750
// 2435 			 break;
        B.N      ??bltouch_command_5
// 2436 		 case 120:
// 2437 			 mksAngle = 1800/2;
??bltouch_command_3:
        MOV      R0,#+900
// 2438 			 break;
        B.N      ??bltouch_command_5
// 2439 		 case 160:
// 2440 			 mksAngle = 2200/2;
// 2441 			 break;
// 2442 		 case 60:
// 2443 			 mksAngle = 1200/2;
??bltouch_command_1:
        MOV      R0,#+600
// 2444 			 break;
        B.N      ??bltouch_command_5
// 2445 		 default:
// 2446 			 mksAngle = 2200/2;
??bltouch_command_4:
        MOVW     R0,#+1100
// 2447 			 break;
// 2448 	  }
// 2449       MKS_TOUCH_TIM = mksAngle;	  
??bltouch_command_5:
        LDR.W    R1,??DataTable145_2  ;; 0x40012c34
        STR      R0,[R1, #+0]
// 2450       safe_delay(BLTOUCH_DELAY);
        MOVW     R0,#+375
          CFI FunCall _Z10safe_delaym
        B.W      _Z10safe_delaym
          CFI EndBlock cfiBlock35
// 2451       #endif
// 2452     }
// 2453 

        SECTION `.text`:CODE:NOROOT(1)
          CFI Block cfiBlock36 Using cfiCommon0
          CFI Function _Z20set_bltouch_deployedb
        THUMB
// 2454     bool set_bltouch_deployed(const bool deploy) {
_Z20set_bltouch_deployedb:
        PUSH     {R3-R7,LR}
          CFI R14 Frame(CFA, -4)
          CFI R7 Frame(CFA, -8)
          CFI R6 Frame(CFA, -12)
          CFI R5 Frame(CFA, -16)
          CFI R4 Frame(CFA, -20)
          CFI CFA R13+24
        MOV      R4,R0
// 2455       if(Z_MIN_PROBE_PIN_MODE == Z_MIN_PROBE_USES_Z_MIN_ENDSTOP_PIN)
        LDR.N    R5,??DataTable134_5
        LDRB     R0,[R5, #+153]
        CMP      R0,#+1
        BNE.N    ??set_bltouch_deployed_0
// 2456 		{
// 2457 		if (deploy && (READ(Z_MIN_PIN) != Z_MIN_ENDSTOP_INVERTING)) 
        CMP      R4,#+0
        BEQ.N    ??set_bltouch_deployed_1
        LDR.W    R6,??DataTable145_3
        LDR.W    R7,??DataTable145_4
        LDRH     R1,[R7, #+26]
        LDR      R0,[R6, #+52]
          CFI FunCall HAL_GPIO_ReadPin
        BL       HAL_GPIO_ReadPin
        LDRB     R1,[R5, #+57]
        CMP      R0,R1
        BEQ.N    ??set_bltouch_deployed_1
// 2458 		  { 	 // If BL-Touch says it's triggered
// 2459 		  bltouch_command(BLTOUCH_RESET);	 //  try to reset it.
        MOVS     R0,#+160
          CFI FunCall _Z15bltouch_commandi
        BL       _Z15bltouch_commandi
// 2460 		  bltouch_command(BLTOUCH_DEPLOY);	 // Also needs to deploy and stow to
        MOVS     R0,#+10
          CFI FunCall _Z15bltouch_commandi
        BL       _Z15bltouch_commandi
// 2461 		  bltouch_command(BLTOUCH_STOW);	 //  clear the triggered condition.
        MOVS     R0,#+90
          CFI FunCall _Z15bltouch_commandi
        BL       _Z15bltouch_commandi
// 2462 		  safe_delay(1500); 				 // Wait for internal self-test to complete.
        MOVW     R0,#+1500
          CFI FunCall _Z10safe_delaym
        BL       _Z10safe_delaym
// 2463 											 //  (Measured completion time was 0.65 seconds
// 2464 											 //   after reset, deploy, and stow sequence)
// 2465 		  if ((READ(Z_MIN_PIN) != Z_MIN_ENDSTOP_INVERTING)) { 			 // If it still claims to be triggered...
        LDRH     R1,[R7, #+26]
        LDR      R0,[R6, #+52]
          CFI FunCall HAL_GPIO_ReadPin
        BL       HAL_GPIO_ReadPin
        LDRB     R1,[R5, #+57]
        CMP      R0,R1
        BEQ.N    ??set_bltouch_deployed_1
        B.N      ??set_bltouch_deployed_2
// 2466 			SERIAL_ERROR_START();
// 2467 			SERIAL_ERRORLNPGM(MSG_STOP_BLTOUCH);
// 2468 			stop(); 						 // punt!
// 2469 		  	}
// 2470 			}
// 2471 		
// 2472 		}
// 2473 	else if(Z_MIN_PROBE_PIN_MODE == Z_MIN_PROBE_USES_Z_MAX_ENDSTOP_PIN)
??set_bltouch_deployed_0:
        CMP      R0,#+2
        BNE.N    ??set_bltouch_deployed_1
// 2474 		{
// 2475 		if (deploy && (READ(Z_MAX_PIN) != Z_MIN_PROBE_ENDSTOP_INVERTING)) 
        CMP      R4,#+0
        BEQ.N    ??set_bltouch_deployed_1
        LDR.W    R6,??DataTable145_3
        LDR.W    R7,??DataTable145_4
        LDRH     R1,[R7, #+28]
        LDR      R0,[R6, #+56]
          CFI FunCall HAL_GPIO_ReadPin
        BL       HAL_GPIO_ReadPin
        ADDW     R5,R5,#+57
        LDRB     R1,[R5, #+4]
        CMP      R0,R1
        BEQ.N    ??set_bltouch_deployed_1
// 2476 		  { 	 // If BL-Touch says it's triggered
// 2477 		  bltouch_command(BLTOUCH_RESET);	 //  try to reset it.
        MOVS     R0,#+160
          CFI FunCall _Z15bltouch_commandi
        BL       _Z15bltouch_commandi
// 2478 		  bltouch_command(BLTOUCH_DEPLOY);	 // Also needs to deploy and stow to
        MOVS     R0,#+10
          CFI FunCall _Z15bltouch_commandi
        BL       _Z15bltouch_commandi
// 2479 		  bltouch_command(BLTOUCH_STOW);	 //  clear the triggered condition.
        MOVS     R0,#+90
          CFI FunCall _Z15bltouch_commandi
        BL       _Z15bltouch_commandi
// 2480 		  safe_delay(1500); 				 // Wait for internal self-test to complete.
        MOVW     R0,#+1500
          CFI FunCall _Z10safe_delaym
        BL       _Z10safe_delaym
// 2481 											 //  (Measured completion time was 0.65 seconds
// 2482 											 //   after reset, deploy, and stow sequence)
// 2483 		  if ((READ(Z_MAX_PIN) != Z_MIN_PROBE_ENDSTOP_INVERTING)) { 			 // If it still claims to be triggered...
        LDRH     R1,[R7, #+28]
        LDR      R0,[R6, #+56]
          CFI FunCall HAL_GPIO_ReadPin
        BL       HAL_GPIO_ReadPin
        LDRB     R1,[R5, #+4]
        CMP      R0,R1
        BEQ.N    ??set_bltouch_deployed_1
// 2484 			SERIAL_ERROR_START();
??set_bltouch_deployed_2:
        LDR.W    R0,??DataTable137_5
          CFI FunCall _Z14serialprintPGMPKc
        BL       _Z14serialprintPGMPKc
// 2485 			SERIAL_ERRORLNPGM(MSG_STOP_BLTOUCH);
        ADR.W    R0,`?<Constant "STOP called because o...">`
          CFI FunCall _Z14serialprintPGMPKc
        BL       _Z14serialprintPGMPKc
// 2486 			stop(); 						 // punt!
          CFI FunCall _Z4stopv
        BL       _Z4stopv
// 2487 		  }
// 2488 		}
// 2489 		}
// 2490       //}
// 2491 
// 2492       bltouch_command(deploy ? BLTOUCH_DEPLOY : BLTOUCH_STOW);
??set_bltouch_deployed_1:
        CMP      R4,#+0
        BEQ.N    ??set_bltouch_deployed_3
        MOVS     R0,#+10
        B.N      ??set_bltouch_deployed_4
??set_bltouch_deployed_3:
        MOVS     R0,#+90
??set_bltouch_deployed_4:
          CFI FunCall _Z15bltouch_commandi
        BL       _Z15bltouch_commandi
// 2493 
// 2494       #if ENABLED(DEBUG_LEVELING_FEATURE)
// 2495         if (DEBUGGING(LEVELING)) {
// 2496           SERIAL_ECHOPAIR("set_bltouch_deployed(", deploy);
// 2497           SERIAL_CHAR(')');
// 2498           SERIAL_EOL();
// 2499         }
// 2500       #endif
// 2501 
// 2502       return false;
        MOVS     R0,#+0
        POP      {R1,R4-R7,PC}    ;; return
          CFI EndBlock cfiBlock36
// 2503     }

        SECTION `.text`:CODE:NOROOT(2)
        SECTION_TYPE SHT_PROGBITS, 0
        DATA
`?<Constant "STOP called because o...">`:
        DC8 53H, 54H, 4FH, 50H, 20H, 63H, 61H, 6CH
        DC8 6CH, 65H, 64H, 20H, 62H, 65H, 63H, 61H
        DC8 75H, 73H, 65H, 20H, 6FH, 66H, 20H, 42H
        DC8 4CH, 54H, 6FH, 75H, 63H, 68H, 20H, 65H
        DC8 72H, 72H, 6FH, 72H, 20H, 2DH, 20H, 72H
        DC8 65H, 73H, 74H, 61H, 72H, 74H, 20H, 77H
        DC8 69H, 74H, 68H, 20H, 4DH, 39H, 39H, 39H
        DC8 0AH, 0
        DC8 0, 0
// 2504 
// 2505   //#endif // BLTOUCH
// 2506 
// 2507   // returns false for ok and true for failure

        SECTION `.text`:CODE:NOROOT(1)
          CFI Block cfiBlock37 Using cfiCommon0
          CFI Function _Z18set_probe_deployedb
        THUMB
// 2508   bool set_probe_deployed(bool deploy) {
_Z18set_probe_deployedb:
        PUSH     {R4,LR}
          CFI R14 Frame(CFA, -4)
          CFI R4 Frame(CFA, -8)
          CFI CFA R13+8
        SUB      SP,SP,#+16
          CFI CFA R13+24
        MOV      R4,R0
// 2509 
// 2510     #if ENABLED(DEBUG_LEVELING_FEATURE)
// 2511       if (DEBUGGING(LEVELING)) {
// 2512         DEBUG_POS("set_probe_deployed", current_position);
// 2513         SERIAL_ECHOLNPAIR("deploy: ", deploy);
// 2514       }
// 2515     #endif
// 2516 
// 2517     if (endstops.z_probe_enabled == deploy) return false;
        LDR.W    R0,??DataTable146
        LDRB     R0,[R0, #+0]
        CMP      R0,R4
        BNE.N    ??set_probe_deployed_0
        MOVS     R0,#+0
        B.N      ??set_probe_deployed_1
// 2518 
// 2519     // Make room for probe
// 2520     //do_probe_raise(_Z_CLEARANCE_DEPLOY_PROBE);
// 2521     do_probe_raise(Z_CLEARANCE_DEPLOY_PROBE>Z_CLEARANCE_BETWEEN_PROBES ? Z_CLEARANCE_DEPLOY_PROBE : Z_CLEARANCE_BETWEEN_PROBES);
??set_probe_deployed_0:
        LDR.N    R0,??DataTable134_5
        LDR      R1,[R0, #+100]
        LDR      R0,[R0, #+104]
          CFI FunCall __aeabi_cfcmple
        BL       __aeabi_cfcmple
        BCC.N    ??set_probe_deployed_2
        MOV      R1,R0
??set_probe_deployed_2:
        MOV      R0,R1
          CFI FunCall _Z14do_probe_raisef
        BL       _Z14do_probe_raisef
// 2522 
// 2523     #if ENABLED(Z_PROBE_SLED) || ENABLED(Z_PROBE_ALLEN_KEY)
// 2524       #if ENABLED(Z_PROBE_SLED)
// 2525         #define _AUE_ARGS true, false, false
// 2526       #else
// 2527         #define _AUE_ARGS
// 2528       #endif
// 2529       if (axis_unhomed_error(_AUE_ARGS)) {
// 2530         SERIAL_ERROR_START();
// 2531         SERIAL_ERRORLNPGM(MSG_STOP_UNHOMED);
// 2532         stop();
// 2533         return true;
// 2534       }
// 2535     #endif
// 2536 
// 2537     const float oldXpos = current_position[X_AXIS],
        LDR.N    R0,??DataTable134_4
        LDR      R1,[R0, #+8]
        STR      R1,[SP, #+8]
// 2538                 oldYpos = current_position[Y_AXIS];
        LDR      R1,[R0, #+12]
        STR      R1,[SP, #+4]
// 2539 
// 2540     #ifdef _TRIGGERED_WHEN_STOWED_TEST
// 2541       bool _triggered_bool =false;
// 2542 	if(Z_MIN_PROBE_PIN_MODE == Z_MIN_PROBE_USES_Z_MIN_ENDSTOP_PIN)
// 2543 		_triggered_bool = (READ(Z_MIN_PIN) != Z_MIN_ENDSTOP_INVERTING);
// 2544 	else if(Z_MIN_PROBE_PIN_MODE == Z_MIN_PROBE_USES_Z_MAX_ENDSTOP_PIN)
// 2545 		_triggered_bool = (READ(Z_MAX_PIN) != Z_MIN_PROBE_ENDSTOP_INVERTING);
// 2546 
// 2547       // If endstop is already false, the Z probe is deployed
// 2548       if (_triggered_bool == deploy) {
// 2549       //if (_TRIGGERED_WHEN_STOWED_TEST == deploy) {     // closed after the probe specific actions.
// 2550                                                        // Would a goto be less ugly?
// 2551         //while (!_TRIGGERED_WHEN_STOWED_TEST) idle(); // would offer the opportunity
// 2552                                                        // for a triggered when stowed manual probe.
// 2553 
// 2554         if (!deploy) endstops.enable_z_probe(false); // Switch off triggered when stowed probes early
// 2555                                                      // otherwise an Allen-Key probe can't be stowed.
// 2556     #endif
// 2557 
// 2558         #if ENABLED(SOLENOID_PROBE)
// 2559 
// 2560           #if HAS_SOLENOID_1
// 2561             WRITE(SOL1_PIN, deploy);
// 2562           #endif
// 2563 
// 2564         #elif ENABLED(Z_PROBE_SLED)
// 2565 
// 2566           dock_sled(!deploy);
// 2567 
// 2568         #elif HAS_Z_SERVO_ENDSTOP && DISABLED(BLTOUCH)
// 2569 
// 2570           MOVE_SERVO(Z_ENDSTOP_SERVO_NR, z_servo_angle[deploy ? 0 : 1]);
// 2571 
// 2572         #elif ENABLED(Z_PROBE_ALLEN_KEY)
// 2573 
// 2574           deploy ? run_deploy_moves_script() : run_stow_moves_script();
// 2575 
// 2576         #endif
// 2577 
// 2578     #ifdef _TRIGGERED_WHEN_STOWED_TEST
// 2579       } // _TRIGGERED_WHEN_STOWED_TEST == deploy
// 2580       
// 2581 	  if(Z_MIN_PROBE_PIN_MODE == Z_MIN_PROBE_USES_Z_MIN_ENDSTOP_PIN)
// 2582 		  _triggered_bool = (READ(Z_MIN_PIN) != Z_MIN_ENDSTOP_INVERTING);
// 2583 	  else if(Z_MIN_PROBE_PIN_MODE == Z_MIN_PROBE_USES_Z_MAX_ENDSTOP_PIN)
// 2584 		  _triggered_bool = (READ(Z_MAX_PIN) != Z_MIN_PROBE_ENDSTOP_INVERTING);
// 2585 
// 2586       //if (_TRIGGERED_WHEN_STOWED_TEST == deploy) { // State hasn't changed?
// 2587       if (_triggered_bool == deploy) { 
// 2588 
// 2589         if (IsRunning()) {
// 2590           SERIAL_ERROR_START();
// 2591           SERIAL_ERRORLNPGM("Z-Probe failed");
// 2592           LCD_ALERTMESSAGEPGM("Err: ZPROBE");
// 2593         }
// 2594         stop();
// 2595         return true;
// 2596 
// 2597       } // _TRIGGERED_WHEN_STOWED_TEST == deploy
// 2598 
// 2599     #endif
// 2600 
// 2601     do_blocking_move_to(oldXpos, oldYpos, current_position[Z_AXIS]); // return to position before deploy
        MOVS     R1,#+0
        STR      R1,[SP, #+0]
        ADD      R3,SP,#+0
        ADD      R2,R0,#+16
        ADD      R1,SP,#+4
        ADD      R0,SP,#+8
          CFI FunCall _Z19do_blocking_move_toRKfS0_S0_S0_
        BL       _Z19do_blocking_move_toRKfS0_S0_S0_
// 2602     endstops.enable_z_probe(deploy);
        MOV      R0,R4
          CFI FunCall _ZN8Endstops14enable_z_probeEb
        BL       _ZN8Endstops14enable_z_probeEb
// 2603     return false;
        MOVS     R0,#+0
??set_probe_deployed_1:
        ADD      SP,SP,#+16
          CFI CFA R13+8
        POP      {R4,PC}          ;; return
          CFI EndBlock cfiBlock37
// 2604   }
// 2605 
// 2606   /**
// 2607    * @brief Used by run_z_probe to do a single Z probe move.
// 2608    *
// 2609    * @param  z        Z destination
// 2610    * @param  fr_mm_s  Feedrate in mm/s
// 2611    * @return true to indicate an error
// 2612    */

        SECTION `.text`:CODE:NOROOT(1)
          CFI Block cfiBlock38 Using cfiCommon0
          CFI Function _Z13do_probe_moveff
        THUMB
// 2613   static bool do_probe_move(const float z, const float fr_mm_m) {
_Z13do_probe_moveff:
        PUSH     {R0,R4,R5,LR}
          CFI R14 Frame(CFA, -4)
          CFI R5 Frame(CFA, -8)
          CFI R4 Frame(CFA, -12)
          CFI CFA R13+16
        SUB      SP,SP,#+8
          CFI CFA R13+24
        MOV      R5,R1
// 2614     #if ENABLED(DEBUG_LEVELING_FEATURE)
// 2615       if (DEBUGGING(LEVELING)) DEBUG_POS(">>> do_probe_move", current_position);
// 2616     #endif
// 2617 
// 2618     // Deploy BLTouch at the start of any probe
// 2619     //#if ENABLED(BLTOUCH)
// 2620     if(MKSTOUCH == 1)
        LDR.N    R4,??DataTable134_5
        LDRB     R0,[R4, #+256]
        CMP      R0,#+1
        BNE.N    ??do_probe_move_0
// 2621       {if (set_bltouch_deployed(true)) return true;}
        MOVS     R0,#+1
          CFI FunCall _Z20set_bltouch_deployedb
        BL       _Z20set_bltouch_deployedb
        CMP      R0,#+0
        BNE.N    ??do_probe_move_1
// 2622     //#endif
// 2623 
// 2624     #if QUIET_PROBING
// 2625       probing_pause(true);
// 2626     #endif
// 2627 
// 2628     // Move down until probe triggered
// 2629     do_blocking_move_to_z(z, MMM_TO_MMS(fr_mm_m));
??do_probe_move_0:
        MOV      R0,R5
        LDR.N    R1,??DataTable134_6  ;; 0x42700000
          CFI FunCall __aeabi_fdiv
        BL       __aeabi_fdiv
        STR      R0,[SP, #+0]
        ADD      R1,SP,#+0
        ADD      R0,SP,#+8
          CFI FunCall _Z21do_blocking_move_to_zRKfS0_
        BL       _Z21do_blocking_move_to_zRKfS0_
// 2630    /*
// 2631     // Check to see if the probe was triggered
// 2632     const bool probe_triggered = TEST(Endstops::endstop_hit_bits,
// 2633       #if ENABLED(Z_MIN_PROBE_USES_Z_MIN_ENDSTOP_PIN)
// 2634         Z_MIN
// 2635       #else
// 2636         Z_MIN_PROBE
// 2637       #endif
// 2638     );
// 2639     */
// 2640       bool probe_triggered;
// 2641       if(Z_MIN_PROBE_PIN_MODE != Z_MIN_PROBE_USES_Z_MAX_ENDSTOP_PIN)
        LDR.W    R0,??DataTable148
        LDRB     R1,[R4, #+153]
        CMP      R1,#+2
        LDRSB    R0,[R0, #+0]
        UXTB     R0,R0
        BEQ.N    ??do_probe_move_2
// 2642       {
// 2643         probe_triggered = TEST(Endstops::endstop_hit_bits,Z_MIN);
        LSRS     R0,R0,#+2
        AND      R5,R0,#0x1
        B.N      ??do_probe_move_3
// 2644       }
// 2645       else
// 2646       {
// 2647         probe_triggered = TEST(Endstops::endstop_hit_bits,Z_MIN_PROBE);
??do_probe_move_2:
        LSRS     R0,R0,#+3
        AND      R5,R0,#0x1
// 2648       }
// 2649 
// 2650     #if QUIET_PROBING
// 2651       probing_pause(false);
// 2652     #endif
// 2653 
// 2654     // Retract BLTouch immediately after a probe if it was triggered
// 2655     //#if ENABLED(BLTOUCH)
// 2656     if(MKSTOUCH == 1)
??do_probe_move_3:
        LDRB     R0,[R4, #+256]
        CMP      R0,#+1
        BNE.N    ??do_probe_move_4
// 2657       {if (probe_triggered && set_bltouch_deployed(false)) return true;}
        CMP      R5,#+0
        BEQ.N    ??do_probe_move_4
        MOVS     R0,#+0
          CFI FunCall _Z20set_bltouch_deployedb
        BL       _Z20set_bltouch_deployedb
        CMP      R0,#+0
        BEQ.N    ??do_probe_move_4
??do_probe_move_1:
        MOVS     R0,#+1
        POP      {R1-R5,PC}
// 2658     //#endif
// 2659 
// 2660     // Clear endstop flags
// 2661     endstops.hit_on_purpose();
??do_probe_move_4:
          CFI FunCall _ZN8Endstops14hit_on_purposeEv
        BL       _ZN8Endstops14hit_on_purposeEv
// 2662 
// 2663     // Get Z where the steppers were interrupted
// 2664     set_current_from_steppers_for_axis(Z_AXIS);
        MOVS     R0,#+2
          CFI FunCall _Z34set_current_from_steppers_for_axis8AxisEnum
        BL       _Z34set_current_from_steppers_for_axis8AxisEnum
// 2665 
// 2666     // Tell the planner where we actually are
// 2667     SYNC_PLAN_POSITION_KINEMATIC();
          CFI FunCall _Z28SYNC_PLAN_POSITION_KINEMATICv
        BL       _Z28SYNC_PLAN_POSITION_KINEMATICv
// 2668 
// 2669     #if ENABLED(DEBUG_LEVELING_FEATURE)
// 2670       if (DEBUGGING(LEVELING)) DEBUG_POS("<<< do_probe_move", current_position);
// 2671     #endif
// 2672 
// 2673     return !probe_triggered;
        EOR      R0,R5,#0x1
        POP      {R1-R5,PC}       ;; return
          CFI EndBlock cfiBlock38
// 2674   }
// 2675 
// 2676   /**
// 2677    * @details Used by probe_pt to do a single Z probe at the current position.
// 2678    *          Leaves current_position[Z_AXIS] at the height where the probe triggered.
// 2679    *
// 2680    * @return The raw Z position where the probe was triggered
// 2681    */

        SECTION `.text`:CODE:NOROOT(1)
          CFI Block cfiBlock39 Using cfiCommon0
          CFI Function _Z11run_z_probev
        THUMB
// 2682   static float run_z_probe() {
_Z11run_z_probev:
        PUSH     {R4,R5,LR}
          CFI R14 Frame(CFA, -4)
          CFI R5 Frame(CFA, -8)
          CFI R4 Frame(CFA, -12)
          CFI CFA R13+12
        SUB      SP,SP,#+12
          CFI CFA R13+24
// 2683 
// 2684     #if ENABLED(DEBUG_LEVELING_FEATURE)
// 2685       if (DEBUGGING(LEVELING)) DEBUG_POS(">>> run_z_probe", current_position);
// 2686     #endif
// 2687 
// 2688     // Prevent stepper_inactive_time from running out and EXTRUDER_RUNOUT_PREVENT from extruding
// 2689     refresh_cmd_timeout();
          CFI FunCall _Z19refresh_cmd_timeoutv
        BL       _Z19refresh_cmd_timeoutv
// 2690 
// 2691     // Double-probing does a fast probe followed by a slow probe
// 2692     #if MULTIPLE_PROBING == 2
// 2693 
// 2694       // Do a first probe at the fast speed
// 2695       if (do_probe_move(-10, Z_PROBE_SPEED_FAST)) return NAN;
// 2696 
// 2697       float first_probe_z = current_position[Z_AXIS];
// 2698 
// 2699       #if ENABLED(DEBUG_LEVELING_FEATURE)
// 2700         if (DEBUGGING(LEVELING)) SERIAL_ECHOLNPAIR("1st Probe Z:", first_probe_z);
// 2701       #endif
// 2702 
// 2703       // move up to make clearance for the probe
// 2704       do_blocking_move_to_z(current_position[Z_AXIS] + Z_CLEARANCE_BETWEEN_PROBES, MMM_TO_MMS(Z_PROBE_SPEED_FAST));
// 2705 
// 2706     #else
// 2707 
// 2708       // If the nozzle is above the travel height then
// 2709       // move down quickly before doing the slow probe
// 2710       float z = Z_CLEARANCE_DEPLOY_PROBE;
        LDR.N    R4,??DataTable134_5
        LDR      R2,[R4, #+100]
// 2711       if (zprobe_zoffset < 0) z -= zprobe_zoffset;
        LDR.N    R5,??DataTable134_4
        LDR      R3,[R5, #+112]
        MOV      R0,R3
        MOVS     R1,#+0
          CFI FunCall __aeabi_cfcmple
        BL       __aeabi_cfcmple
        BCS.N    ??run_z_probe_0
        MOV      R0,R2
        MOV      R1,R3
          CFI FunCall __aeabi_fsub
        BL       __aeabi_fsub
        MOV      R2,R0
// 2712 
// 2713       if (z < current_position[Z_AXIS]) {
??run_z_probe_0:
        MOV      R0,R2
        LDR      R1,[R5, #+16]
          CFI FunCall __aeabi_cfcmple
        BL       __aeabi_cfcmple
        BCS.N    ??run_z_probe_1
// 2714 
// 2715         // If we don't make it to the z position (i.e. the probe triggered), move up to make clearance for the probe
// 2716         if (!do_probe_move(z, Z_PROBE_SPEED_FAST))
        LDR      R1,[R4, #+120]
          CFI FunCall _Z13do_probe_moveff
        BL       _Z13do_probe_moveff
        CMP      R0,#+0
        BNE.N    ??run_z_probe_1
// 2717           do_blocking_move_to_z(current_position[Z_AXIS] + Z_CLEARANCE_BETWEEN_PROBES, MMM_TO_MMS(Z_PROBE_SPEED_FAST));
        LDR      R1,[R5, #+16]
        LDR      R0,[R4, #+104]
          CFI FunCall __aeabi_fadd
        BL       __aeabi_fadd
        STR      R0,[SP, #+4]
        LDR      R0,[R4, #+120]
        LDR.N    R1,??DataTable134_6  ;; 0x42700000
          CFI FunCall __aeabi_fdiv
        BL       __aeabi_fdiv
        STR      R0,[SP, #+0]
        ADD      R1,SP,#+0
        ADD      R0,SP,#+4
          CFI FunCall _Z21do_blocking_move_to_zRKfS0_
        BL       _Z21do_blocking_move_to_zRKfS0_
// 2718       }
// 2719     #endif
// 2720 
// 2721     #if MULTIPLE_PROBING > 2
// 2722       float probes_total = 0;
// 2723       for (uint8_t p = MULTIPLE_PROBING + 1; --p;) {
// 2724     #endif
// 2725 
// 2726         // move down slowly to find bed
// 2727         if (do_probe_move(-10, Z_PROBE_SPEED_SLOW)) return NAN;
??run_z_probe_1:
        LDR      R1,[R4, #+124]
        LDR.W    R0,??DataTable149  ;; 0xc1200000
          CFI FunCall _Z13do_probe_moveff
        BL       _Z13do_probe_moveff
        CMP      R0,#+0
        BEQ.N    ??run_z_probe_2
        MVN      R0,#-2147483648
        POP      {R1-R5,PC}
// 2728 
// 2729     #if MULTIPLE_PROBING > 2
// 2730         probes_total += current_position[Z_AXIS];
// 2731         if (p > 1) do_blocking_move_to_z(current_position[Z_AXIS] + Z_CLEARANCE_BETWEEN_PROBES, MMM_TO_MMS(Z_PROBE_SPEED_FAST));
// 2732       }
// 2733     #endif
// 2734 
// 2735     #if MULTIPLE_PROBING > 2
// 2736 
// 2737       // Return the average value of all probes
// 2738       return probes_total * (1.0 / (MULTIPLE_PROBING));
// 2739 
// 2740     #elif MULTIPLE_PROBING == 2
// 2741 
// 2742       const float z2 = current_position[Z_AXIS];
// 2743 
// 2744       #if ENABLED(DEBUG_LEVELING_FEATURE)
// 2745         if (DEBUGGING(LEVELING)) {
// 2746           SERIAL_ECHOPAIR("2nd Probe Z:", z2);
// 2747           SERIAL_ECHOLNPAIR(" Discrepancy:", first_probe_z - z2);
// 2748         }
// 2749       #endif
// 2750 
// 2751       // Return a weighted average of the fast and slow probes
// 2752       return (z2 * 3.0 + first_probe_z * 2.0) * 0.2;
// 2753 
// 2754     #else
// 2755 
// 2756       // Return the single probe result
// 2757       return current_position[Z_AXIS];
??run_z_probe_2:
        LDR      R0,[R5, #+16]
        POP      {R1-R5,PC}       ;; return
          CFI EndBlock cfiBlock39
// 2758 
// 2759     #endif
// 2760 
// 2761     #if ENABLED(DEBUG_LEVELING_FEATURE)
// 2762       if (DEBUGGING(LEVELING)) DEBUG_POS("<<< run_z_probe", current_position);
// 2763     #endif
// 2764   }

        SECTION `.text`:CODE:NOROOT(2)
        SECTION_TYPE SHT_PROGBITS, 0
        DATA
??DataTable134:
        DC8      "X",0x0,0x0

        SECTION `.text`:CODE:NOROOT(2)
        SECTION_TYPE SHT_PROGBITS, 0
        DATA
??DataTable134_1:
        DC8      "Y",0x0,0x0

        SECTION `.text`:CODE:NOROOT(2)
        SECTION_TYPE SHT_PROGBITS, 0
        DATA
??DataTable134_2:
        DC8      "Z",0x0,0x0

        SECTION `.text`:CODE:NOROOT(2)
        SECTION_TYPE SHT_PROGBITS, 0
        DATA
??DataTable134_3:
        DC32     card

        SECTION `.text`:CODE:NOROOT(2)
        SECTION_TYPE SHT_PROGBITS, 0
        DATA
??DataTable134_4:
        DC32     mks_heating_busy

        SECTION `.text`:CODE:NOROOT(2)
        SECTION_TYPE SHT_PROGBITS, 0
        DATA
??DataTable134_5:
        DC32     mksCfg

        SECTION `.text`:CODE:NOROOT(2)
        SECTION_TYPE SHT_PROGBITS, 0
        DATA
??DataTable134_6:
        DC32     0x42700000

        SECTION `.text`:CODE:NOROOT(2)
        SECTION_TYPE SHT_PROGBITS, 0
        DATA
??DataTable134_7:
        DC32     0x43160000

        SECTION `.text`:CODE:NOROOT(2)
        SECTION_TYPE SHT_PROGBITS, 0
        DATA
??DataTable134_8:
        DC32     home_dir_P

        SECTION `.text`:CODE:NOROOT(2)
        SECTION_TYPE SHT_PROGBITS, 0
        DATA
??DataTable134_9:
        DC32     axis_homed
// 2765 
// 2766   /**
// 2767    * - Move to the given XY
// 2768    * - Deploy the probe, if not already deployed
// 2769    * - Probe the bed, get the Z position
// 2770    * - Depending on the 'stow' flag
// 2771    *   - Stow the probe, or
// 2772    *   - Raise to the BETWEEN height
// 2773    * - Return the probed Z position
// 2774    */

        SECTION `.text`:CODE:NOROOT(1)
          CFI Block cfiBlock40 Using cfiCommon0
          CFI Function _Z8probe_ptRKfS0_bhb
        THUMB
// 2775   float probe_pt(const float &rx, const float &ry, const bool stow, const uint8_t verbose_level, const bool probe_relative=true) {
_Z8probe_ptRKfS0_bhb:
        PUSH     {R4-R11,LR}
          CFI R14 Frame(CFA, -4)
          CFI R11 Frame(CFA, -8)
          CFI R10 Frame(CFA, -12)
          CFI R9 Frame(CFA, -16)
          CFI R8 Frame(CFA, -20)
          CFI R7 Frame(CFA, -24)
          CFI R6 Frame(CFA, -28)
          CFI R5 Frame(CFA, -32)
          CFI R4 Frame(CFA, -36)
          CFI CFA R13+36
        SUB      SP,SP,#+28
          CFI CFA R13+64
        MOV      R8,R0
        MOV      R4,R1
        MOV      R7,R2
        MOV      R9,R3
// 2776     #if ENABLED(DEBUG_LEVELING_FEATURE)
// 2777       if (DEBUGGING(LEVELING)) {
// 2778         SERIAL_ECHOPAIR(">>> probe_pt(", LOGICAL_X_POSITION(rx));
// 2779         SERIAL_ECHOPAIR(", ", LOGICAL_Y_POSITION(ry));
// 2780         SERIAL_ECHOPAIR(", ", stow ? "" : "no ");
// 2781         SERIAL_ECHOLNPGM("stow)");
// 2782         DEBUG_POS("", current_position);
// 2783       }
// 2784     #endif
// 2785 
// 2786     // TODO: Adapt for SCARA, where the offset rotates
// 2787     float nx = rx, ny = ry;
        LDR      R0,[R8, #+0]
        STR      R0,[SP, #+8]
        LDR      R0,[R4, #+0]
        STR      R0,[SP, #+4]
// 2788     if (probe_relative) {
        LDR.W    R10,??DataTable149_1
        LDRSH    R1,[R10, #+88]
        MOVW     R2,#+770
        LDR      R0,[SP, #+64]
        CMP      R0,#+0
        BEQ.N    ??probe_pt_0
// 2789       if(MACHINETPYE & IS_KINEMATIC)
        TST      R1,R2
        MOV      R1,R4
        MOV      R0,R8
        BEQ.N    ??probe_pt_1
// 2790       {
// 2791         if (!position_is_reachable_by_probe_IS_KINEMATIC(rx, ry)) return NAN;  // The given position is in terms of the probe
          CFI FunCall _Z43position_is_reachable_by_probe_IS_KINEMATICRKfS0_
        BL       _Z43position_is_reachable_by_probe_IS_KINEMATICRKfS0_
        CMP      R0,#+0
        BNE.N    ??probe_pt_2
        B.N      ??probe_pt_3
// 2792       }
// 2793       else
// 2794       {
// 2795         if (!position_is_reachable_by_probe_IS_CARTESIAN(rx, ry)) return NAN;  // The given position is in terms of the probe
??probe_pt_1:
          CFI FunCall _Z43position_is_reachable_by_probe_IS_CARTESIANRKfS0_
        BL       _Z43position_is_reachable_by_probe_IS_CARTESIANRKfS0_
        CMP      R0,#+0
        BEQ.N    ??probe_pt_3
// 2796       }
// 2797       nx -= (X_PROBE_OFFSET_FROM_EXTRUDER);                     // Get the nozzle position
??probe_pt_2:
        LDR      R0,[SP, #+8]
        LDR      R1,[R10, #+108]
          CFI FunCall __aeabi_fsub
        BL       __aeabi_fsub
        STR      R0,[SP, #+8]
// 2798       ny -= (Y_PROBE_OFFSET_FROM_EXTRUDER);
        LDR      R0,[SP, #+4]
        LDR      R1,[R10, #+112]
          CFI FunCall __aeabi_fsub
        BL       __aeabi_fsub
        STR      R0,[SP, #+4]
// 2799     }
// 2800     else
// 2801     {
// 2802         if(MACHINETPYE & IS_KINEMATIC)
// 2803         {
// 2804             if (!position_is_reachable_IS_KINEMATIC(nx, ny)) return NAN;        // The given position is in terms of the nozzle
// 2805         }
// 2806         else
// 2807         {
// 2808             if (!position_is_reachable_IS_CARTESIAN(nx, ny)) return NAN;        // The given position is in terms of the nozzle            
// 2809         }
// 2810      }
// 2811     //const 
// 2812         float nz;/* =
// 2813       #if ENABLED(DELTA)
// 2814         // Move below clip height or xy move will be aborted by do_blocking_move_to
// 2815         min(current_position[Z_AXIS], delta_clip_start_height)
// 2816       #else
// 2817         current_position[Z_AXIS]
// 2818       #endif
// 2819     ;
// 2820     */
// 2821     if(MACHINETPYE ==  DELTA)
??probe_pt_4:
        LDR.W    R5,??DataTable149_2
        LDR      R0,[R5, #+16]
        LDRSH    R1,[R10, #+88]
        CMP      R1,#+2
        BNE.N    ??probe_pt_5
// 2822     {
// 2823         nz = min(current_position[Z_AXIS], delta_clip_start_height);
        LDR      R1,[R5, #+124]
          CFI FunCall __aeabi_cfcmple
        BL       __aeabi_cfcmple
        BCS.N    ??probe_pt_6
        STR      R0,[SP, #+12]
        B.N      ??probe_pt_7
// 2824     }
??probe_pt_0:
        TST      R1,R2
        ADD      R1,SP,#+4
        ADD      R0,SP,#+8
        BEQ.N    ??probe_pt_8
          CFI FunCall _Z34position_is_reachable_IS_KINEMATICRKfS0_
        BL       _Z34position_is_reachable_IS_KINEMATICRKfS0_
        CMP      R0,#+0
        BNE.N    ??probe_pt_4
        B.N      ??probe_pt_3
??probe_pt_8:
          CFI FunCall _Z34position_is_reachable_IS_CARTESIANRKfS0_
        BL       _Z34position_is_reachable_IS_CARTESIANRKfS0_
        CMP      R0,#+0
        BNE.N    ??probe_pt_4
??probe_pt_3:
        MVN      R0,#-2147483648
        B.N      ??probe_pt_9
??probe_pt_6:
        STR      R1,[SP, #+12]
        B.N      ??probe_pt_7
// 2825     else
// 2826     {
// 2827         nz = current_position[Z_AXIS];
??probe_pt_5:
        STR      R0,[SP, #+12]
// 2828     }
// 2829     const float old_feedrate_mm_s = feedrate_mm_s;
??probe_pt_7:
        LDR      R0,[R5, #+92]
        STR      R0,[SP, #+20]
// 2830     feedrate_mm_s = XY_PROBE_FEEDRATE_MM_S;
        LDR      R0,[R5, #+116]
        STR      R0,[R5, #+92]
// 2831 
// 2832     // Move the probe to the starting XYZ
// 2833     do_blocking_move_to(nx, ny, nz);
        MOVS     R0,#+0
        STR      R0,[SP, #+0]
        ADD      R3,SP,#+0
        ADD      R2,SP,#+12
        ADD      R1,SP,#+4
        ADD      R0,SP,#+8
          CFI FunCall _Z19do_blocking_move_toRKfS0_S0_S0_
        BL       _Z19do_blocking_move_toRKfS0_S0_S0_
// 2834 
// 2835     float measured_z = NAN;
        MVN      R11,#-2147483648
        MOV      R6,R11
// 2836     if (!DEPLOY_PROBE()) {
        MOVS     R0,#+1
          CFI FunCall _Z18set_probe_deployedb
        BL       _Z18set_probe_deployedb
        CMP      R0,#+0
        BNE.N    ??probe_pt_10
// 2837       measured_z = run_z_probe() + zprobe_zoffset;
          CFI FunCall _Z11run_z_probev
        BL       _Z11run_z_probev
        MOV      R1,R0
        LDR      R0,[R5, #+112]
          CFI FunCall __aeabi_fadd
        BL       __aeabi_fadd
        MOV      R6,R0
// 2838 
// 2839       if (!stow)
        CMP      R7,#+0
        BNE.N    ??probe_pt_11
// 2840         do_blocking_move_to_z(current_position[Z_AXIS] + Z_CLEARANCE_BETWEEN_PROBES, MMM_TO_MMS(Z_PROBE_SPEED_FAST));
        LDR      R1,[R5, #+16]
        LDR      R0,[R10, #+104]
          CFI FunCall __aeabi_fadd
        BL       __aeabi_fadd
        STR      R0,[SP, #+16]
        LDR      R0,[R10, #+120]
        LDR.W    R1,??DataTable150  ;; 0x42700000
          CFI FunCall __aeabi_fdiv
        BL       __aeabi_fdiv
        STR      R0,[SP, #+0]
        ADD      R1,SP,#+0
        ADD      R0,SP,#+16
          CFI FunCall _Z21do_blocking_move_to_zRKfS0_
        BL       _Z21do_blocking_move_to_zRKfS0_
        B.N      ??probe_pt_10
// 2841       else
// 2842         if (STOW_PROBE()) measured_z = NAN;
??probe_pt_11:
        MOVS     R0,#+0
          CFI FunCall _Z18set_probe_deployedb
        BL       _Z18set_probe_deployedb
        CMP      R0,#+0
        BEQ.N    ??probe_pt_10
        MOV      R6,R11
// 2843     }
// 2844 
// 2845     if (verbose_level > 2) {
??probe_pt_10:
        CMP      R9,#+3
        BLT.N    ??probe_pt_12
// 2846       SERIAL_PROTOCOLPGM("Bed X: ");
        ADR.W    R0,`?<Constant "Bed X: ">`
          CFI FunCall _Z14serialprintPGMPKc
        BL       _Z14serialprintPGMPKc
// 2847       SERIAL_PROTOCOL_F(LOGICAL_X_POSITION(rx), 3);
        LDR.N    R7,??DataTable137_4
        MOVS     R0,#+3
        STR      R0,[SP, #+0]
        LDR      R1,[R8, #+0]
        LDR      R0,[R5, #+56]
          CFI FunCall __aeabi_fadd
        BL       __aeabi_fadd
          CFI FunCall __aeabi_f2d
        BL       __aeabi_f2d
        MOV      R2,R0
        MOV      R3,R1
        MOV      R0,R7
          CFI FunCall _ZN5Print5printEdi
        BL       _ZN5Print5printEdi
// 2848       SERIAL_PROTOCOLPGM(" Y: ");
        ADR.W    R0,`?<Constant " Y: ">`
          CFI FunCall _Z14serialprintPGMPKc
        BL       _Z14serialprintPGMPKc
// 2849       SERIAL_PROTOCOL_F(LOGICAL_Y_POSITION(ry), 3);
        MOVS     R0,#+3
        STR      R0,[SP, #+0]
        LDR      R1,[R4, #+0]
        LDR      R0,[R5, #+60]
          CFI FunCall __aeabi_fadd
        BL       __aeabi_fadd
          CFI FunCall __aeabi_f2d
        BL       __aeabi_f2d
        MOV      R2,R0
        MOV      R3,R1
        MOV      R0,R7
          CFI FunCall _ZN5Print5printEdi
        BL       _ZN5Print5printEdi
// 2850       SERIAL_PROTOCOLPGM(" Z: ");
        ADR.W    R0,`?<Constant " Z: ">`
          CFI FunCall _Z14serialprintPGMPKc
        BL       _Z14serialprintPGMPKc
// 2851       SERIAL_PROTOCOL_F(measured_z, 3);
        MOVS     R0,#+3
        STR      R0,[SP, #+0]
        MOV      R0,R6
          CFI FunCall __aeabi_f2d
        BL       __aeabi_f2d
        MOV      R2,R0
        MOV      R3,R1
        MOV      R0,R7
          CFI FunCall _ZN5Print5printEdi
        BL       _ZN5Print5printEdi
// 2852       SERIAL_EOL();
        MOVS     R1,#+10
        MOV      R0,R7
          CFI FunCall _ZN10USARTClass5writeEh
        BL       _ZN10USARTClass5writeEh
// 2853     }
// 2854 
// 2855     #if ENABLED(DEBUG_LEVELING_FEATURE)
// 2856       if (DEBUGGING(LEVELING)) SERIAL_ECHOLNPGM("<<< probe_pt");
// 2857     #endif
// 2858 
// 2859     feedrate_mm_s = old_feedrate_mm_s;
??probe_pt_12:
        LDR      R0,[SP, #+20]
        STR      R0,[R5, #+92]
// 2860 
// 2861     if (isnan(measured_z)) {
        MOV      R0,R6
          CFI FunCall __iar_FDtest
        BL       __iar_FDtest
        CMP      R0,#+2
        BNE.N    ??probe_pt_13
// 2862       LCD_MESSAGEPGM(MSG_ERR_PROBING_FAILED);
        MOVS     R1,#+0
        ADR.W    R0,`?<Constant "Probing failed">`
          CFI FunCall _Z16lcd_setstatusPGMPKca
        BL       _Z16lcd_setstatusPGMPKca
// 2863       SERIAL_ERROR_START();
        LDR.N    R0,??DataTable137_5
          CFI FunCall _Z14serialprintPGMPKc
        BL       _Z14serialprintPGMPKc
// 2864       SERIAL_ERRORLNPGM(MSG_ERR_PROBING_FAILED);
        ADR.W    R0,`?<Constant "Probing failed\\n">`
          CFI FunCall _Z14serialprintPGMPKc
        BL       _Z14serialprintPGMPKc
// 2865     }
// 2866 
// 2867     return measured_z;
??probe_pt_13:
        MOV      R0,R6
??probe_pt_9:
        ADD      SP,SP,#+28
          CFI CFA R13+36
        POP      {R4-R11,PC}      ;; return
          CFI EndBlock cfiBlock40
// 2868   }

        SECTION `.text`:CODE:NOROOT(2)
        SECTION_TYPE SHT_PROGBITS, 0
        DATA
??DataTable135:
        DC32     _ZN7Planner15leveling_activeE

        SECTION `.text`:CODE:NOROOT(2)
        SECTION_TYPE SHT_PROGBITS, 0
        DATA
`?<Constant "Bed X: ">`:
        DC8 "Bed X: "

        SECTION `.text`:CODE:NOROOT(2)
        SECTION_TYPE SHT_PROGBITS, 0
        DATA
`?<Constant " Y: ">`:
        DC8 " Y: "
        DC8 0, 0, 0

        SECTION `.text`:CODE:NOROOT(2)
        SECTION_TYPE SHT_PROGBITS, 0
        DATA
`?<Constant " Z: ">`:
        DC8 " Z: "
        DC8 0, 0, 0

        SECTION `.text`:CODE:NOROOT(2)
        SECTION_TYPE SHT_PROGBITS, 0
        DATA
`?<Constant "Probing failed">`:
        DC8 "Probing failed"
        DC8 0

        SECTION `.text`:CODE:NOROOT(2)
        SECTION_TYPE SHT_PROGBITS, 0
        DATA
`?<Constant "Probing failed\\n">`:
        DC8 "Probing failed\012"
// 2869 
// 2870 #endif // HAS_BED_PROBE
// 2871 
// 2872 #if 1//HAS_LEVELING
// 2873 

        SECTION `.text`:CODE:NOROOT(1)
          CFI Block cfiBlock41 Using cfiCommon0
          CFI Function _Z17leveling_is_validv
          CFI NoCalls
        THUMB
// 2874   bool leveling_is_valid() {
_Z17leveling_is_validv:
        LDR.W    R0,??DataTable149_1
        LDRB     R0,[R0, #+64]
        CMP      R0,#+32
        BNE.N    ??leveling_is_valid_0
// 2875   /*
// 2876     return
// 2877       #if ENABLED(MESH_BED_LEVELING)
// 2878         mbl.has_mesh
// 2879       #elif ENABLED(AUTO_BED_LEVELING_BILINEAR)
// 2880         !!bilinear_grid_spacing[X_AXIS]
// 2881       #elif ENABLED(AUTO_BED_LEVELING_UBL)
// 2882         true
// 2883       #else // 3POINT, LINEAR
// 2884         true
// 2885       #endif
// 2886     ;
// 2887     */
// 2888       if(BED_LEVELING_METHOD == MESH_BED_LEVELING)
// 2889         return mbl.has_mesh;
        LDR.W    R0,??DataTable151
        LDRB     R0,[R0, #+0]
        BX       LR
// 2890       else if(BED_LEVELING_METHOD == AUTO_BED_LEVELING_BILINEAR)
??leveling_is_valid_0:
        CMP      R0,#+8
        BNE.N    ??leveling_is_valid_1
// 2891         return !!bilinear_grid_spacing[X_AXIS];
        LDR.N    R0,??DataTable139
        LDR      R0,[R0, #+16]
        SUBS     R0,R0,#+1
        SBCS     R0,R0,R0
        MVNS     R0,R0
        LSRS     R0,R0,#+31
        BX       LR
// 2892       else if(BED_LEVELING_METHOD == AUTO_BED_LEVELING_UBL)
??leveling_is_valid_1:
        CMP      R0,#+16
        BNE.N    ??leveling_is_valid_2
// 2893         return true;
        MOVS     R0,#+1
        BX       LR
// 2894       else
// 2895         return true;
??leveling_is_valid_2:
        MOVS     R0,#+1
        BX       LR               ;; return
          CFI EndBlock cfiBlock41
// 2896   }
// 2897 
// 2898   /**
// 2899    * Turn bed leveling on or off, fixing the current
// 2900    * position as-needed.
// 2901    *
// 2902    * Disable: Current position = physical position
// 2903    *  Enable: Current position = "unleveled" physical position
// 2904    */

        SECTION `.text`:CODE:NOROOT(1)
          CFI Block cfiBlock42 Using cfiCommon0
          CFI Function _Z24set_bed_leveling_enabledb
        THUMB
// 2905   void set_bed_leveling_enabled(const bool enable/*=true*/) {
_Z24set_bed_leveling_enabledb:
        PUSH     {R4-R8,LR}
          CFI R14 Frame(CFA, -4)
          CFI R8 Frame(CFA, -8)
          CFI R7 Frame(CFA, -12)
          CFI R6 Frame(CFA, -16)
          CFI R5 Frame(CFA, -20)
          CFI R4 Frame(CFA, -24)
          CFI CFA R13+24
        SUB      SP,SP,#+16
          CFI CFA R13+40
        MOV      R5,R0
// 2906     bool can_change;
// 2907 /*
// 2908     #if ENABLED(AUTO_BED_LEVELING_BILINEAR)
// 2909       const bool can_change = (!enable || leveling_is_valid());
// 2910     #else
// 2911       constexpr bool can_change = true;
// 2912     #endif
// 2913 */
// 2914     if(BED_LEVELING_METHOD == AUTO_BED_LEVELING_BILINEAR)
        LDR.W    R6,??DataTable149_1
        LDRB     R7,[R6, #+64]
        MOV      R8,R7
        CMP      R8,#+8
        BNE.N    ??set_bed_leveling_enabled_0
// 2915         can_change = (!enable || leveling_is_valid());
        CMP      R5,#+0
        BEQ.N    ??set_bed_leveling_enabled_1
          CFI FunCall _Z17leveling_is_validv
        BL       _Z17leveling_is_validv
        B.N      ??set_bed_leveling_enabled_2
??set_bed_leveling_enabled_1:
        MOVS     R0,#+1
        B.N      ??set_bed_leveling_enabled_2
// 2916     else
// 2917         can_change = true;
??set_bed_leveling_enabled_0:
        MOVS     R0,#+1
// 2918         
// 2919     if (can_change && enable != planner.leveling_active) {
??set_bed_leveling_enabled_2:
        CMP      R0,#+0
        BEQ.N    ??set_bed_leveling_enabled_3
        LDR.W    R4,??DataTable151_1
        LDRB     R0,[R4, #+0]
        CMP      R5,R0
        BEQ.N    ??set_bed_leveling_enabled_3
// 2920 
// 2921       //#if ENABLED(MESH_BED_LEVELING)
// 2922       if(BED_LEVELING_METHOD == MESH_BED_LEVELING)
        CMP      R8,#+32
        BNE.N    ??set_bed_leveling_enabled_4
// 2923       {
// 2924         if (!enable)
        CMP      R5,#+0
        BNE.N    ??set_bed_leveling_enabled_5
// 2925           planner.apply_leveling(current_position[X_AXIS], current_position[Y_AXIS], current_position[Z_AXIS]);
        LDR.W    R3,??DataTable149_2
        ADD      R2,R3,#+16
        ADD      R1,R3,#+12
        ADD      R0,R3,#+8
          CFI FunCall _ZN7Planner14apply_levelingERfS0_S0_
        BL       _ZN7Planner14apply_levelingERfS0_S0_
// 2926 
// 2927         const bool enabling = enable && leveling_is_valid();
??set_bed_leveling_enabled_5:
        CMP      R5,#+0
        BEQ.N    ??set_bed_leveling_enabled_6
          CFI FunCall _Z17leveling_is_validv
        BL       _Z17leveling_is_validv
        B.N      ??set_bed_leveling_enabled_7
??set_bed_leveling_enabled_6:
        MOVS     R0,#+0
// 2928         planner.leveling_active = enabling;
??set_bed_leveling_enabled_7:
        STRB     R0,[R4, #+0]
// 2929         if (enabling) planner.unapply_leveling(current_position);
        CMP      R0,#+0
        BEQ.N    ??set_bed_leveling_enabled_3
        LDR.W    R0,??DataTable152
          CFI FunCall _ZN7Planner16unapply_levelingEPf
        BL       _ZN7Planner16unapply_levelingEPf
        B.N      ??set_bed_leveling_enabled_3
// 2930       }
// 2931       //#elif ENABLED(AUTO_BED_LEVELING_UBL)
// 2932       else if(BED_LEVELING_METHOD == AUTO_BED_LEVELING_UBL)
??set_bed_leveling_enabled_4:
        CMP      R8,#+16
        BNE.N    ??set_bed_leveling_enabled_8
// 2933       {
// 2934         //#if PLANNER_LEVELING
// 2935         if(BED_LEVELING_METHOD&ABL_PLANAR)
        MOVS     R1,#+6
        TST      R7,R1
        BEQ.N    ??set_bed_leveling_enabled_9
// 2936         {
// 2937           if (planner.leveling_active) {                       // leveling from on to off
        LDR.W    R3,??DataTable149_2
        CMP      R0,#+0
        BEQ.N    ??set_bed_leveling_enabled_10
// 2938             // change unleveled current_position to physical current_position without moving steppers.
// 2939             planner.apply_leveling(current_position[X_AXIS], current_position[Y_AXIS], current_position[Z_AXIS]);
        ADD      R2,R3,#+16
        ADD      R1,R3,#+12
        ADD      R0,R3,#+8
          CFI FunCall _ZN7Planner14apply_levelingERfS0_S0_
        BL       _ZN7Planner14apply_levelingERfS0_S0_
// 2940             planner.leveling_active = false;                   // disable only AFTER calling apply_leveling
        MOVS     R0,#+0
        STRB     R0,[R4, #+0]
        B.N      ??set_bed_leveling_enabled_3
// 2941           }
// 2942           else {                                        // leveling from off to on
// 2943             planner.leveling_active = true;                    // enable BEFORE calling unapply_leveling, otherwise ignored
??set_bed_leveling_enabled_10:
        MOVS     R0,#+1
        STRB     R0,[R4, #+0]
// 2944             // change physical current_position to unleveled current_position without moving steppers.
// 2945             planner.unapply_leveling(current_position);
        ADD      R0,R3,#+8
          CFI FunCall _ZN7Planner16unapply_levelingEPf
        BL       _ZN7Planner16unapply_levelingEPf
        B.N      ??set_bed_leveling_enabled_3
// 2946           }
// 2947         }
// 2948         //#else
// 2949         else
// 2950           planner.leveling_active = enable;                    // just flip the bit, current_position will be wrong until next move.
??set_bed_leveling_enabled_9:
        STRB     R5,[R4, #+0]
        B.N      ??set_bed_leveling_enabled_3
// 2951         //#endif
// 2952       }
// 2953       //#else // ABL
// 2954       else
// 2955       {
// 2956         //#if ENABLED(AUTO_BED_LEVELING_BILINEAR)
// 2957         if(BED_LEVELING_METHOD==AUTO_BED_LEVELING_BILINEAR)
??set_bed_leveling_enabled_8:
        CMP      R8,#+8
        BNE.N    ??set_bed_leveling_enabled_11
// 2958         {
// 2959           // Force bilinear_z_offset to re-calculate next time
// 2960           const float reset[XYZ] = { -9999.999, -9999.999, 0 };
        ADD      R0,SP,#+0
        ADR.W    R1,`?<Constant {(-9.9999990233E+3F), (-9.999999023`
        LDM      R1!,{R2,R3,R7}
        STM      R0!,{R2,R3,R7}
// 2961           (void)bilinear_z_offset(reset);
        ADD      R0,SP,#+0
          CFI FunCall _Z17bilinear_z_offsetPKf
        BL       _Z17bilinear_z_offsetPKf
// 2962         }
// 2963         //#endif
// 2964 
// 2965         // Enable or disable leveling compensation in the planner
// 2966         planner.leveling_active = enable;
??set_bed_leveling_enabled_11:
        STRB     R5,[R4, #+0]
// 2967 
// 2968         if (!enable)
        CMP      R5,#+0
        BNE.N    ??set_bed_leveling_enabled_12
// 2969             /*
// 2970           // When disabling just get the current position from the steppers.
// 2971           // This will yield the smallest error when first converted back to steps.
// 2972           set_current_from_steppers_for_axis(
// 2973             #if ABL_PLANAR
// 2974               ALL_AXES
// 2975             #else
// 2976               Z_AXIS
// 2977             #endif
// 2978           );
// 2979           */
// 2980         {
// 2981             if(BED_LEVELING_METHOD&ABL_PLANAR)
        LDRB     R0,[R6, #+64]
        MOVS     R1,#+6
        TST      R0,R1
        BEQ.N    ??set_bed_leveling_enabled_13
// 2982                 set_current_from_steppers_for_axis(ALL_AXES);
        MOVS     R0,#+100
          CFI FunCall _Z34set_current_from_steppers_for_axis8AxisEnum
        BL       _Z34set_current_from_steppers_for_axis8AxisEnum
        B.N      ??set_bed_leveling_enabled_14
// 2983             else
// 2984                 set_current_from_steppers_for_axis(Z_AXIS);
??set_bed_leveling_enabled_13:
        MOVS     R0,#+2
          CFI FunCall _Z34set_current_from_steppers_for_axis8AxisEnum
        BL       _Z34set_current_from_steppers_for_axis8AxisEnum
        B.N      ??set_bed_leveling_enabled_14
// 2985         }
// 2986         else
// 2987           // When enabling, remove compensation from the current position,
// 2988           // so compensation will give the right stepper counts.
// 2989           planner.unapply_leveling(current_position);
??set_bed_leveling_enabled_12:
        LDR.W    R0,??DataTable152
          CFI FunCall _ZN7Planner16unapply_levelingEPf
        BL       _ZN7Planner16unapply_levelingEPf
// 2990 
// 2991         SYNC_PLAN_POSITION_KINEMATIC();
??set_bed_leveling_enabled_14:
          CFI FunCall _Z28SYNC_PLAN_POSITION_KINEMATICv
        BL       _Z28SYNC_PLAN_POSITION_KINEMATICv
// 2992       }
// 2993       //#endif // ABL
// 2994     }
// 2995   }
??set_bed_leveling_enabled_3:
        POP      {R0-R8,PC}       ;; return
          CFI EndBlock cfiBlock42

        SECTION `.text`:CODE:NOROOT(2)
        SECTION_TYPE SHT_PROGBITS, 0
        DATA
??DataTable137:
        DC32     home_bump_mm_P

        SECTION `.text`:CODE:NOROOT(2)
        SECTION_TYPE SHT_PROGBITS, 0
        DATA
??DataTable137_1:
        DC32     injected_commands_P

        SECTION `.text`:CODE:NOROOT(2)
        SECTION_TYPE SHT_PROGBITS, 0
        DATA
??DataTable137_2:
        DC32     filament_loading_time_flg

        SECTION `.text`:CODE:NOROOT(2)
        SECTION_TYPE SHT_PROGBITS, 0
        DATA
??DataTable137_3:
        DC32     echomagic

        SECTION `.text`:CODE:NOROOT(2)
        SECTION_TYPE SHT_PROGBITS, 0
        DATA
??DataTable137_4:
        DC32     Serial3

        SECTION `.text`:CODE:NOROOT(2)
        SECTION_TYPE SHT_PROGBITS, 0
        DATA
??DataTable137_5:
        DC32     errormagic

        SECTION `.text`:CODE:NOROOT(2)
        SECTION_TYPE SHT_PROGBITS, 0
        DATA
`?<Constant {(-9.9999990233E+3F), (-9.999999023`:
        DC32 0C61C3FFFH, 0C61C3FFFH, 0H
// 2996 
// 2997   #if ENABLED(ENABLE_LEVELING_FADE_HEIGHT)
// 2998 

        SECTION `.text`:CODE:NOROOT(1)
          CFI Block cfiBlock43 Using cfiCommon0
          CFI Function _Z17set_z_fade_heightfb
        THUMB
// 2999     void set_z_fade_height(const float zfh, const bool do_report/*=true*/) {
_Z17set_z_fade_heightfb:
        PUSH     {R0,R4-R6,LR}
          CFI R14 Frame(CFA, -4)
          CFI R6 Frame(CFA, -8)
          CFI R5 Frame(CFA, -12)
          CFI R4 Frame(CFA, -16)
          CFI CFA R13+20
        SUB      SP,SP,#+12
          CFI CFA R13+32
        MOV      R4,R1
// 3000 
// 3001       if (planner.z_fade_height == zfh) return; // do nothing if no change
        LDR.W    R0,??DataTable152_1
        LDR      R0,[R0, #+0]
        LDR      R1,[SP, #+12]
          CFI FunCall __aeabi_cfcmpeq
        BL       __aeabi_cfcmpeq
        BEQ.N    ??set_z_fade_height_0
// 3002 
// 3003       const bool level_active = planner.leveling_active;
        LDR.W    R0,??DataTable151_1
        LDRB     R6,[R0, #+0]
// 3004 
// 3005       //#if ENABLED(AUTO_BED_LEVELING_UBL)
// 3006       if(BED_LEVELING_METHOD==AUTO_BED_LEVELING_UBL)
        LDR.W    R5,??DataTable149_1
        LDRB     R0,[R5, #+64]
        CMP      R0,#+16
        BNE.N    ??set_z_fade_height_1
// 3007         if (level_active) set_bed_leveling_enabled(false);  // turn off before changing fade height for proper apply/unapply leveling to maintain current_position
        CMP      R6,#+0
        BEQ.N    ??set_z_fade_height_1
        MOVS     R0,#+0
          CFI FunCall _Z24set_bed_leveling_enabledb
        BL       _Z24set_bed_leveling_enabledb
// 3008       //#endif
// 3009 
// 3010       planner.set_z_fade_height(zfh);
??set_z_fade_height_1:
        ADD      R0,SP,#+12
          CFI FunCall _ZN7Planner17set_z_fade_heightERKf
        BL       _ZN7Planner17set_z_fade_heightERKf
// 3011 
// 3012       if (level_active) {
        CMP      R6,#+0
        BEQ.N    ??set_z_fade_height_0
// 3013         const float oldpos[] = { current_position[X_AXIS], current_position[Y_AXIS], current_position[Z_AXIS] };
        LDR.W    R6,??DataTable149_2
        LDR      R0,[R6, #+8]
        STR      R0,[SP, #+0]
        LDR      R0,[R6, #+12]
        STR      R0,[SP, #+4]
        LDR      R0,[R6, #+16]
        STR      R0,[SP, #+8]
// 3014         //#if ENABLED(AUTO_BED_LEVELING_UBL)
// 3015         if(BED_LEVELING_METHOD==AUTO_BED_LEVELING_UBL)
        LDRB     R0,[R5, #+64]
        CMP      R0,#+16
        BNE.N    ??set_z_fade_height_2
// 3016           set_bed_leveling_enabled(true);  // turn back on after changing fade height
        MOVS     R0,#+1
          CFI FunCall _Z24set_bed_leveling_enabledb
        BL       _Z24set_bed_leveling_enabledb
        B.N      ??set_z_fade_height_3
// 3017         //#else
// 3018         else
// 3019         {
// 3020         /*
// 3021           set_current_from_steppers_for_axis(
// 3022             #if ABL_PLANAR
// 3023               ALL_AXES
// 3024             #else
// 3025               Z_AXIS
// 3026             #endif
// 3027           );
// 3028             */
// 3029           if(BED_LEVELING_METHOD&ABL_PLANAR)
??set_z_fade_height_2:
        MOVS     R1,#+6
        TST      R0,R1
        BEQ.N    ??set_z_fade_height_4
// 3030           {
// 3031             set_current_from_steppers_for_axis(ALL_AXES);
        MOVS     R0,#+100
          CFI FunCall _Z34set_current_from_steppers_for_axis8AxisEnum
        BL       _Z34set_current_from_steppers_for_axis8AxisEnum
        B.N      ??set_z_fade_height_5
// 3032           }
// 3033           else
// 3034           {
// 3035             set_current_from_steppers_for_axis(Z_AXIS);
??set_z_fade_height_4:
        MOVS     R0,#+2
          CFI FunCall _Z34set_current_from_steppers_for_axis8AxisEnum
        BL       _Z34set_current_from_steppers_for_axis8AxisEnum
// 3036           }
// 3037             
// 3038           SYNC_PLAN_POSITION_KINEMATIC();
??set_z_fade_height_5:
          CFI FunCall _Z28SYNC_PLAN_POSITION_KINEMATICv
        BL       _Z28SYNC_PLAN_POSITION_KINEMATICv
// 3039         }
// 3040         //#endif
// 3041         if (do_report && memcmp(oldpos, current_position, sizeof(oldpos)))
??set_z_fade_height_3:
        CMP      R4,#+0
        BEQ.N    ??set_z_fade_height_0
        MOVS     R2,#+12
        ADD      R1,R6,#+8
        ADD      R0,SP,#+0
          CFI FunCall memcmp
        BL       memcmp
        CMP      R0,#+0
        BEQ.N    ??set_z_fade_height_0
// 3042           report_current_position();
          CFI FunCall _Z23report_current_positionv
        BL       _Z23report_current_positionv
// 3043       }
// 3044     }
??set_z_fade_height_0:
