///////////////////////////////////////////////////////////////////////////////
//
// IAR ANSI C/C++ Compiler V7.10.1.6676/W32 for ARM       14/Feb/2020  17:05:41
// Copyright 1999-2014 IAR Systems AB.
//
//    Cpu mode     =  thumb
//    Endian       =  little
//    Source file  =  
//        E:\code\Robin_Nano_SVN\branches\robin_nano35源码\robin_nano35_v1.0.4_source\Src\mks_cfg.cpp
//    Command line =  
//        E:\code\Robin_Nano_SVN\branches\robin_nano35源码\robin_nano35_v1.0.4_source\Src\mks_cfg.cpp
//        -D USE_HAL_DRIVER -D STM32F103xE -D STM32F10X_HD -D USE_HAL_LIB -D
//        MKS_ROBIN_NANO -D TFT35 -lC
//        E:\code\Robin_Nano_SVN\branches\robin_nano35源码\robin_nano35_v1.0.4_source\EWARM\mksRobinNano/List\
//        -lA
//        E:\code\Robin_Nano_SVN\branches\robin_nano35源码\robin_nano35_v1.0.4_source\EWARM\mksRobinNano/List\
//        --diag_suppress Pa050 -o
//        E:\code\Robin_Nano_SVN\branches\robin_nano35源码\robin_nano35_v1.0.4_source\EWARM\mksRobinNano/Obj\
//        --no_unroll --no_inline --no_tbaa --no_scheduling --debug
//        --endian=little --cpu=Cortex-M3 -e --char_is_signed --fpu=None
//        --dlib_config "C:\Program Files (x86)\IAR Systems\Embedded Workbench
//        7.0\arm\INC\c\DLib_Config_Full.h" -I
//        E:\code\Robin_Nano_SVN\branches\robin_nano35源码\robin_nano35_v1.0.4_source\EWARM/../Inc\
//        -I
//        E:\code\Robin_Nano_SVN\branches\robin_nano35源码\robin_nano35_v1.0.4_source\EWARM/../Src\
//        -I
//        E:\code\Robin_Nano_SVN\branches\robin_nano35源码\robin_nano35_v1.0.4_source\EWARM/../Drivers/STM32F1xx_HAL_Driver/Inc\
//        -I
//        E:\code\Robin_Nano_SVN\branches\robin_nano35源码\robin_nano35_v1.0.4_source\EWARM/../Drivers/STM32F1xx_HAL_Driver/Inc/Legacy\
//        -I
//        E:\code\Robin_Nano_SVN\branches\robin_nano35源码\robin_nano35_v1.0.4_source\EWARM/../Middlewares/Third_Party/FatFs/src/drivers\
//        -I
//        E:\code\Robin_Nano_SVN\branches\robin_nano35源码\robin_nano35_v1.0.4_source\EWARM/../Middlewares/ST/STM32_USB_Host_Library/Core/Inc\
//        -I
//        E:\code\Robin_Nano_SVN\branches\robin_nano35源码\robin_nano35_v1.0.4_source\EWARM/../Middlewares/ST/STM32_USB_Host_Library/Class/MSC/Inc\
//        -I
//        E:\code\Robin_Nano_SVN\branches\robin_nano35源码\robin_nano35_v1.0.4_source\EWARM/../Drivers/CMSIS/Device/ST/STM32F1xx/Include\
//        -I
//        E:\code\Robin_Nano_SVN\branches\robin_nano35源码\robin_nano35_v1.0.4_source\EWARM/../Middlewares/Third_Party/FatFs/src\
//        -I
//        E:\code\Robin_Nano_SVN\branches\robin_nano35源码\robin_nano35_v1.0.4_source\EWARM/../Drivers/CMSIS/Include\
//        -I
//        E:\code\Robin_Nano_SVN\branches\robin_nano35源码\robin_nano35_v1.0.4_source\EWARM/../Drivers/BSP/variant\
//        -I
//        E:\code\Robin_Nano_SVN\branches\robin_nano35源码\robin_nano35_v1.0.4_source\EWARM/../Drivers/BSP/Components/at24cxx\
//        -I
//        E:\code\Robin_Nano_SVN\branches\robin_nano35源码\robin_nano35_v1.0.4_source\EWARM/../Drivers/BSP/Components/w25qxx\
//        -I
//        E:\code\Robin_Nano_SVN\branches\robin_nano35源码\robin_nano35_v1.0.4_source\EWARM/../Drivers/BSP/Components/lcd\
//        -I
//        E:\code\Robin_Nano_SVN\branches\robin_nano35源码\robin_nano35_v1.0.4_source\EWARM/../Drivers/STM32F10x_StdPeriph_Driver/inc\
//        -I
//        E:\code\Robin_Nano_SVN\branches\robin_nano35源码\robin_nano35_v1.0.4_source\EWARM/../Drivers/libstmf4/include\
//        -I
//        E:\code\Robin_Nano_SVN\branches\robin_nano35源码\robin_nano35_v1.0.4_source\EWARM/../Middlewares/arduino/stm32/cores/arduino\
//        -I
//        E:\code\Robin_Nano_SVN\branches\robin_nano35源码\robin_nano35_v1.0.4_source\EWARM/../User/ui\
//        -I
//        E:\code\Robin_Nano_SVN\branches\robin_nano35源码\robin_nano35_v1.0.4_source\EWARM/../User/ui/Multi_language\
//        -I
//        E:\code\Robin_Nano_SVN\branches\robin_nano35源码\robin_nano35_v1.0.4_source\EWARM/../User/ui/QRENCODE\
//        -I
//        E:\code\Robin_Nano_SVN\branches\robin_nano35源码\robin_nano35_v1.0.4_source\EWARM\..\Middlewares\
//        -I
//        E:\code\Robin_Nano_SVN\branches\robin_nano35源码\robin_nano35_v1.0.4_source\EWARM\..\Middlewares\GUI\
//        -I
//        E:\code\Robin_Nano_SVN\branches\robin_nano35源码\robin_nano35_v1.0.4_source\EWARM\..\Middlewares\Third_Party\Marlin\
//        -Om --eec++ -I "C:\Program Files (x86)\IAR Systems\Embedded Workbench
//        7.0\arm\CMSIS\Include\"
//    List file    =  
//        E:\code\Robin_Nano_SVN\branches\robin_nano35源码\robin_nano35_v1.0.4_source\EWARM\mksRobinNano/List\mks_cfg.s
//
///////////////////////////////////////////////////////////////////////////////

        RTMODEL "__CPP_Language", "EC++"
        RTMODEL "__SystemLibrary", "DLib"
        RTMODEL "__dlib_file_descriptor", "1"
        RTMODEL "__dlib_full_locale_support", "1"
        AAPCS BASE,INTERWORK
        PRESERVE8
        REQUIRE8

        #define SHT_PROGBITS 0x1

        EXTERN AT24CXX_Read
        EXTERN AT24CXX_Write
        EXTERN SD_Path
        EXTERN SPI_FLASH_BufferRead
        EXTERN SPI_FLASH_BufferWrite
        EXTERN SPI_FLASH_SectorErase
        EXTERN Serial3
        EXTERN _Z17serial_echopair_PPKcS0_
        EXTERN _ZN10USARTClass5writeEh
        EXTERN _ZN11Temperature16extrude_min_tempE
        EXTERN _ZN11Temperature2KdE
        EXTERN _ZN11Temperature2KiE
        EXTERN _ZN11Temperature2KpE
        EXTERN _ZN11Temperature5bedKdE
        EXTERN _ZN11Temperature5bedKiE
        EXTERN _ZN11Temperature5bedKpE
        EXTERN _ZN14MarlinSettings4saveEv
        EXTERN _ZN14MarlinSettings5resetEv
        EXTERN _ZN17mesh_bed_leveling8meshInitEv
        EXTERN _ZN20unified_bed_leveling24mesh_index_to_xypos_initEv
        EXTERN _ZN7Planner12accelerationE
        EXTERN _ZN7Planner17axis_steps_per_mmE
        EXTERN _ZN7Planner17max_feedrate_mm_sE
        EXTERN _ZN7Planner17min_feedrate_mm_sE
        EXTERN _ZN7Planner19min_segment_time_usE
        EXTERN _ZN7Planner19travel_accelerationE
        EXTERN _ZN7Planner20retract_accelerationE
        EXTERN _ZN7Planner24min_travel_feedrate_mm_sE
        EXTERN _ZN7Planner26max_acceleration_mm_per_s2E
        EXTERN _ZN7Planner4initEv
        EXTERN _ZN7Planner8max_jerkE
        EXTERN __aeabi_cfcmple
        EXTERN __aeabi_d2f
        EXTERN __aeabi_ddiv
        EXTERN __aeabi_dmul
        EXTERN __aeabi_f2iz
        EXTERN __aeabi_fadd
        EXTERN __aeabi_fdiv
        EXTERN __aeabi_fsub
        EXTERN __aeabi_memclr4
        EXTERN __aeabi_memcpy4
        EXTERN __iar_Strstr
        EXTERN atof
        EXTERN atoi
        EXTERN base_home_pos_P
        EXTERN base_max_pos_P
        EXTERN base_min_pos_P
        EXTERN cfg_cloud_flag
        EXTERN cfg_wifi_flag
        EXTERN delta_calibration_radius
        EXTERN delta_diagonal_rod
        EXTERN delta_height
        EXTERN delta_radius
        EXTERN delta_segments_per_second
        EXTERN echomagic
        EXTERN f_close
        EXTERN f_open
        EXTERN f_printf
        EXTERN f_read
        EXTERN f_rename
        EXTERN f_unlink
        EXTERN home_bump_mm_P
        EXTERN home_dir_P
        EXTERN homing_feedrate_mm_s
        EXTERN max_length_P
        EXTERN memset
        EXTERN mkstft_ui_load
        EXTERN planner
        EXTERN soft_endstop_max
        EXTERN soft_endstop_min
        EXTERN strcat
        EXTERN strcmp
        EXTERN strlen
        EXTERN strncpy
        EXTERN xy_probe_feedrate_mm_s
        EXTERN zprobe_zoffset

        PUBLIC _Z11mksCardTestv
        PUBLIC _Z12eprBurnValuePcPf
        PUBLIC _Z12eprBurnValuePcPft
        PUBLIC _Z12eprBurnValuePcPht
        PUBLIC _Z12eprBurnValuePcPit
        PUBLIC _Z12eprBurnValuePcPj
        PUBLIC _Z12eprBurnValuePcPst
        PUBLIC _Z12hexBurnValuePcPit
        PUBLIC _Z13hexBurnValue2PcPht
        PUBLIC _Z14flashBurnValuePct
        PUBLIC _Z14serialprintPGMPKc
        PUBLIC _Z15mksGetParameterPc
        PUBLIC _Z21eprBurnValue_levelingPcPiS0_tt
        PUBLIC _Z22mksGetParameterToFlashPc
        PUBLIC _Z6strstrPcPKc
        PUBLIC _Z7mksSwapPfS_
        PUBLIC _Z9ascii2decPcc
        PUBLIC _ZN10CardReader16mksConfigurationEv
        PUBLIC _ZN10CardReader16mksEepromRefreshEv
        PUBLIC _ZN10CardReader3getEv
        PUBLIC _ZN10CardReader7mksLoadEv
        PUBLIC _ZN10CardReader8mksResetEv
        PUBLIC _ZTI5Print
        PUBLIC cfg_buf
        PUBLIC cfg_file
        PUBLIC cfg_file_cur
        PUBLIC cmd_code
        PUBLIC dst_buf
        PUBLIC epr_read_data
        PUBLIC epr_write_data
        PUBLIC gCfgItems
        PUBLIC gCurFileState
        PUBLIC mksCfg
        PUBLIC mksTmp
        PUBLIC ugbksize
        
          CFI Names cfiNames0
          CFI StackFrame CFA R13 DATA
          CFI Resource R0:32, R1:32, R2:32, R3:32, R4:32, R5:32, R6:32, R7:32
          CFI Resource R8:32, R9:32, R10:32, R11:32, R12:32, R13:32, R14:32
          CFI EndNames cfiNames0
        
          CFI Common cfiCommon0 Using cfiNames0
          CFI CodeAlign 2
          CFI DataAlign 4
          CFI ReturnAddress R14 CODE
          CFI CFA R13+0
          CFI R0 Undefined
          CFI R1 Undefined
          CFI R2 Undefined
          CFI R3 Undefined
          CFI R4 SameValue
          CFI R5 SameValue
          CFI R6 SameValue
          CFI R7 SameValue
          CFI R8 SameValue
          CFI R9 SameValue
          CFI R10 SameValue
          CFI R11 SameValue
          CFI R12 Undefined
          CFI R14 SameValue
          CFI EndCommon cfiCommon0
        
// E:\code\Robin_Nano_SVN\branches\robin_nano35源码\robin_nano35_v1.0.4_source\Src\mks_cfg.cpp
//    1 
//    2 #include "Marlin.h"

        SECTION `.text`:CODE:REORDER:NOROOT(1)
        SECTION_GROUP _Z6strstrPcPKc
          CFI Block cfiBlock0 Using cfiCommon0
          CFI Function _Z6strstrPcPKc
          CFI FunCall __iar_Strstr
        THUMB
// __intrinsic __nounwind __interwork __softfp char *strstr(char *, char const *)
_Z6strstrPcPKc:
        B.W      __iar_Strstr
          CFI EndBlock cfiBlock0

        SECTION `.text`:CODE:REORDER:NOROOT(2)
        SECTION_GROUP _Z14serialprintPGMPKc
          CFI Block cfiBlock1 Using cfiCommon0
          CFI Function _Z14serialprintPGMPKc
        THUMB
// __interwork __softfp void serialprintPGM(char const *)
_Z14serialprintPGMPKc:
        PUSH     {R4,LR}
          CFI R14 Frame(CFA, -4)
          CFI R4 Frame(CFA, -8)
          CFI CFA R13+8
        MOV      R4,R0
        B.N      ??serialprintPGM_0
??serialprintPGM_1:
        UXTB     R1,R1
        LDR.N    R0,??serialprintPGM_2
          CFI FunCall _ZN10USARTClass5writeEh
        BL       _ZN10USARTClass5writeEh
??serialprintPGM_0:
        LDRSB    R1,[R4], #+1
        MOVS     R0,R1
        BNE.N    ??serialprintPGM_1
        POP      {R4,PC}          ;; return
        DATA
??serialprintPGM_2:
        DC32     Serial3
          CFI EndBlock cfiBlock1
//    3 #include "cardreader.h"

        SECTION `.text`:CODE:REORDER:NOROOT(1)
        SECTION_GROUP _ZN10CardReader3getEv
          CFI Block cfiBlock2 Using cfiCommon0
          CFI Function _ZN10CardReader3getEv
        THUMB
// __interwork __softfp int16_t CardReader::get()
_ZN10CardReader3getEv:
        PUSH     {R2-R4,LR}
          CFI R14 Frame(CFA, -4)
          CFI R4 Frame(CFA, -8)
          CFI CFA R13+16
        MOV      R4,R0
        ADD      R3,SP,#+4
        MOVS     R2,#+1
        ADD      R1,SP,#+0
          CFI FunCall f_read
        BL       f_read
        CMP      R0,#+0
        BEQ.N    ??get_0
        MOV      R0,#-1
        STRB     R0,[SP, #+0]
        B.N      ??get_1
??get_0:
        LDR      R0,[R4, #+1120]
        LDR      R1,[SP, #+4]
        ADDS     R0,R1,R0
        STR      R0,[R4, #+1120]
??get_1:
        LDRSB    R0,[SP, #+0]
        POP      {R1,R2,R4,PC}    ;; return
          CFI EndBlock cfiBlock2
//    4 #include "fatfs.h"
//    5 #include "mks_cfg.h"
//    6 #include "mks_reprint.h"
//    7 #include "usb_host.h"
//    8 
//    9 #include <string.h>
//   10 #include "configuration_store.h"
//   11 #include "temperature.h"
//   12 #include "at24cxx.h"
//   13 
//   14 #include "mesh_bed_leveling.h"
//   15 #include "ubl.h"
//   16 #include "spi_flash.h"
//   17 #include "pic_manager.h"
//   18 void epr_read_data(int pos, uint8_t* value, uint16_t size);
//   19 //char WELCOME_MSG[30] = "3D Printer ready.";
//   20 

        SECTION `.bss`:DATA:REORDER:NOROOT(2)
//   21 volatile u32 ugbksize;//flash中Unicode转GBK转换表大小值。
ugbksize:
        DS8 4
//   22 
//   23 #if defined(MKS_ROBIN2)
//   24 char *cfg_file = "robin2_cfg.txt";	
//   25 char *cfg_file_cur = "robin2_cfg.CUR";
//   26 #elif defined(MKS_ROBIN)
//   27 char *cfg_file = "robin2_cfg.txt";	
//   28 char *cfg_file_cur = "robin2_cfg.CUR";
//   29 #elif defined(MKS_ROBIN_MINI)
//   30 char *cfg_file = "robin2_cfg.txt";	
//   31 char *cfg_file_cur = "robin2_cfg.CUR";
//   32 #elif defined(MKS_ROBIN_NANO)
//   33 char *cfg_file = "robin_nano35_cfg.txt";	
//   34 char *cfg_file_cur = "robin_nano35_cfg.CUR";
//   35 #endif
//   36 char cfg_buf[CFG_BUF_LEN+1];

        SECTION `.bss`:DATA:REORDER:NOROOT(2)
//   37 char dst_buf[DST_BUF_LEN+1];
dst_buf:
        DS8 52
//   38 char cmd_code[CMD_CODE_LEN+1];
//   39 

        SECTION `.bss`:DATA:REORDER:NOROOT(2)
//   40 FILE_PRINT_STATE gCurFileState;
gCurFileState:
        DS8 576

        SECTION `.data`:DATA:REORDER:NOROOT(2)
//   41 CFG_PRINTER_ITMES mksCfg;
//   42 TMP_PRINTER_ITMES mksTmp;
mksTmp:
        DATA
        DC8 0, 0, 0, 0, 0, 0, 0, 0, 0, 0, 0, 0, 0, 0, 0, 0
        DC8 0, 0, 0, 0, 0, 0, 0, 0
cfg_file:
        DC32 `?<Constant "robin_nano35_cfg.txt">`
cfg_file_cur:
        DC32 `?<Constant "robin_nano35_cfg.CUR">`
cfg_buf:
        DC8 0, 0, 0, 0, 0, 0, 0, 0, 0, 0, 0, 0, 0, 0, 0, 0
        DC8 0, 0, 0, 0, 0, 0, 0, 0, 0, 0, 0, 0, 0, 0, 0, 0
        DC8 0, 0, 0, 0, 0, 0, 0, 0, 0, 0, 0, 0, 0, 0, 0, 0
        DC8 0, 0, 0, 0, 0, 0, 0, 0, 0, 0, 0, 0, 0, 0, 0, 0
        DC8 0, 0, 0, 0, 0, 0, 0, 0, 0, 0, 0, 0, 0, 0, 0, 0
        DC8 0, 0, 0, 0, 0, 0, 0, 0, 0, 0, 0, 0, 0, 0, 0, 0
        DC8 0, 0, 0, 0, 0, 0, 0, 0, 0, 0, 0, 0, 0, 0, 0, 0
        DC8 0, 0, 0, 0, 0, 0, 0, 0, 0, 0, 0, 0, 0, 0, 0, 0
        DC8 0, 0, 0, 0, 0, 0, 0, 0, 0, 0, 0, 0, 0, 0, 0, 0
        DC8 0, 0, 0, 0, 0, 0, 0, 0, 0, 0, 0, 0, 0, 0, 0, 0
        DC8 0, 0, 0, 0, 0, 0, 0, 0, 0, 0, 0, 0, 0, 0, 0, 0
        DC8 0, 0, 0, 0, 0, 0, 0, 0, 0, 0, 0, 0, 0, 0, 0, 0
        DC8 0, 0, 0, 0, 0, 0, 0, 0, 0, 0, 0, 0, 0, 0, 0, 0
        DC8 0, 0, 0, 0, 0, 0, 0, 0, 0, 0, 0, 0, 0, 0, 0, 0
        DC8 0, 0, 0, 0, 0, 0, 0, 0, 0, 0, 0, 0, 0, 0, 0, 0
        DC8 0, 0, 0, 0, 0, 0, 0, 0, 0, 0, 0, 0, 0, 0, 0, 0
        DC8 0, 0, 0, 0, 0, 0, 0, 0, 0, 0, 0, 0, 0, 0, 0, 0
        DC8 0, 0, 0, 0, 0, 0, 0, 0, 0, 0, 0, 0, 0, 0, 0, 0
        DC8 0, 0, 0, 0, 0, 0, 0, 0, 0, 0, 0, 0, 0, 0, 0, 0
        DC8 0, 0, 0, 0, 0, 0, 0, 0, 0, 0, 0, 0, 0, 0, 0, 0
        DC8 0, 0, 0, 0, 0, 0, 0, 0, 0, 0, 0, 0, 0, 0, 0, 0
        DC8 0, 0, 0, 0, 0, 0, 0, 0, 0, 0, 0, 0, 0, 0, 0, 0
        DC8 0, 0, 0, 0, 0, 0, 0, 0, 0, 0, 0, 0, 0, 0, 0, 0
        DC8 0, 0, 0, 0, 0, 0, 0, 0, 0, 0, 0, 0, 0, 0, 0, 0
        DC8 0, 0, 0, 0, 0, 0, 0, 0, 0, 0, 0, 0, 0, 0, 0, 0
        DC8 0, 0, 0, 0, 0, 0, 0, 0, 0, 0, 0, 0, 0, 0, 0, 0
        DC8 0, 0, 0, 0, 0, 0, 0, 0, 0, 0, 0, 0, 0, 0, 0, 0
        DC8 0, 0, 0, 0, 0, 0, 0, 0, 0, 0, 0, 0, 0, 0, 0, 0
        DC8 0, 0, 0, 0, 0, 0, 0, 0, 0, 0, 0, 0, 0, 0, 0, 0
        DC8 0, 0, 0, 0, 0, 0, 0, 0, 0, 0, 0, 0, 0, 0, 0, 0
        DC8 0, 0, 0, 0, 0, 0, 0, 0, 0, 0, 0, 0, 0, 0, 0, 0
        DC8 0, 0, 0, 0, 0, 0, 0, 0, 0, 0, 0, 0, 0, 0, 0, 0
        DC8 0, 0, 0, 0, 0, 0, 0, 0, 0, 0, 0, 0, 0, 0, 0, 0
        DC8 0, 0, 0, 0, 0, 0, 0, 0, 0, 0, 0, 0, 0, 0, 0, 0
        DC8 0, 0, 0, 0, 0, 0, 0, 0, 0, 0, 0, 0, 0, 0, 0, 0
        DC8 0, 0, 0, 0, 0, 0, 0, 0, 0, 0, 0, 0, 0, 0, 0, 0
        DC8 0, 0, 0, 0, 0, 0, 0, 0, 0, 0, 0, 0, 0, 0, 0, 0
        DC8 0, 0, 0, 0, 0, 0, 0, 0, 0, 0, 0, 0, 0, 0, 0, 0
        DC8 0, 0, 0, 0, 0, 0, 0, 0, 0, 0, 0, 0, 0, 0, 0, 0
        DC8 0, 0, 0, 0, 0, 0, 0, 0, 0, 0, 0, 0, 0, 0, 0, 0
        DC8 0, 0, 0, 0, 0, 0, 0, 0, 0, 0, 0, 0, 0, 0, 0, 0
        DC8 0, 0, 0, 0, 0, 0, 0, 0, 0, 0, 0, 0, 0, 0, 0, 0
        DC8 0, 0, 0, 0, 0, 0, 0, 0, 0, 0, 0, 0, 0, 0, 0, 0
        DC8 0, 0, 0, 0, 0, 0, 0, 0, 0, 0, 0, 0, 0, 0, 0, 0
        DC8 0, 0, 0, 0, 0, 0, 0, 0, 0, 0, 0, 0, 0, 0, 0, 0
        DC8 0, 0, 0, 0, 0, 0, 0, 0, 0, 0, 0, 0, 0, 0, 0, 0
        DC8 0, 0, 0, 0, 0, 0, 0, 0, 0, 0, 0, 0, 0, 0, 0, 0
        DC8 0, 0, 0, 0, 0, 0, 0, 0, 0, 0, 0, 0, 0, 0, 0, 0
        DC8 0, 0, 0, 0, 0, 0, 0, 0, 0, 0, 0, 0, 0, 0, 0, 0
        DC8 0, 0, 0, 0, 0, 0, 0, 0, 0, 0, 0, 0, 0, 0, 0, 0
        DC8 0, 0, 0, 0, 0, 0, 0, 0, 0, 0, 0, 0, 0, 0, 0, 0
        DC8 0, 0, 0, 0, 0, 0, 0, 0, 0, 0, 0, 0, 0, 0, 0, 0
        DC8 0, 0, 0, 0, 0, 0, 0, 0, 0, 0, 0, 0, 0, 0, 0, 0
        DC8 0, 0, 0, 0, 0, 0, 0, 0, 0, 0, 0, 0, 0, 0, 0, 0
        DC8 0, 0, 0, 0, 0, 0, 0, 0, 0, 0, 0, 0, 0, 0, 0, 0
        DC8 0, 0, 0, 0, 0, 0, 0, 0, 0, 0, 0, 0, 0, 0, 0, 0
        DC8 0, 0, 0, 0, 0, 0, 0, 0, 0, 0, 0, 0, 0, 0, 0, 0
        DC8 0, 0, 0, 0, 0, 0, 0, 0, 0, 0, 0, 0, 0, 0, 0, 0
        DC8 0, 0, 0, 0, 0, 0, 0, 0, 0, 0, 0, 0, 0, 0, 0, 0
        DC8 0, 0, 0, 0, 0, 0, 0, 0, 0, 0, 0, 0, 0, 0, 0, 0
        DC8 0, 0, 0, 0, 0, 0, 0, 0, 0, 0, 0, 0, 0, 0, 0, 0
        DC8 0, 0, 0, 0, 0, 0, 0, 0, 0, 0, 0, 0, 0, 0, 0, 0
        DC8 0, 0, 0, 0, 0, 0, 0, 0, 0, 0, 0, 0, 0, 0, 0, 0
        DC8 0, 0, 0, 0, 0, 0, 0, 0, 0, 0, 0, 0, 0, 0, 0, 0, 0, 0, 0, 0
cmd_code:
        DC8 0, 0, 0, 0, 0, 0, 0, 0, 0, 0, 0, 0, 0, 0, 0, 0
        DC8 0, 0, 0, 0, 0, 0, 0, 0, 0, 0, 0, 0, 0, 0, 0, 0
        DC8 0, 0, 0, 0, 0, 0, 0, 0, 0, 0, 0, 0, 0, 0, 0, 0
        DC8 0, 0, 0, 0, 0, 0, 0, 0, 0, 0, 0, 0, 0, 0, 0, 0
        DC8 0, 0, 0, 0, 0, 0, 0, 0, 0, 0, 0, 0, 0, 0, 0, 0
        DC8 0, 0, 0, 0, 0, 0, 0, 0, 0, 0, 0, 0, 0, 0, 0, 0
        DC8 0, 0, 0, 0, 0, 0, 0, 0, 0, 0, 0, 0, 0, 0, 0, 0
        DC8 0, 0, 0, 0, 0, 0, 0, 0, 0, 0, 0, 0, 0, 0, 0, 0
        DC8 0, 0, 0, 0, 0, 0, 0, 0, 0, 0, 0, 0, 0, 0, 0, 0
        DC8 0, 0, 0, 0, 0, 0, 0, 0, 0, 0, 0, 0, 0, 0, 0, 0
        DC8 0, 0, 0, 0, 0, 0, 0, 0, 0, 0, 0, 0, 0, 0, 0, 0
        DC8 0, 0, 0, 0, 0, 0, 0, 0, 0, 0, 0, 0, 0, 0, 0, 0
        DC8 0, 0, 0, 0, 0, 0, 0, 0, 0, 0, 0, 0

        SECTION `.bss`:DATA:REORDER:NOROOT(2)
//   43 CFG_ITMES gCfgItems;
gCfgItems:
        DS8 688
mksCfg:
        DS8 264
//   44 
//   45 #if 1//def USE_MKS_WIFI
//   46 extern int cfg_wifi_flag;
//   47 extern int cfg_cloud_flag;
//   48 #endif
//   49 
//   50 void epr_write_data(uint16_t pos, const uint8_t* value, uint16_t size);
//   51 
//   52 #if ENABLED(ULTRA_LCD)
//   53 void Language_Reset();
//   54 void Language_Load();
//   55 #endif
//   56 

        SECTION `.text`:CODE:NOROOT(1)
          CFI Block cfiBlock3 Using cfiCommon0
          CFI Function _Z15mksGetParameterPc
        THUMB
//   57 void mksGetParameter(char *str)
//   58 {
_Z15mksGetParameterPc:
        PUSH     {R3-R5,LR}
          CFI R14 Frame(CFA, -4)
          CFI R5 Frame(CFA, -8)
          CFI R4 Frame(CFA, -12)
          CFI CFA R13+16
        MOV      R4,R0
//   59 	char *p;
//   60 	memset(cmd_code,0,sizeof(cmd_code));
        LDR.W    R5,??DataTable249
        MOVS     R2,#+201
        MOVS     R1,#+0
        MOV      R0,R5
          CFI FunCall memset
        BL       memset
//   61 	p = cmd_code;
        MOV      R0,R5
        B.N      ??mksGetParameter_0
//   62 	while(((*str) != '\r')&&((*str) != '\n')&&((*str) != '#'))
//   63 	{
//   64 		if((*str == 0x20)||(*str == 0x09))
//   65 		{
//   66 			str++;
??mksGetParameter_1:
        ADDS     R4,R4,#+1
//   67 			continue;
//   68 		}
??mksGetParameter_0:
        LDRSB    R1,[R4, #+0]
        CMP      R1,#+13
        BEQ.N    ??mksGetParameter_2
        CMP      R1,#+10
        BEQ.N    ??mksGetParameter_2
        CMP      R1,#+35
        BEQ.N    ??mksGetParameter_2
        CMP      R1,#+32
        BEQ.N    ??mksGetParameter_1
        CMP      R1,#+9
        BEQ.N    ??mksGetParameter_1
//   69 		
//   70 		*p++ = *str++;
        LDRB     R1,[R4], #+1
        STRB     R1,[R0], #+1
//   71 		if((p- cmd_code) > CMD_CODE_LEN) 
        SUBS     R1,R0,R5
        CMP      R1,#+201
        BLT.N    ??mksGetParameter_0
//   72 			break;
//   73 	}
//   74 }
??mksGetParameter_2:
        POP      {R0,R4,R5,PC}    ;; return
          CFI EndBlock cfiBlock3
//   75 

        SECTION `.text`:CODE:NOROOT(1)
          CFI Block cfiBlock4 Using cfiCommon0
          CFI Function _Z22mksGetParameterToFlashPc
        THUMB
//   76 void mksGetParameterToFlash(char *str)
//   77 {
_Z22mksGetParameterToFlashPc:
        PUSH     {R3-R5,LR}
          CFI R14 Frame(CFA, -4)
          CFI R5 Frame(CFA, -8)
          CFI R4 Frame(CFA, -12)
          CFI CFA R13+16
        MOV      R4,R0
//   78 	char *p;
//   79 	memset(cmd_code,0,sizeof(cmd_code));
        LDR.W    R5,??DataTable249
        MOVS     R2,#+201
        MOVS     R1,#+0
        MOV      R0,R5
          CFI FunCall memset
        BL       memset
//   80 	p = cmd_code;
        MOV      R0,R5
//   81 	while(((*str) != '\r')&&((*str) != '\n')&&((*str) != '#'))
??mksGetParameterToFlash_0:
        LDRSB    R1,[R4, #+0]
        CMP      R1,#+13
        BEQ.N    ??mksGetParameterToFlash_1
        CMP      R1,#+10
        BEQ.N    ??mksGetParameterToFlash_1
        CMP      R1,#+35
        BEQ.N    ??mksGetParameterToFlash_1
//   82 	{		
//   83 		*p++ = *str++;
        LDRB     R1,[R4], #+1
        STRB     R1,[R0], #+1
//   84 		if((p- cmd_code) > CMD_CODE_LEN) 
        SUBS     R1,R0,R5
        CMP      R1,#+201
        BLT.N    ??mksGetParameterToFlash_0
//   85 			break;
//   86 	}
//   87 }
??mksGetParameterToFlash_1:
        POP      {R0,R4,R5,PC}    ;; return
          CFI EndBlock cfiBlock4
//   88 
//   89 

        SECTION `.text`:CODE:NOROOT(1)
          CFI Block cfiBlock5 Using cfiCommon0
          CFI Function _Z11mksCardTestv
        THUMB
//   90 void mksCardTest()
//   91 {
_Z11mksCardTestv:
        PUSH     {LR}
          CFI R14 Frame(CFA, -4)
          CFI CFA R13+4
        SUB      SP,SP,#+612
          CFI CFA R13+616
//   92 	char string[20]="clear_test_a";
        ADD      R0,SP,#+588
        ADR.W    R1,`?<Constant "clear_test_a">`
        MOVS     R2,#+20
          CFI FunCall __aeabi_memcpy4
        BL       __aeabi_memcpy4
//   93 	FIL pft;
//   94 	char *mks_pft_name = "mks_pft.sys";	//8.3 文件名结构
//   95 	
//   96 	char oldname[30]={0};
        ADD      R0,SP,#+0
        MOVS     R1,#+32
          CFI FunCall __aeabi_memclr4
        BL       __aeabi_memclr4
//   97 	strcat(oldname,SD_Path);
        LDR.W    R1,??DataTable249_1
        ADD      R0,SP,#+0
          CFI FunCall strcat
        BL       strcat
//   98 	strcat(oldname,mks_pft_name);
        ADR.W    R1,`?<Constant "mks_pft.sys">`
          CFI FunCall strcat
        BL       strcat
//   99 	
//  100 	if (f_open(&pft, (const TCHAR *)oldname, FA_CREATE_ALWAYS |  FA_WRITE) == FR_OK)
        MOVS     R2,#+10
        ADD      R1,SP,#+0
        ADD      R0,SP,#+32
          CFI FunCall f_open
        BL       f_open
        CMP      R0,#+0
        BNE.N    ??mksCardTest_0
//  101         {
//  102           f_printf(&pft,string);
        ADD      R1,SP,#+588
        ADD      R0,SP,#+32
          CFI FunCall f_printf
        BL       f_printf
//  103           f_close(&pft);
        ADD      R0,SP,#+32
          CFI FunCall f_close
        BL       f_close
//  104         }
//  105 
//  106 }
??mksCardTest_0:
        ADD      SP,SP,#+612
          CFI CFA R13+4
        POP      {PC}             ;; return
          CFI EndBlock cfiBlock5

        SECTION `.text`:CODE:NOROOT(2)
        SECTION_TYPE SHT_PROGBITS, 0
        DATA
`?<Constant "clear_test_a">`:
        DC8 "clear_test_a"
        DC8 0, 0, 0, 0, 0, 0, 0

        SECTION `.text`:CODE:NOROOT(2)
        SECTION_TYPE SHT_PROGBITS, 0
        DATA
`?<Constant "mks_pft.sys">`:
        DC8 "mks_pft.sys"
//  107 

        SECTION `.text`:CODE:NOROOT(1)
          CFI Block cfiBlock6 Using cfiCommon0
          CFI Function _ZN10CardReader16mksConfigurationEv
        THUMB
//  108 void CardReader::mksConfiguration() 
//  109 {
_ZN10CardReader16mksConfigurationEv:
        PUSH     {R4-R9,LR}
          CFI R14 Frame(CFA, -4)
          CFI R9 Frame(CFA, -8)
          CFI R8 Frame(CFA, -12)
          CFI R7 Frame(CFA, -16)
          CFI R6 Frame(CFA, -20)
          CFI R5 Frame(CFA, -24)
          CFI R4 Frame(CFA, -28)
          CFI CFA R13+28
        SUB      SP,SP,#+68
          CFI CFA R13+96
        MOV      R4,R0
//  110 	int16_t cfg_data;
//  111 	char *p;
//  112 	uint8_t notes_flag =0;
        MOVS     R5,#+0
//  113 	char oldname[30]={0};
        ADD      R0,SP,#+32
        MOVS     R1,#+32
          CFI FunCall __aeabi_memclr4
        BL       __aeabi_memclr4
//  114 	char newname[30]={0};
        ADD      R0,SP,#+0
        MOVS     R1,#+32
          CFI FunCall __aeabi_memclr4
        BL       __aeabi_memclr4
//  115 	FRESULT r;
//  116 
//  117 	//sdmount();
//  118 	strcat(oldname,SD_Path);
        LDR.W    R7,??DataTable249_1
        MOV      R1,R7
        ADD      R0,SP,#+32
          CFI FunCall strcat
        BL       strcat
//  119 	strcat(oldname,cfg_file);
        LDR.W    R6,??DataTable249_2
        LDR      R1,[R6, #+24]
          CFI FunCall strcat
        BL       strcat
//  120 
//  121 	if (f_open(&curFile, (const TCHAR *)oldname, FA_OPEN_EXISTING | FA_READ) == FR_OK)
        MOVS     R2,#+1
        ADD      R1,SP,#+32
        MOV      R0,R4
          CFI FunCall f_open
        BL       f_open
        CMP      R0,#+0
        BNE.W    ??mksConfiguration_0
//  122 	{
//  123       //filesize = file.fileSize();
//  124       filesize = f_size(&curFile);
        LDR      R0,[R4, #+524]
        STR      R0,[R4, #+1116]
//  125       SERIAL_PROTOCOLPAIR(MSG_SD_FILE_OPENED, cfg_file);
        LDR      R1,[R6, #+24]
        ADR.W    R0,`?<Constant "File opened: ">`
          CFI FunCall _Z17serial_echopair_PPKcS0_
        BL       _Z17serial_echopair_PPKcS0_
//  126       SERIAL_PROTOCOLLNPGM(".");
        ADR.N    R0,??DataTable243  ;; 0x2E, 0x0A, 0x00, 0x00
          CFI FunCall _Z14serialprintPGMPKc
        BL       _Z14serialprintPGMPKc
//  127       SERIAL_PROTOCOLLNPGM("Refresh eeprom...");
        ADR.W    R0,`?<Constant "Refresh eeprom...\\n">`
          CFI FunCall _Z14serialprintPGMPKc
        BL       _Z14serialprintPGMPKc
//  128 	  
//  129 	  SPI_FLASH_SectorErase(SD_INF_ADDR);
        MOV      R0,R5
          CFI FunCall SPI_FLASH_SectorErase
        BL       SPI_FLASH_SectorErase
//  130 	  SPI_FLASH_SectorErase(1024*4);
        MOV      R0,#+4096
          CFI FunCall SPI_FLASH_SectorErase
        BL       SPI_FLASH_SectorErase
//  131 
//  132 	 mksReset();
        MOV      R0,R4
          CFI FunCall _ZN10CardReader8mksResetEv
        BL       _ZN10CardReader8mksResetEv
//  133 	 (void)settings.reset();	//Marlin默认参数值恢复
          CFI FunCall _ZN14MarlinSettings5resetEv
        BL       _ZN14MarlinSettings5resetEv
//  134 	  memset(cfg_buf,0,sizeof(cfg_buf));
        MOVW     R8,#+1025
        MOV      R2,R8
        MOV      R1,R5
        ADD      R0,R6,#+32
          CFI FunCall memset
        BL       memset
//  135 	  p = cfg_buf;
        ADD      R9,R6,#+32
        B.N      ??mksConfiguration_1
//  136 	  while(1)
//  137 	  {
//  138 	  	//cfg_data = (int16_t)file.read();
//  139         cfg_data = (int16_t)get();
//  140 		if(cfg_data == -1 || sdpos >= filesize)	
//  141 		{
//  142 			*p++ = 0x0A; 
//  143 			mksEepromRefresh();
//  144 			break;
//  145 		}
//  146 		#if tan_mask//定制指令是需要空格的。
//  147 		//去掉空格
//  148 		if(cfg_data != 0x20 && cfg_data != 0x09)	//0x20 -- 空格； 0x09--水平制表符
//  149 		#endif
//  150 		{
//  151 			if(notes_flag == 0)
??mksConfiguration_2:
        CMP      R5,#+0
        BNE.N    ??mksConfiguration_3
//  152 	  			*p++ = (uint8_t)cfg_data;
        STRB     R0,[R9], #+1
//  153 		}
//  154 		
//  155 		//去掉注释,保留"#"
//  156 		if(cfg_data == 0x23 && notes_flag == 0)         // "#"
??mksConfiguration_3:
        CMP      R0,#+35
        BNE.N    ??mksConfiguration_4
        CMP      R5,#+0
        BNE.N    ??mksConfiguration_4
//  157 		{
//  158 				notes_flag = 1;
        MOVS     R5,#+1
//  159 		}
//  160 		if((cfg_data == 0x0A || cfg_data == 0x0D) && notes_flag == 1)  // 换行 ,回车
??mksConfiguration_4:
        CMP      R0,#+10
        BEQ.N    ??mksConfiguration_5
        CMP      R0,#+13
        BNE.N    ??mksConfiguration_6
??mksConfiguration_5:
        CMP      R5,#+1
        BNE.N    ??mksConfiguration_6
//  161 		{
//  162 				notes_flag = 0;
        MOVS     R5,#+0
//  163 				*p++ = (uint8_t)cfg_data;					
        STRB     R0,[R9], #+1
//  164 		}
//  165 		//分段进行配置
//  166 		if((cfg_data == 0x0A || cfg_data == 0x0D) && ((p-cfg_buf) > (CFG_BUF_LEN-200)))  
??mksConfiguration_6:
        CMP      R0,#+10
        BEQ.N    ??mksConfiguration_7
        CMP      R0,#+13
        BNE.N    ??mksConfiguration_1
??mksConfiguration_7:
        ADD      R0,R6,#+32
        SUB      R0,R9,R0
        CMP      R0,#+824
        BLE.N    ??mksConfiguration_1
//  167 		{
//  168 			mksEepromRefresh();
        MOV      R0,R4
          CFI FunCall _ZN10CardReader16mksEepromRefreshEv
        BL       _ZN10CardReader16mksEepromRefreshEv
//  169 			memset(cfg_buf,0,sizeof(cfg_buf));
        MOV      R2,R8
        MOVS     R1,#+0
        ADD      R0,R6,#+32
          CFI FunCall memset
        BL       memset
//  170 			p=cfg_buf;
        ADD      R9,R6,#+32
//  171             notes_flag = 0;
        MOVS     R5,#+0
//  172 		}
??mksConfiguration_1:
        MOV      R0,R4
          CFI FunCall _ZN10CardReader3getEv
        BL       _ZN10CardReader3getEv
        CMN      R0,#+1
        BEQ.N    ??mksConfiguration_8
        LDR      R1,[R4, #+1120]
        LDR      R2,[R4, #+1116]
        CMP      R1,R2
        BCC.N    ??mksConfiguration_2
??mksConfiguration_8:
        MOVS     R0,#+10
        STRB     R0,[R9, #+0]
        MOV      R0,R4
          CFI FunCall _ZN10CardReader16mksEepromRefreshEv
        BL       _ZN10CardReader16mksEepromRefreshEv
//  173 	  }
//  174 
//  175 
//  176 	  f_close(&curFile);
        MOV      R0,R4
          CFI FunCall f_close
        BL       f_close
//  177 
//  178 
//  179 	  strcat(newname,SD_Path);
        MOV      R1,R7
        ADD      R0,SP,#+0
          CFI FunCall strcat
        BL       strcat
//  180 	  strcat(newname,cfg_file_cur);
        LDR      R1,[R6, #+28]
          CFI FunCall strcat
        BL       strcat
//  181 
//  182 	  if(!mksTmp.cfg_hardware_test_enable)  //更改文件名
        LDRB     R0,[R6, #+19]
        CMP      R0,#+0
        BNE.N    ??mksConfiguration_9
//  183 	  	{
//  184 		  r = f_unlink(newname);
        ADD      R0,SP,#+0
          CFI FunCall f_unlink
        BL       f_unlink
//  185 		  r = f_rename(oldname,newname);
        ADD      R1,SP,#+0
        ADD      R0,SP,#+32
          CFI FunCall f_rename
        BL       f_rename
//  186 	  	}
//  187 
//  188 	  if(mksCfg.machinetype < 0 ||	mksCfg.machinetype > 9)   mksCfg.machinetype = 0;
??mksConfiguration_9:
        LDR.W    R0,??DataTable249_3
        ADD      R1,R0,#+752
        LDRSH    R2,[R1, #+24]
        CMP      R2,#+10
        BCC.N    ??mksConfiguration_10
        MOVS     R2,#+0
        STRH     R2,[R1, #+24]
//  189 	  mksCfg.machinetype = (1<<mksCfg.machinetype);
??mksConfiguration_10:
        MOVS     R2,#+1
        LDRH     R3,[R1, #+24]
        LSL      R3,R2,R3
        STRH     R3,[R1, #+24]
//  190 
//  191 	if(mksCfg.bed_leveling_method > 5)	mksCfg.bed_leveling_method = 0;
        LDRB     R3,[R0, #+752]
        CMP      R3,#+6
        BLT.N    ??mksConfiguration_11
        MOVS     R3,#+0
        STRB     R3,[R0, #+752]
//  192 	  mksCfg.bed_leveling_method = (1<<mksCfg.bed_leveling_method);
??mksConfiguration_11:
        LDRSB    R3,[R0, #+752]
        LSLS     R2,R2,R3
        STRB     R2,[R0, #+752]
//  193 
//  194 	if((mksCfg.machinetype == DELTA)&&(mksCfg.bed_leveling_method==MESH_BED_LEVELING))  
        LDRSH    R1,[R1, #+24]
        CMP      R1,#+2
        BNE.N    ??mksConfiguration_12
        LDRB     R1,[R0, #+752]
        CMP      R1,#+32
        BNE.N    ??mksConfiguration_12
//  195     {
//  196         mksCfg.bed_leveling_method = AUTO_BED_LEVELING_BILINEAR;
        MOVS     R1,#+8
        STRB     R1,[R0, #+752]
//  197     }
//  198 
//  199       //开启了双Z轴，双Z限位，
//  200       //由于硬件接口不够,强制禁用调平功能.
//  201       if((mksCfg.z2_enable==1)&&(mksCfg.z2_endstops_enable==1))
??mksConfiguration_12:
        LDRB     R1,[R0, #+945]
        CMP      R1,#+1
        BNE.N    ??mksConfiguration_13
        LDRB     R1,[R0, #+946]
        CMP      R1,#+1
        BNE.N    ??mksConfiguration_13
//  202       {
//  203         mksCfg.bed_leveling_method = 0;
        MOVS     R1,#+0
        STRB     R1,[R0, #+752]
//  204         epr_write_data(EPR_BED_LEVELING_METHOD, &mksCfg.bed_leveling_method,1);
        MOVS     R2,#+1
        ADD      R1,R0,#+752
        MOVW     R0,#+1516
          CFI FunCall epr_write_data
        BL       epr_write_data
//  205       }
//  206     
//  207 	  (void)settings.save();	//保存参数
??mksConfiguration_13:
          CFI FunCall _ZN14MarlinSettings4saveEv
        BL       _ZN14MarlinSettings4saveEv
//  208 	  SERIAL_PROTOCOLLNPGM("Refresh done!");  
        ADR.W    R0,`?<Constant "Refresh done!\\n">`
          CFI FunCall _Z14serialprintPGMPKc
        BL       _Z14serialprintPGMPKc
        B.N      ??mksConfiguration_14
//  209     }
//  210     else {
//  211       SERIAL_PROTOCOLPAIR(MSG_SD_OPEN_FILE_FAIL, cfg_file);
??mksConfiguration_0:
        LDR      R1,[R6, #+24]
        ADR.W    R0,`?<Constant "open failed, File: ">`
          CFI FunCall _Z17serial_echopair_PPKcS0_
        BL       _Z17serial_echopair_PPKcS0_
//  212       SERIAL_PROTOCOLCHAR('.');
        LDR.W    R4,??DataTable249_4
        MOVS     R1,#+46
        MOV      R0,R4
          CFI FunCall _ZN10USARTClass5writeEh
        BL       _ZN10USARTClass5writeEh
//  213       SERIAL_EOL();
        MOVS     R1,#+10
        MOV      R0,R4
          CFI FunCall _ZN10USARTClass5writeEh
        BL       _ZN10USARTClass5writeEh
//  214     }
//  215 }
??mksConfiguration_14:
        ADD      SP,SP,#+68
          CFI CFA R13+28
        POP      {R4-R9,PC}       ;; return
          CFI EndBlock cfiBlock6

        SECTION `.text`:CODE:NOROOT(2)
        SECTION_TYPE SHT_PROGBITS, 0
        DATA
`?<Constant "File opened: ">`:
        DC8 "File opened: "
        DC8 0, 0

        SECTION `.text`:CODE:NOROOT(2)
        SECTION_TYPE SHT_PROGBITS, 0
        DATA
`?<Constant "Refresh eeprom...\\n">`:
        DC8 "Refresh eeprom...\012"
        DC8 0

        SECTION `.text`:CODE:NOROOT(2)
        SECTION_TYPE SHT_PROGBITS, 0
        DATA
`?<Constant "Refresh done!\\n">`:
        DC8 "Refresh done!\012"
        DC8 0

        SECTION `.text`:CODE:NOROOT(2)
        SECTION_TYPE SHT_PROGBITS, 0
        DATA
`?<Constant "open failed, File: ">`:
        DC8 "open failed, File: "
//  216 
//  217 

        SECTION `.text`:CODE:NOROOT(1)
          CFI Block cfiBlock7 Using cfiCommon0
          CFI Function _Z9ascii2decPcc
          CFI NoCalls
        THUMB
//  218 int ascii2dec(char *ascii, char width)
//  219 {
_Z9ascii2decPcc:
        PUSH     {R4-R6}
          CFI R6 Frame(CFA, -4)
          CFI R5 Frame(CFA, -8)
          CFI R4 Frame(CFA, -12)
          CFI CFA R13+12
//  220 	int i = 0;
        MOVS     R3,#+0
//  221 	int result = 0;
        MOV      R2,R3
//  222 
//  223 	if(ascii == 0)
        CMP      R0,#+0
        BNE.N    ??ascii2dec_0
//  224 		return 0;
//  225 	
//  226 	while(i < width)
//  227 	{		
//  228 		result = result << 4;
//  229 		
//  230 		if(*(ascii + i) >= '0' && *(ascii + i) <= '9')
//  231 			result += *(ascii + i) - '0';
//  232 		else if(*(ascii + i) >= 'a' && *(ascii + i) <= 'f')
//  233 			result += *(ascii + i) - 'a' + 0x0a;
//  234 		else if(*(ascii + i) >= 'A' && *(ascii + i) <= 'F')
//  235 			result += *(ascii + i) - 'A' + 0x0a;
//  236 		else
//  237 			return 0;
??ascii2dec_1:
        MOVS     R0,#+0
        B.N      ??ascii2dec_2
??ascii2dec_3:
        SUBS     R4,R4,#+48
        ADDS     R2,R4,R2, LSL #+4
//  238 		
//  239 		i++;
??ascii2dec_4:
        ADDS     R3,R3,#+1
??ascii2dec_0:
        CMP      R3,R1
        BGE.N    ??ascii2dec_5
        LDRSB    R4,[R3, R0]
        MOV      R5,R4
        SUB      R6,R5,#+48
        CMP      R6,#+10
        BCC.N    ??ascii2dec_3
        SUB      R6,R5,#+97
        CMP      R6,#+6
        BCS.N    ??ascii2dec_6
        SUBS     R4,R4,#+87
        ADDS     R2,R4,R2, LSL #+4
        B.N      ??ascii2dec_4
??ascii2dec_6:
        SUBS     R5,R5,#+65
        CMP      R5,#+6
        BCS.N    ??ascii2dec_1
        SUBS     R4,R4,#+55
        ADDS     R2,R4,R2, LSL #+4
        B.N      ??ascii2dec_4
//  240 	}
//  241 	return result;
??ascii2dec_5:
        MOV      R0,R2
??ascii2dec_2:
        POP      {R4-R6}
          CFI R4 SameValue
          CFI R5 SameValue
          CFI R6 SameValue
          CFI CFA R13+0
        BX       LR               ;; return
          CFI EndBlock cfiBlock7
//  242 }
//  243 
//  244 

        SECTION `.text`:CODE:NOROOT(1)
          CFI Block cfiBlock8 Using cfiCommon0
          CFI Function _Z7mksSwapPfS_
          CFI NoCalls
        THUMB
//  245 void mksSwap(float *src,float *dst)
//  246 {
//  247 	float *temp;
//  248 	*temp = *src;
_Z7mksSwapPfS_:
        LDR      R3,[R0, #+0]
        STR      R3,[R2, #+0]
//  249 	*src = *dst;
        LDR      R3,[R1, #+0]
        STR      R3,[R0, #+0]
//  250 	*dst = *temp;
        LDR      R0,[R2, #+0]
        STR      R0,[R1, #+0]
//  251 }
        BX       LR               ;; return
          CFI EndBlock cfiBlock8
//  252 

        SECTION `.text`:CODE:NOROOT(1)
          CFI Block cfiBlock9 Using cfiCommon0
          CFI Function _Z12eprBurnValuePcPf
        THUMB
//  253 void eprBurnValue(char *string, float *data_addr)
//  254 {
_Z12eprBurnValuePcPf:
        PUSH     {R3-R7,LR}
          CFI R14 Frame(CFA, -4)
          CFI R7 Frame(CFA, -8)
          CFI R6 Frame(CFA, -12)
          CFI R5 Frame(CFA, -16)
          CFI R4 Frame(CFA, -20)
          CFI CFA R13+24
        MOV      R4,R0
        MOV      R5,R1
//  255   	char *tmp_index;
//  256 	tmp_index = (char *)strstr(cfg_buf, string);
        LDR.N    R6,??DataTable249_2
        MOV      R1,R4
        ADD      R0,R6,#+32
          CFI FunCall _Z6strstrPcPKc
        BL       _Z6strstrPcPKc
        MOVS     R7,R0
//  257 	if(tmp_index)
        BEQ.N    ??eprBurnValue_0
//  258 		{
//  259 		tmp_index += strlen(string);
        MOV      R0,R4
          CFI FunCall strlen
        BL       strlen
        ADDS     R7,R0,R7
//  260 		mksGetParameter(tmp_index);	
        MOV      R0,R7
          CFI FunCall _Z15mksGetParameterPc
        BL       _Z15mksGetParameterPc
//  261 		*data_addr = atof(cmd_code);
        ADDW     R0,R6,#+1060
          CFI FunCall atof
        BL       atof
          CFI FunCall __aeabi_d2f
        BL       __aeabi_d2f
        STR      R0,[R5, #+0]
//  262 		}
//  263 }
??eprBurnValue_0:
        POP      {R0,R4-R7,PC}    ;; return
          CFI EndBlock cfiBlock9

        SECTION `.text`:CODE:NOROOT(1)
          CFI Block cfiBlock10 Using cfiCommon0
          CFI Function _Z12eprBurnValuePcPj
        THUMB
//  264 void eprBurnValue(char *string, uint32_t *data_addr)
//  265 {
_Z12eprBurnValuePcPj:
        PUSH     {R3-R7,LR}
          CFI R14 Frame(CFA, -4)
          CFI R7 Frame(CFA, -8)
          CFI R6 Frame(CFA, -12)
          CFI R5 Frame(CFA, -16)
          CFI R4 Frame(CFA, -20)
          CFI CFA R13+24
        MOV      R4,R0
        MOV      R5,R1
//  266   	char *tmp_index;
//  267 	tmp_index = (char *)strstr(cfg_buf, string);
        LDR.N    R6,??DataTable249_2
        MOV      R1,R4
        ADD      R0,R6,#+32
          CFI FunCall _Z6strstrPcPKc
        BL       _Z6strstrPcPKc
        MOVS     R7,R0
//  268 	if(tmp_index)
        BEQ.N    ??eprBurnValue_1
//  269 		{
//  270 		tmp_index += strlen(string);
        MOV      R0,R4
          CFI FunCall strlen
        BL       strlen
        ADDS     R7,R0,R7
//  271 		mksGetParameter(tmp_index);	
        MOV      R0,R7
          CFI FunCall _Z15mksGetParameterPc
        BL       _Z15mksGetParameterPc
//  272 		*data_addr = atoi(cmd_code);
        ADDW     R0,R6,#+1060
          CFI FunCall atoi
        BL       atoi
        STR      R0,[R5, #+0]
//  273 		}
//  274 }
??eprBurnValue_1:
        POP      {R0,R4-R7,PC}    ;; return
          CFI EndBlock cfiBlock10

        SECTION `.text`:CODE:NOROOT(1)
          CFI Block cfiBlock11 Using cfiCommon0
          CFI Function _Z12eprBurnValuePcPft
        THUMB
//  275 void eprBurnValue(char *string, float *data_addr, uint16_t epr_addr)
//  276 {
_Z12eprBurnValuePcPft:
        PUSH     {R4-R8,LR}
          CFI R14 Frame(CFA, -4)
          CFI R8 Frame(CFA, -8)
          CFI R7 Frame(CFA, -12)
          CFI R6 Frame(CFA, -16)
          CFI R5 Frame(CFA, -20)
          CFI R4 Frame(CFA, -24)
          CFI CFA R13+24
        MOV      R4,R0
        MOV      R5,R1
        MOV      R6,R2
//  277   	char *tmp_index;
//  278 	tmp_index = (char *)strstr(cfg_buf, string);
        LDR.N    R7,??DataTable249_2
        MOV      R1,R4
        ADD      R0,R7,#+32
          CFI FunCall _Z6strstrPcPKc
        BL       _Z6strstrPcPKc
        MOV      R8,R0
//  279 	if(tmp_index)
        CMP      R8,#+0
        BEQ.N    ??eprBurnValue_2
//  280 		{
//  281 		tmp_index += strlen(string);
        MOV      R0,R4
          CFI FunCall strlen
        BL       strlen
        ADD      R8,R0,R8
//  282 		mksGetParameter(tmp_index);	
        MOV      R0,R8
          CFI FunCall _Z15mksGetParameterPc
        BL       _Z15mksGetParameterPc
//  283 		*data_addr = atof(cmd_code);
        ADDW     R0,R7,#+1060
          CFI FunCall atof
        BL       atof
          CFI FunCall __aeabi_d2f
        BL       __aeabi_d2f
        STR      R0,[R5, #+0]
//  284 		epr_write_data(epr_addr, (uint8_t *)data_addr,sizeof(float));
        MOVS     R2,#+4
        MOV      R1,R5
        MOV      R0,R6
        POP      {R4-R8,LR}
          CFI R4 SameValue
          CFI R5 SameValue
          CFI R6 SameValue
          CFI R7 SameValue
          CFI R8 SameValue
          CFI R14 SameValue
          CFI CFA R13+0
          CFI FunCall epr_write_data
        B.W      epr_write_data
          CFI R4 Frame(CFA, -24)
          CFI R5 Frame(CFA, -20)
          CFI R6 Frame(CFA, -16)
          CFI R7 Frame(CFA, -12)
          CFI R8 Frame(CFA, -8)
          CFI R14 Frame(CFA, -4)
          CFI CFA R13+24
//  285 		}
//  286 }
??eprBurnValue_2:
        POP      {R4-R8,PC}       ;; return
          CFI EndBlock cfiBlock11
//  287 

        SECTION `.text`:CODE:NOROOT(1)
          CFI Block cfiBlock12 Using cfiCommon0
          CFI Function _Z12eprBurnValuePcPht
        THUMB
//  288 void eprBurnValue(char *string, uint8_t *data_addr, uint16_t epr_addr)
//  289 {
_Z12eprBurnValuePcPht:
        PUSH     {R4-R8,LR}
          CFI R14 Frame(CFA, -4)
          CFI R8 Frame(CFA, -8)
          CFI R7 Frame(CFA, -12)
          CFI R6 Frame(CFA, -16)
          CFI R5 Frame(CFA, -20)
          CFI R4 Frame(CFA, -24)
          CFI CFA R13+24
        MOV      R4,R0
        MOV      R5,R1
        MOV      R6,R2
//  290   	char *tmp_index;
//  291 	tmp_index = (char *)strstr(cfg_buf, string);
        LDR.N    R7,??DataTable249_2
        MOV      R1,R4
        ADD      R0,R7,#+32
          CFI FunCall _Z6strstrPcPKc
        BL       _Z6strstrPcPKc
        MOV      R8,R0
//  292 	if(tmp_index)
        CMP      R8,#+0
        BEQ.N    ??eprBurnValue_3
//  293 		{
//  294 		tmp_index += strlen(string);
        MOV      R0,R4
          CFI FunCall strlen
        BL       strlen
        ADD      R8,R0,R8
//  295 		mksGetParameter(tmp_index);	
        MOV      R0,R8
          CFI FunCall _Z15mksGetParameterPc
        BL       _Z15mksGetParameterPc
//  296 		*data_addr = atoi(cmd_code);
        ADDW     R0,R7,#+1060
          CFI FunCall atoi
        BL       atoi
        STRB     R0,[R5, #+0]
//  297 		epr_write_data(epr_addr, data_addr,1);
        MOVS     R2,#+1
        MOV      R1,R5
        MOV      R0,R6
        POP      {R4-R8,LR}
          CFI R4 SameValue
          CFI R5 SameValue
          CFI R6 SameValue
          CFI R7 SameValue
          CFI R8 SameValue
          CFI R14 SameValue
          CFI CFA R13+0
          CFI FunCall epr_write_data
        B.W      epr_write_data
          CFI R4 Frame(CFA, -24)
          CFI R5 Frame(CFA, -20)
          CFI R6 Frame(CFA, -16)
          CFI R7 Frame(CFA, -12)
          CFI R8 Frame(CFA, -8)
          CFI R14 Frame(CFA, -4)
          CFI CFA R13+24
//  298 		}
//  299 }
??eprBurnValue_3:
        POP      {R4-R8,PC}       ;; return
          CFI EndBlock cfiBlock12

        SECTION `.text`:CODE:NOROOT(2)
        SECTION_TYPE SHT_PROGBITS, 0
        DATA
??DataTable243:
        DC8      0x2E, 0x0A, 0x00, 0x00

        SECTION `.text`:CODE:NOROOT(1)
          CFI Block cfiBlock13 Using cfiCommon0
          CFI Function _Z12eprBurnValuePcPst
        THUMB
//  300 void eprBurnValue(char *string, int16_t *data_addr, uint16_t epr_addr)
//  301 {
_Z12eprBurnValuePcPst:
        PUSH     {R4-R8,LR}
          CFI R14 Frame(CFA, -4)
          CFI R8 Frame(CFA, -8)
          CFI R7 Frame(CFA, -12)
          CFI R6 Frame(CFA, -16)
          CFI R5 Frame(CFA, -20)
          CFI R4 Frame(CFA, -24)
          CFI CFA R13+24
        MOV      R4,R0
        MOV      R5,R1
        MOV      R6,R2
//  302   	char *tmp_index;
//  303 	tmp_index = (char *)strstr(cfg_buf, string);
        LDR.N    R7,??DataTable249_2
        MOV      R1,R4
        ADD      R0,R7,#+32
          CFI FunCall _Z6strstrPcPKc
        BL       _Z6strstrPcPKc
        MOV      R8,R0
//  304 	if(tmp_index)
        CMP      R8,#+0
        BEQ.N    ??eprBurnValue_4
//  305 		{
//  306 		tmp_index += strlen(string);
        MOV      R0,R4
          CFI FunCall strlen
        BL       strlen
        ADD      R8,R0,R8
//  307 		mksGetParameter(tmp_index);	
        MOV      R0,R8
          CFI FunCall _Z15mksGetParameterPc
        BL       _Z15mksGetParameterPc
//  308 		*data_addr = atoi(cmd_code);
        ADDW     R0,R7,#+1060
          CFI FunCall atoi
        BL       atoi
        STRH     R0,[R5, #+0]
//  309 		epr_write_data(epr_addr, (uint8_t *)data_addr,sizeof(int16_t));
        MOVS     R2,#+2
        MOV      R1,R5
        MOV      R0,R6
        POP      {R4-R8,LR}
          CFI R4 SameValue
          CFI R5 SameValue
          CFI R6 SameValue
          CFI R7 SameValue
          CFI R8 SameValue
          CFI R14 SameValue
          CFI CFA R13+0
          CFI FunCall epr_write_data
        B.W      epr_write_data
          CFI R4 Frame(CFA, -24)
          CFI R5 Frame(CFA, -20)
          CFI R6 Frame(CFA, -16)
          CFI R7 Frame(CFA, -12)
          CFI R8 Frame(CFA, -8)
          CFI R14 Frame(CFA, -4)
          CFI CFA R13+24
//  310 		}
//  311 }
??eprBurnValue_4:
        POP      {R4-R8,PC}       ;; return
          CFI EndBlock cfiBlock13

        SECTION `.text`:CODE:NOROOT(1)
          CFI Block cfiBlock14 Using cfiCommon0
          CFI Function _Z12eprBurnValuePcPit
        THUMB
//  312 void eprBurnValue(char *string, int32_t *data_addr, uint16_t epr_addr)
//  313 {
_Z12eprBurnValuePcPit:
        PUSH     {R4-R8,LR}
          CFI R14 Frame(CFA, -4)
          CFI R8 Frame(CFA, -8)
          CFI R7 Frame(CFA, -12)
          CFI R6 Frame(CFA, -16)
          CFI R5 Frame(CFA, -20)
          CFI R4 Frame(CFA, -24)
          CFI CFA R13+24
        MOV      R4,R0
        MOV      R5,R1
        MOV      R6,R2
//  314   	char *tmp_index;
//  315 	tmp_index = (char *)strstr(cfg_buf, string);
        LDR.N    R7,??DataTable249_2
        MOV      R1,R4
        ADD      R0,R7,#+32
          CFI FunCall _Z6strstrPcPKc
        BL       _Z6strstrPcPKc
        MOV      R8,R0
//  316 	if(tmp_index)
        CMP      R8,#+0
        BEQ.N    ??eprBurnValue_5
//  317 		{
//  318 		tmp_index += strlen(string);
        MOV      R0,R4
          CFI FunCall strlen
        BL       strlen
        ADD      R8,R0,R8
//  319 		mksGetParameter(tmp_index);	
        MOV      R0,R8
          CFI FunCall _Z15mksGetParameterPc
        BL       _Z15mksGetParameterPc
//  320 		*data_addr = atoi(cmd_code);
        ADDW     R0,R7,#+1060
          CFI FunCall atoi
        BL       atoi
        STR      R0,[R5, #+0]
//  321 		epr_write_data(epr_addr, (uint8_t *)data_addr,sizeof(int32_t));
        MOVS     R2,#+4
        MOV      R1,R5
        MOV      R0,R6
        POP      {R4-R8,LR}
          CFI R4 SameValue
          CFI R5 SameValue
          CFI R6 SameValue
          CFI R7 SameValue
          CFI R8 SameValue
          CFI R14 SameValue
          CFI CFA R13+0
          CFI FunCall epr_write_data
        B.W      epr_write_data
          CFI R4 Frame(CFA, -24)
          CFI R5 Frame(CFA, -20)
          CFI R6 Frame(CFA, -16)
          CFI R7 Frame(CFA, -12)
          CFI R8 Frame(CFA, -8)
          CFI R14 Frame(CFA, -4)
          CFI CFA R13+24
//  322 		}
//  323 }
??eprBurnValue_5:
        POP      {R4-R8,PC}       ;; return
          CFI EndBlock cfiBlock14
//  324 

        SECTION `.text`:CODE:NOROOT(1)
          CFI Block cfiBlock15 Using cfiCommon0
          CFI Function _Z14flashBurnValuePct
        THUMB
//  325 void flashBurnValue(char *string,uint16_t flash_addr)
//  326 {
_Z14flashBurnValuePct:
        PUSH     {R3-R7,LR}
          CFI R14 Frame(CFA, -4)
          CFI R7 Frame(CFA, -8)
          CFI R6 Frame(CFA, -12)
          CFI R5 Frame(CFA, -16)
          CFI R4 Frame(CFA, -20)
          CFI CFA R13+24
        MOV      R4,R0
        MOV      R5,R1
//  327   	char *tmp_index;
//  328 	tmp_index = (char *)strstr(cfg_buf, string);
        LDR.N    R6,??DataTable249_2
        MOV      R1,R4
        ADD      R0,R6,#+32
          CFI FunCall _Z6strstrPcPKc
        BL       _Z6strstrPcPKc
        MOVS     R7,R0
//  329 	if(tmp_index)
        BEQ.N    ??flashBurnValue_0
//  330 	{
//  331 		tmp_index += strlen(string);
        MOV      R0,R4
          CFI FunCall strlen
        BL       strlen
        ADDS     R7,R0,R7
//  332 		mksGetParameterToFlash(tmp_index);	
        MOV      R0,R7
          CFI FunCall _Z22mksGetParameterToFlashPc
        BL       _Z22mksGetParameterToFlashPc
//  333 		SPI_FLASH_BufferWrite((u8 *)cmd_code, flash_addr,strlen(cmd_code)+1);//加1保证最后一个字节为0
        ADDW     R4,R6,#+1060
        MOV      R0,R4
          CFI FunCall strlen
        BL       strlen
        ADDS     R2,R0,#+1
        UXTH     R2,R2
        MOV      R1,R5
        MOV      R0,R4
        POP      {R3-R7,LR}
          CFI R4 SameValue
          CFI R5 SameValue
          CFI R6 SameValue
          CFI R7 SameValue
          CFI R14 SameValue
          CFI CFA R13+0
          CFI FunCall SPI_FLASH_BufferWrite
        B.W      SPI_FLASH_BufferWrite
          CFI R4 Frame(CFA, -20)
          CFI R5 Frame(CFA, -16)
          CFI R6 Frame(CFA, -12)
          CFI R7 Frame(CFA, -8)
          CFI R14 Frame(CFA, -4)
          CFI CFA R13+24
//  334 	}
//  335 }
??flashBurnValue_0:
        POP      {R0,R4-R7,PC}    ;; return
          CFI EndBlock cfiBlock15
//  336 

        SECTION `.text`:CODE:NOROOT(1)
          CFI Block cfiBlock16 Using cfiCommon0
          CFI Function _Z12hexBurnValuePcPit
        THUMB
//  337 void hexBurnValue(char *string, int32_t *data_addr, uint16_t epr_addr)
//  338 {
_Z12hexBurnValuePcPit:
        PUSH     {R4-R8,LR}
          CFI R14 Frame(CFA, -4)
          CFI R8 Frame(CFA, -8)
          CFI R7 Frame(CFA, -12)
          CFI R6 Frame(CFA, -16)
          CFI R5 Frame(CFA, -20)
          CFI R4 Frame(CFA, -24)
          CFI CFA R13+24
        MOV      R4,R0
        MOV      R5,R1
        MOV      R6,R2
//  339   	char *tmp_index;
//  340 	tmp_index = (char *)strstr(cfg_buf, string);
        LDR.N    R7,??DataTable249_2
        MOV      R1,R4
        ADD      R0,R7,#+32
          CFI FunCall _Z6strstrPcPKc
        BL       _Z6strstrPcPKc
        MOV      R8,R0
//  341 	if(tmp_index)
        CMP      R8,#+0
        BEQ.N    ??hexBurnValue_0
//  342 	{
//  343 		tmp_index += strlen(string);
        MOV      R0,R4
          CFI FunCall strlen
        BL       strlen
        ADD      R8,R0,R8
//  344 		mksGetParameter(tmp_index);	
        MOV      R0,R8
          CFI FunCall _Z15mksGetParameterPc
        BL       _Z15mksGetParameterPc
//  345 		*data_addr = ascii2dec(&cmd_code[2],6);
        MOVS     R1,#+6
        ADDW     R0,R7,#+1062
          CFI FunCall _Z9ascii2decPcc
        BL       _Z9ascii2decPcc
        STR      R0,[R5, #+0]
//  346 		epr_write_data(epr_addr, (uint8_t *)data_addr,sizeof(int32_t));
        MOVS     R2,#+4
        MOV      R1,R5
        MOV      R0,R6
        POP      {R4-R8,LR}
          CFI R4 SameValue
          CFI R5 SameValue
          CFI R6 SameValue
          CFI R7 SameValue
          CFI R8 SameValue
          CFI R14 SameValue
          CFI CFA R13+0
          CFI FunCall epr_write_data
        B.W      epr_write_data
          CFI R4 Frame(CFA, -24)
          CFI R5 Frame(CFA, -20)
          CFI R6 Frame(CFA, -16)
          CFI R7 Frame(CFA, -12)
          CFI R8 Frame(CFA, -8)
          CFI R14 Frame(CFA, -4)
          CFI CFA R13+24
//  347 	}	
//  348 }
??hexBurnValue_0:
        POP      {R4-R8,PC}       ;; return
          CFI EndBlock cfiBlock16
//  349 

        SECTION `.text`:CODE:NOROOT(1)
          CFI Block cfiBlock17 Using cfiCommon0
          CFI Function _Z13hexBurnValue2PcPht
        THUMB
//  350 void hexBurnValue2(char *string,uint8_t *data_addr,uint16_t flash_addr)
//  351 {
_Z13hexBurnValue2PcPht:
        PUSH     {R4-R8,LR}
          CFI R14 Frame(CFA, -4)
          CFI R8 Frame(CFA, -8)
          CFI R7 Frame(CFA, -12)
          CFI R6 Frame(CFA, -16)
          CFI R5 Frame(CFA, -20)
          CFI R4 Frame(CFA, -24)
          CFI CFA R13+24
        MOV      R4,R0
        MOV      R5,R1
        MOV      R6,R2
//  352   	char *tmp_index;
//  353 	tmp_index = (char *)strstr(cfg_buf, string);
        LDR.N    R7,??DataTable249_2
        MOV      R1,R4
        ADD      R0,R7,#+32
          CFI FunCall _Z6strstrPcPKc
        BL       _Z6strstrPcPKc
        MOV      R8,R0
//  354 	if(tmp_index)
        CMP      R8,#+0
        BEQ.N    ??hexBurnValue2_0
//  355 	{
//  356 		tmp_index += strlen(string);
        MOV      R0,R4
          CFI FunCall strlen
        BL       strlen
        ADD      R8,R0,R8
//  357 		mksGetParameter(tmp_index);	
        MOV      R0,R8
          CFI FunCall _Z15mksGetParameterPc
        BL       _Z15mksGetParameterPc
//  358 		*data_addr = ascii2dec(&cmd_code[2],2);
        MOVS     R1,#+2
        ADDW     R0,R7,#+1062
          CFI FunCall _Z9ascii2decPcc
        BL       _Z9ascii2decPcc
        STRB     R0,[R5, #+0]
//  359 		//epr_write_data(epr_addr, (uint8_t *)data_addr,sizeof(uint8_t));
//  360 		SPI_FLASH_BufferWrite((u8 *)data_addr, flash_addr,1);//加1保证最后一个字节为0
        MOVS     R2,#+1
        MOV      R1,R6
        MOV      R0,R5
        POP      {R4-R8,LR}
          CFI R4 SameValue
          CFI R5 SameValue
          CFI R6 SameValue
          CFI R7 SameValue
          CFI R8 SameValue
          CFI R14 SameValue
          CFI CFA R13+0
          CFI FunCall SPI_FLASH_BufferWrite
        B.W      SPI_FLASH_BufferWrite
          CFI R4 Frame(CFA, -24)
          CFI R5 Frame(CFA, -20)
          CFI R6 Frame(CFA, -16)
          CFI R7 Frame(CFA, -12)
          CFI R8 Frame(CFA, -8)
          CFI R14 Frame(CFA, -4)
          CFI CFA R13+24
//  361 		//SPI_FLASH_BufferRead((u8*)&gCfgItems.overturn_180,DISP_ROTATION_180_ADDR,1);
//  362 	}	
//  363 }
??hexBurnValue2_0:
        POP      {R4-R8,PC}       ;; return
          CFI EndBlock cfiBlock17
//  364 

        SECTION `.text`:CODE:NOROOT(1)
          CFI Block cfiBlock18 Using cfiCommon0
          CFI Function _Z21eprBurnValue_levelingPcPiS0_tt
        THUMB
//  365 void eprBurnValue_leveling(char *string, int32_t *data_addr_x, int32_t *data_addr_y,uint16_t epr_addr_x,uint16_t epr_addr_y)
//  366 {
_Z21eprBurnValue_levelingPcPiS0_tt:
        PUSH     {R3-R9,LR}
          CFI R14 Frame(CFA, -4)
          CFI R9 Frame(CFA, -8)
          CFI R8 Frame(CFA, -12)
          CFI R7 Frame(CFA, -16)
          CFI R6 Frame(CFA, -20)
          CFI R5 Frame(CFA, -24)
          CFI R4 Frame(CFA, -28)
          CFI CFA R13+32
        MOV      R7,R0
        MOV      R4,R1
        MOV      R5,R2
        MOV      R6,R3
//  367   	char *tmp_index;
//  368 	char *p;
//  369 	
//  370 	tmp_index = (char *)strstr(cfg_buf, string);
        LDR.W    R9,??DataTable249_2
        MOV      R1,R7
        ADD      R0,R9,#+32
          CFI FunCall _Z6strstrPcPKc
        BL       _Z6strstrPcPKc
        MOV      R8,R0
//  371 	if(tmp_index)
        CMP      R8,#+0
        BEQ.N    ??eprBurnValue_leveling_0
//  372 	{
//  373 		tmp_index += strlen(string);
        MOV      R0,R7
          CFI FunCall strlen
        BL       strlen
        ADD      R8,R0,R8
//  374 		mksGetParameter(tmp_index);
        MOV      R0,R8
          CFI FunCall _Z15mksGetParameterPc
        BL       _Z15mksGetParameterPc
//  375 
//  376 		
//  377 		memset(cmd_code,0,sizeof(cmd_code));
        ADDW     R7,R9,#+1060
        MOVS     R2,#+201
        MOVS     R1,#+0
        MOV      R0,R7
          CFI FunCall memset
        BL       memset
//  378 		p = cmd_code;
        MOV      R0,R7
//  379 		while(((*tmp_index) != ','))
??eprBurnValue_leveling_1:
        LDRSB    R1,[R8, #+0]
        CMP      R1,#+44
        BEQ.N    ??eprBurnValue_leveling_2
//  380 		{
//  381 			*p++ = *tmp_index++;
        LDRB     R1,[R8], #+1
        STRB     R1,[R0], #+1
//  382 			if((p- cmd_code) > 20) 
        SUBS     R1,R0,R7
        CMP      R1,#+21
        BLT.N    ??eprBurnValue_leveling_1
//  383 				break;
//  384 		}
//  385 		
//  386 		*data_addr_x = atoi(cmd_code);
??eprBurnValue_leveling_2:
        MOV      R0,R7
          CFI FunCall atoi
        BL       atoi
        STR      R0,[R4, #+0]
//  387 		epr_write_data(epr_addr_x, (uint8_t *)data_addr_x,sizeof(int16_t));
        MOVS     R2,#+2
        MOV      R1,R4
        MOV      R0,R6
          CFI FunCall epr_write_data
        BL       epr_write_data
//  388 
//  389 			memset(cmd_code,0,sizeof(cmd_code));
        MOVS     R2,#+201
        MOVS     R1,#+0
        MOV      R0,R7
          CFI FunCall memset
        BL       memset
//  390 			p = cmd_code;
        MOV      R0,R7
//  391 			tmp_index++;
        ADD      R8,R8,#+1
//  392 			while(((*tmp_index) != '\r')&&((*tmp_index) != '\n')&&((*tmp_index) != '#')&&((*tmp_index) != ' '))
??eprBurnValue_leveling_3:
        LDRSB    R1,[R8, #+0]
        CMP      R1,#+13
        BEQ.N    ??eprBurnValue_leveling_4
        CMP      R1,#+10
        BEQ.N    ??eprBurnValue_leveling_4
        CMP      R1,#+35
        BEQ.N    ??eprBurnValue_leveling_4
        CMP      R1,#+32
        BEQ.N    ??eprBurnValue_leveling_4
//  393 			{
//  394 				*p++ = *tmp_index++;
        LDRB     R1,[R8], #+1
        STRB     R1,[R0], #+1
//  395 
//  396 				if((p- cmd_code) >= 20)
        SUBS     R1,R0,R7
        CMP      R1,#+20
        BLT.N    ??eprBurnValue_leveling_3
//  397 				{
//  398 					break;
//  399 				} 					
//  400 			}
//  401 			*data_addr_y = atoi(cmd_code);
??eprBurnValue_leveling_4:
        MOV      R0,R7
          CFI FunCall atoi
        BL       atoi
        STR      R0,[R5, #+0]
//  402 			epr_write_data(epr_addr_y, (uint8_t *)data_addr_y,sizeof(int16_t));	
        MOVS     R2,#+2
        MOV      R1,R5
        LDR      R0,[SP, #+32]
        POP      {R3-R9,LR}
          CFI R4 SameValue
          CFI R5 SameValue
          CFI R6 SameValue
          CFI R7 SameValue
          CFI R8 SameValue
          CFI R9 SameValue
          CFI R14 SameValue
          CFI CFA R13+0
          CFI FunCall epr_write_data
        B.W      epr_write_data
          CFI R4 Frame(CFA, -28)
          CFI R5 Frame(CFA, -24)
          CFI R6 Frame(CFA, -20)
          CFI R7 Frame(CFA, -16)
          CFI R8 Frame(CFA, -12)
          CFI R9 Frame(CFA, -8)
          CFI R14 Frame(CFA, -4)
          CFI CFA R13+32
//  403 	}
//  404 }
??eprBurnValue_leveling_0:
        POP      {R0,R4-R9,PC}    ;; return
          CFI EndBlock cfiBlock18

        SECTION `.text`:CODE:NOROOT(2)
        SECTION_TYPE SHT_PROGBITS, 0
        DATA
??DataTable249:
        DC32     mksTmp+0x424

        SECTION `.text`:CODE:NOROOT(2)
        SECTION_TYPE SHT_PROGBITS, 0
        DATA
??DataTable249_1:
        DC32     SD_Path

        SECTION `.text`:CODE:NOROOT(2)
        SECTION_TYPE SHT_PROGBITS, 0
        DATA
??DataTable249_2:
        DC32     mksTmp

        SECTION `.text`:CODE:NOROOT(2)
        SECTION_TYPE SHT_PROGBITS, 0
        DATA
??DataTable249_3:
        DC32     gCfgItems

        SECTION `.text`:CODE:NOROOT(2)
        SECTION_TYPE SHT_PROGBITS, 0
        DATA
??DataTable249_4:
        DC32     Serial3
//  405 

        SECTION `.text`:CODE:NOROOT(2)
          CFI Block cfiBlock19 Using cfiCommon0
          CFI Function _ZN10CardReader16mksEepromRefreshEv
        THUMB
//  406 void CardReader::mksEepromRefresh()
//  407 {
_ZN10CardReader16mksEepromRefreshEv:
        PUSH     {R3-R7,LR}
          CFI R14 Frame(CFA, -4)
          CFI R7 Frame(CFA, -8)
          CFI R6 Frame(CFA, -12)
          CFI R5 Frame(CFA, -16)
          CFI R4 Frame(CFA, -20)
          CFI CFA R13+24
//  408 	char *tmp_index;
//  409 /*------------------------判断是否擦除EEPROM---------------------------------*/
//  410 /*
//  411 >ERASE_EEPROM 1		#1：配置前先擦除EEPROM; 0：配置前不擦除EEPROM;
//  412 */
//  413 	uint32_t erase_data = 0xffffffff;
//  414     mksTmp.erase_eeprom = 0;
        LDR.N    R4,??mksEepromRefresh_0+0x4
        MOVS     R0,#+0
        STR      R0,[R4, #+20]
//  415 
//  416 	eprBurnValue(">ERASE_EEPROM",&mksTmp.erase_eeprom);
        ADD      R1,R4,#+20
        LDR.N    R0,??mksEepromRefresh_0+0x8
          CFI FunCall _Z12eprBurnValuePcPj
        BL       _Z12eprBurnValuePcPj
//  417                 
//  418 	if(mksTmp.erase_eeprom)
        LDR      R0,[R4, #+20]
        CMP      R0,#+0
        BEQ.N    ??mksEepromRefresh_1
//  419 	{
//  420 		mksTmp.erase_eeprom = 0;
        MOVS     R0,#+0
        STR      R0,[R4, #+20]
//  421 		for(int i=0;i<512;i++)
        MOV      R5,R0
        B.N      ??mksEepromRefresh_2
//  422            epr_write_data(i*4, (uint8_t *)erase_data, sizeof(erase_data));
??mksEepromRefresh_3:
        MOVS     R2,#+4
        MOV      R1,#-1
        LSLS     R0,R5,#+2
        UXTH     R0,R0
          CFI FunCall epr_write_data
        BL       epr_write_data
        ADDS     R5,R5,#+1
??mksEepromRefresh_2:
        CMP      R5,#+512
        BLT.N    ??mksEepromRefresh_3
//  423 	}
//  424 	
//  425 /*------------------------Marlin 自带参数配置 begin---------------------------------*/
//  426 
//  427 //DEFAULT_AXIS_STEPS_PER_UNIT
//  428         eprBurnValue(">DEFAULT_X_STEPS_PER_UNIT",&planner.axis_steps_per_mm[X_AXIS]);
??mksEepromRefresh_1:
        LDR.W    R5,??mksEepromRefresh_4
        MOV      R1,R5
        LDR.W    R0,??mksEepromRefresh_4+0x4
          CFI FunCall _Z12eprBurnValuePcPf
        BL       _Z12eprBurnValuePcPf
//  429         eprBurnValue(">DEFAULT_Y_STEPS_PER_UNIT",&planner.axis_steps_per_mm[Y_AXIS]);
        ADDS     R1,R5,#+4
        LDR.W    R0,??mksEepromRefresh_4+0x8
          CFI FunCall _Z12eprBurnValuePcPf
        BL       _Z12eprBurnValuePcPf
//  430         eprBurnValue(">DEFAULT_Z_STEPS_PER_UNIT",&planner.axis_steps_per_mm[Z_AXIS]);
        ADD      R1,R5,#+8
        LDR.W    R0,??mksEepromRefresh_4+0xC
          CFI FunCall _Z12eprBurnValuePcPf
        BL       _Z12eprBurnValuePcPf
//  431         eprBurnValue(">DEFAULT_E0_STEPS_PER_UNIT",&planner.axis_steps_per_mm[E_AXIS]);
        ADD      R1,R5,#+12
        LDR.W    R0,??mksEepromRefresh_4+0x10
          CFI FunCall _Z12eprBurnValuePcPf
        BL       _Z12eprBurnValuePcPf
//  432         eprBurnValue(">DEFAULT_E1_STEPS_PER_UNIT",&planner.axis_steps_per_mm[XYZE]);
        ADD      R1,R5,#+16
        LDR.W    R0,??mksEepromRefresh_4+0x14
          CFI FunCall _Z12eprBurnValuePcPf
        BL       _Z12eprBurnValuePcPf
//  433 //DEFAULT_MAX_FEEDRATE
//  434         eprBurnValue(">DEFAULT_X_MAX_FEEDRATE",&planner.max_feedrate_mm_s[X_AXIS]);
        LDR.W    R5,??mksEepromRefresh_4+0x18
        MOV      R1,R5
        LDR.W    R0,??mksEepromRefresh_4+0x1C
          CFI FunCall _Z12eprBurnValuePcPf
        BL       _Z12eprBurnValuePcPf
//  435         eprBurnValue(">DEFAULT_Y_MAX_FEEDRATE",&planner.max_feedrate_mm_s[Y_AXIS]);
        ADDS     R1,R5,#+4
        LDR.W    R0,??mksEepromRefresh_4+0x20
          CFI FunCall _Z12eprBurnValuePcPf
        BL       _Z12eprBurnValuePcPf
//  436         eprBurnValue(">DEFAULT_Z_MAX_FEEDRATE",&planner.max_feedrate_mm_s[Z_AXIS]);
        ADD      R1,R5,#+8
        LDR.W    R0,??mksEepromRefresh_4+0x24
          CFI FunCall _Z12eprBurnValuePcPf
        BL       _Z12eprBurnValuePcPf
//  437 		
//  438         eprBurnValue(">DEFAULT_E0_MAX_FEEDRATE",&planner.max_feedrate_mm_s[E_AXIS]);
        ADD      R1,R5,#+12
        LDR.W    R0,??mksEepromRefresh_4+0x28
          CFI FunCall _Z12eprBurnValuePcPf
        BL       _Z12eprBurnValuePcPf
//  439 		eprBurnValue(">DEFAULT_E1_MAX_FEEDRATE",&planner.max_feedrate_mm_s[XYZE]);
        ADD      R1,R5,#+16
        LDR.W    R0,??mksEepromRefresh_4+0x2C
          CFI FunCall _Z12eprBurnValuePcPf
        BL       _Z12eprBurnValuePcPf
//  440 	
//  441 //DEFAULT_MAX_ACCELERATION
//  442         eprBurnValue(">DEFAULT_X_MAX_ACCELERATION",(uint32_t *)&planner.max_acceleration_mm_per_s2[X_AXIS]);
        LDR.W    R5,??mksEepromRefresh_4+0x30
        MOV      R1,R5
        LDR.W    R0,??mksEepromRefresh_4+0x34
          CFI FunCall _Z12eprBurnValuePcPj
        BL       _Z12eprBurnValuePcPj
//  443         eprBurnValue(">DEFAULT_Y_MAX_ACCELERATION",(uint32_t *)&planner.max_acceleration_mm_per_s2[Y_AXIS]);
        ADDS     R1,R5,#+4
        LDR.W    R0,??mksEepromRefresh_4+0x38
          CFI FunCall _Z12eprBurnValuePcPj
        BL       _Z12eprBurnValuePcPj
//  444         eprBurnValue(">DEFAULT_Z_MAX_ACCELERATION",(uint32_t *)&planner.max_acceleration_mm_per_s2[Z_AXIS]);
        ADD      R1,R5,#+8
        LDR.W    R0,??mksEepromRefresh_4+0x3C
          CFI FunCall _Z12eprBurnValuePcPj
        BL       _Z12eprBurnValuePcPj
//  445         eprBurnValue(">DEFAULT_E0_MAX_ACCELERATION",(uint32_t *)&planner.max_acceleration_mm_per_s2[E_AXIS]);
        ADD      R1,R5,#+12
        LDR.W    R0,??mksEepromRefresh_4+0x40
          CFI FunCall _Z12eprBurnValuePcPj
        BL       _Z12eprBurnValuePcPj
//  446 		eprBurnValue(">DEFAULT_E1_MAX_ACCELERATION",(uint32_t *)&planner.max_acceleration_mm_per_s2[XYZE]);
        ADD      R1,R5,#+16
        LDR.W    R0,??mksEepromRefresh_4+0x44
          CFI FunCall _Z12eprBurnValuePcPj
        BL       _Z12eprBurnValuePcPj
//  447 
//  448 //DEFAULT_ACCELERATION
//  449 	eprBurnValue(">DEFAULT_ACCELERATION",&planner.acceleration);
        LDR.W    R1,??mksEepromRefresh_4+0x48
        LDR.W    R0,??mksEepromRefresh_4+0x4C
          CFI FunCall _Z12eprBurnValuePcPf
        BL       _Z12eprBurnValuePcPf
//  450 //DEFAULT_RETRACT_ACCELERATION
//  451 	eprBurnValue(">DEFAULT_RETRACT_ACCELERATION",&planner.retract_acceleration);
        LDR.W    R1,??mksEepromRefresh_4+0x50
        LDR.W    R0,??mksEepromRefresh_4+0x54
          CFI FunCall _Z12eprBurnValuePcPf
        BL       _Z12eprBurnValuePcPf
//  452 //DEFAULT_TRAVEL_ACCELERATION	
//  453 	eprBurnValue(">DEFAULT_TRAVEL_ACCELERATION",&planner.travel_acceleration);
        LDR.W    R1,??mksEepromRefresh_4+0x58
        LDR.W    R0,??mksEepromRefresh_4+0x5C
          CFI FunCall _Z12eprBurnValuePcPf
        BL       _Z12eprBurnValuePcPf
//  454 //DEFAULT_MINIMUMFEEDRATE
//  455 	eprBurnValue(">DEFAULT_MINIMUMFEEDRATE",&planner.min_feedrate_mm_s);
        LDR.W    R1,??mksEepromRefresh_4+0x60
        LDR.W    R0,??mksEepromRefresh_4+0x64
          CFI FunCall _Z12eprBurnValuePcPf
        BL       _Z12eprBurnValuePcPf
//  456 //DEFAULT_MINSEGMENTTIME
//  457 	eprBurnValue(">DEFAULT_MINSEGMENTTIME",(uint32_t *)&planner.min_segment_time_us);
        LDR.W    R1,??mksEepromRefresh_4+0x68
        LDR.W    R0,??mksEepromRefresh_4+0x6C
          CFI FunCall _Z12eprBurnValuePcPj
        BL       _Z12eprBurnValuePcPj
//  458 //DEFAULT_MINTRAVELFEEDRATE
//  459 	eprBurnValue(">DEFAULT_MINTRAVELFEEDRATE",&planner.min_travel_feedrate_mm_s);
        LDR.W    R1,??mksEepromRefresh_4+0x70
        LDR.W    R0,??mksEepromRefresh_4+0x74
          CFI FunCall _Z12eprBurnValuePcPf
        BL       _Z12eprBurnValuePcPf
//  460 // DEFAULT_JERK   
//  461 	eprBurnValue(">DEFAULT_XJERK",&planner.max_jerk[X_AXIS]);
        LDR.N    R5,??mksEepromRefresh_0+0xC
        MOV      R1,R5
        LDR.N    R0,??mksEepromRefresh_0+0x10
          CFI FunCall _Z12eprBurnValuePcPf
        BL       _Z12eprBurnValuePcPf
//  462 	eprBurnValue(">DEFAULT_YJERK",&planner.max_jerk[Y_AXIS]);
        ADDS     R1,R5,#+4
        LDR.N    R0,??mksEepromRefresh_0+0x14
          CFI FunCall _Z12eprBurnValuePcPf
        BL       _Z12eprBurnValuePcPf
//  463 	eprBurnValue(">DEFAULT_ZJERK",&planner.max_jerk[Z_AXIS]);
        ADD      R1,R5,#+8
        LDR.N    R0,??mksEepromRefresh_0+0x18
          CFI FunCall _Z12eprBurnValuePcPf
        BL       _Z12eprBurnValuePcPf
//  464 	eprBurnValue(">DEFAULT_EJERK",&planner.max_jerk[E_AXIS]);
        ADD      R1,R5,#+12
        LDR.N    R0,??mksEepromRefresh_0+0x1C
          CFI FunCall _Z12eprBurnValuePcPf
        BL       _Z12eprBurnValuePcPf
//  465 
//  466 //DEFAULT_Kp
//  467 	eprBurnValue(">DEFAULT_Kp",&thermalManager.Kp);
        LDR.N    R1,??mksEepromRefresh_0+0x20
        LDR.N    R0,??mksEepromRefresh_0+0x24
          CFI FunCall _Z12eprBurnValuePcPf
        BL       _Z12eprBurnValuePcPf
//  468 //DEFAULT_Ki
//  469 	tmp_index = (char *)strstr(cfg_buf, ">DEFAULT_Ki");
        LDR.N    R1,??mksEepromRefresh_0+0x28
        ADD      R0,R4,#+32
          CFI FunCall _Z6strstrPcPKc
        BL       _Z6strstrPcPKc
//  470 	if(tmp_index)
        ADDW     R5,R4,#+1060
        CMP      R0,#+0
        BEQ.N    ??mksEepromRefresh_5
//  471 		{
//  472 		tmp_index += strlen(">DEFAULT_Ki");
//  473 		mksGetParameter(tmp_index);	
        ADDS     R0,R0,#+11
          CFI FunCall _Z15mksGetParameterPc
        BL       _Z15mksGetParameterPc
//  474 		thermalManager.Ki = scalePID_i(atof(cmd_code));
        MOV      R0,R5
          CFI FunCall atof
        BL       atof
        LDR.W    R2,??DataTable250  ;; 0x88e368f1
        LDR.W    R3,??DataTable250_1  ;; 0x3fc4f8b5
          CFI FunCall __aeabi_dmul
        BL       __aeabi_dmul
          CFI FunCall __aeabi_d2f
        BL       __aeabi_d2f
        LDR.N    R1,??mksEepromRefresh_0+0x2C
        STR      R0,[R1, #+0]
//  475 		}
//  476 //DEFAULT_Kd
//  477 	tmp_index = (char *)strstr(cfg_buf, ">DEFAULT_Kd");
??mksEepromRefresh_5:
        LDR.N    R1,??mksEepromRefresh_0+0x30
        ADD      R0,R4,#+32
          CFI FunCall _Z6strstrPcPKc
        BL       _Z6strstrPcPKc
//  478 	if(tmp_index)
        CMP      R0,#+0
        BEQ.N    ??mksEepromRefresh_6
//  479 		{
//  480 		tmp_index += strlen(">DEFAULT_Kd");
//  481 		mksGetParameter(tmp_index);	
        ADDS     R0,R0,#+11
          CFI FunCall _Z15mksGetParameterPc
        BL       _Z15mksGetParameterPc
//  482 		thermalManager.Kd = scalePID_d(atof(cmd_code));
        MOV      R0,R5
          CFI FunCall atof
        BL       atof
        LDR.W    R2,??DataTable250  ;; 0x88e368f1
        LDR.W    R3,??DataTable250_1  ;; 0x3fc4f8b5
          CFI FunCall __aeabi_ddiv
        BL       __aeabi_ddiv
          CFI FunCall __aeabi_d2f
        BL       __aeabi_d2f
        LDR.N    R1,??mksEepromRefresh_0+0x34
        STR      R0,[R1, #+0]
//  483 		}
//  484 #if 1//def USE_MKS_WIFI 
//  485 /*wifi paras*/	
//  486 	tmp_index = (char *)strstr(cfg_buf, ">CFG_WIFI_MODE");
??mksEepromRefresh_6:
        LDR.N    R1,??mksEepromRefresh_0+0x38
        ADD      R0,R4,#+32
          CFI FunCall _Z6strstrPcPKc
        BL       _Z6strstrPcPKc
//  487 	if(tmp_index)
        LDR.N    R6,??mksEepromRefresh_0+0x3C
        CMP      R0,#+0
        BEQ.N    ??mksEepromRefresh_7
//  488 	{
//  489 		/*
//  490 		if( tmp_index[strlen(">CFG_WIFI_MODE")] == '1')
//  491 		{
//  492 			gCfgItems.wifi_mode_sel = 1;	
//  493 		}
//  494 		else
//  495 		{
//  496 			gCfgItems.wifi_mode_sel = 2;
//  497 		}		
//  498 
//  499 		*/
//  500 		tmp_index += strlen(">CFG_WIFI_MODE");
//  501 		mksGetParameter(tmp_index);
        ADDS     R0,R0,#+14
          CFI FunCall _Z15mksGetParameterPc
        BL       _Z15mksGetParameterPc
//  502 		gCfgItems.wifi_mode_sel = atoi(cmd_code);
        MOV      R0,R5
          CFI FunCall atoi
        BL       atoi
        STRB     R0,[R6, #+555]
//  503         if(gCfgItems.wifi_mode_sel != 1)
        LDRB     R0,[R6, #+555]
        CMP      R0,#+1
        BEQ.N    ??mksEepromRefresh_8
//  504 		{
//  505 			gCfgItems.wifi_mode_sel = 2;
        MOVS     R0,#+2
        STRB     R0,[R6, #+555]
//  506 		}		
//  507         
//  508 		cfg_wifi_flag = 1;
??mksEepromRefresh_8:
        MOVS     R0,#+1
        LDR.N    R1,??mksEepromRefresh_0+0x40
        STR      R0,[R1, #+0]
//  509 	}
//  510 
//  511 	tmp_index = (char *)strstr(cfg_buf, ">CFG_WIFI_AP_NAME");
??mksEepromRefresh_7:
        LDR.N    R1,??mksEepromRefresh_0+0x44
        ADD      R0,R4,#+32
          CFI FunCall _Z6strstrPcPKc
        BL       _Z6strstrPcPKc
//  512 	if(tmp_index)
        CMP      R0,#+0
        BEQ.N    ??mksEepromRefresh_9
//  513 	{
//  514 		tmp_index += strlen(">CFG_WIFI_AP_NAME");
//  515 		mksGetParameter(tmp_index);	
        ADDS     R0,R0,#+17
          CFI FunCall _Z15mksGetParameterPc
        BL       _Z15mksGetParameterPc
//  516 		memset((char *)gCfgItems.wifi_ap, 0, sizeof(gCfgItems.wifi_ap));
        MOVS     R2,#+32
        MOVS     R1,#+0
        ADDW     R0,R6,#+459
          CFI FunCall memset
        BL       memset
//  517 		strncpy((char *)gCfgItems.wifi_ap,  cmd_code, sizeof(gCfgItems.wifi_ap));
        MOVS     R2,#+32
        MOV      R1,R5
        ADDW     R0,R6,#+459
          CFI FunCall strncpy
        BL       strncpy
//  518 		cfg_wifi_flag = 1;
        MOVS     R0,#+1
        LDR.N    R1,??mksEepromRefresh_0+0x40
        STR      R0,[R1, #+0]
//  519 	}
//  520 
//  521 	tmp_index = (char *)strstr(cfg_buf, ">CFG_WIFI_KEY_CODE");
??mksEepromRefresh_9:
        LDR.N    R1,??mksEepromRefresh_0+0x48
        ADD      R0,R4,#+32
          CFI FunCall _Z6strstrPcPKc
        BL       _Z6strstrPcPKc
//  522 	if(tmp_index)
        CMP      R0,#+0
        BEQ.N    ??mksEepromRefresh_10
//  523 	{
//  524 		tmp_index += strlen(">CFG_WIFI_KEY_CODE");
//  525 		mksGetParameter(tmp_index);	
        ADDS     R0,R0,#+18
          CFI FunCall _Z15mksGetParameterPc
        BL       _Z15mksGetParameterPc
//  526 		memset((char *)gCfgItems.wifi_key, 0, sizeof(gCfgItems.wifi_key));
        MOVS     R2,#+64
        MOVS     R1,#+0
        ADDW     R0,R6,#+491
          CFI FunCall memset
        BL       memset
//  527 		strncpy((char *)gCfgItems.wifi_key,  cmd_code, sizeof(gCfgItems.wifi_key));
        MOVS     R2,#+64
        MOV      R1,R5
        ADDW     R0,R6,#+491
          CFI FunCall strncpy
        BL       strncpy
//  528 		cfg_wifi_flag = 1;
        MOVS     R0,#+1
        LDR.N    R1,??mksEepromRefresh_0+0x40
        STR      R0,[R1, #+0]
//  529 	}
//  530 /*
//  531 	tmp_index = (char *)strstr(cfg_buf, ">CFG_CLOUD_ENABLE");
//  532 	if(tmp_index)
//  533 	{
//  534 		if( tmp_index[strlen(">CFG_CLOUD_ENABLE")] == '1')
//  535 		{
//  536 			gCfgItems.cloud_enable = 1;	
//  537 		}
//  538 		else
//  539 		{
//  540 			gCfgItems.cloud_enable = 0;
//  541 		}					
//  542 		cfg_cloud_flag = 1;
//  543 	}
//  544 */
//  545 	eprBurnValue(">CFG_CLOUD_ENABLE", (uint8_t *)&gCfgItems.cloud_enable, EPR_ENABLE_CLOUD);
??mksEepromRefresh_10:
        MOVW     R2,#+1827
        ADDW     R1,R6,#+557
        LDR.N    R0,??mksEepromRefresh_0+0x4C
          CFI FunCall _Z12eprBurnValuePcPht
        BL       _Z12eprBurnValuePcPht
//  546 
//  547 	tmp_index = (char *)strstr(cfg_buf, ">CFG_WIFI_CLOUD_HOST");
        LDR.N    R1,??mksEepromRefresh_0+0x50
        ADD      R0,R4,#+32
          CFI FunCall _Z6strstrPcPKc
        BL       _Z6strstrPcPKc
//  548 	if(tmp_index)
        CMP      R0,#+0
        BEQ.N    ??mksEepromRefresh_11
//  549 	{
//  550 		tmp_index += strlen(">CFG_WIFI_CLOUD_HOST");
//  551 		mksGetParameter(tmp_index);	
        ADDS     R0,R0,#+20
          CFI FunCall _Z15mksGetParameterPc
        BL       _Z15mksGetParameterPc
//  552 		memset((char *)gCfgItems.cloud_hostUrl, 0, sizeof(gCfgItems.cloud_hostUrl));
        MOVS     R2,#+96
        MOVS     R1,#+0
        ADDW     R0,R6,#+558
          CFI FunCall memset
        BL       memset
//  553 		strncpy((char *)gCfgItems.cloud_hostUrl,  cmd_code, sizeof(gCfgItems.cloud_hostUrl));
        MOVS     R2,#+96
        MOV      R1,R5
        ADDW     R0,R6,#+558
          CFI FunCall strncpy
        BL       strncpy
//  554 					
//  555 		cfg_cloud_flag = 1;
        MOVS     R0,#+1
        LDR.W    R1,??DataTable250_2
        STR      R0,[R1, #+0]
//  556 	}
//  557 
//  558 	tmp_index = (char *)strstr(cfg_buf, ">CFG_CLOUD_PORT");
??mksEepromRefresh_11:
        LDR.N    R1,??mksEepromRefresh_0+0x54
        ADD      R0,R4,#+32
          CFI FunCall _Z6strstrPcPKc
        BL       _Z6strstrPcPKc
        MOVS     R7,R0
//  559 	if(tmp_index)
        BEQ.N    ??mksEepromRefresh_12
//  560 	{
//  561 		if( (strcmp((const char *)(&tmp_index[strlen(">CFG_CLOUD_PORT")]), "0") > 0) &&(strcmp((const char *)(&tmp_index[strlen(">CFG_CLOUD_PORT")]), "99999") < 0))
        ADR.N    R1,??mksEepromRefresh_0  ;; "0"
        ADD      R0,R7,#+15
          CFI FunCall strcmp
        BL       strcmp
        CMP      R0,#+1
        BLT.N    ??mksEepromRefresh_13
        LDR.N    R1,??mksEepromRefresh_0+0x58
        ADD      R0,R7,#+15
          CFI FunCall strcmp
        BL       strcmp
        CMP      R0,#+0
        BPL.N    ??mksEepromRefresh_13
//  562 		{
//  563 			gCfgItems.cloud_port = atoi((char *)(&tmp_index[strlen(">CFG_CLOUD_PORT")]));
        ADD      R0,R7,#+15
          CFI FunCall atoi
        BL       atoi
        STR      R0,[R6, #+656]
        B.N      ??mksEepromRefresh_14
        Nop      
        DATA
??mksEepromRefresh_0:
        DC8      "0",0x0,0x0
        DC32     mksTmp
        DC32     `?<Constant ">ERASE_EEPROM">`
        DC32     _ZN7Planner8max_jerkE
        DC32     `?<Constant ">DEFAULT_XJERK">`
        DC32     `?<Constant ">DEFAULT_YJERK">`
        DC32     `?<Constant ">DEFAULT_ZJERK">`
        DC32     `?<Constant ">DEFAULT_EJERK">`
        DC32     _ZN11Temperature2KpE
        DC32     `?<Constant ">DEFAULT_Kp">`
        DC32     `?<Constant ">DEFAULT_Ki">`
        DC32     _ZN11Temperature2KiE
        DC32     `?<Constant ">DEFAULT_Kd">`
        DC32     _ZN11Temperature2KdE
        DC32     `?<Constant ">CFG_WIFI_MODE">`
        DC32     gCfgItems
        DC32     cfg_wifi_flag
        DC32     `?<Constant ">CFG_WIFI_AP_NAME">`
        DC32     `?<Constant ">CFG_WIFI_KEY_CODE">`
        DC32     `?<Constant ">CFG_CLOUD_ENABLE">`
        DC32     `?<Constant ">CFG_WIFI_CLOUD_HOST">`
        DC32     `?<Constant ">CFG_CLOUD_PORT">`
        DC32     `?<Constant "99999">`
        THUMB
//  564 		}
//  565 		else					
//  566 			gCfgItems.cloud_port = 10086;
??mksEepromRefresh_13:
        MOVW     R0,#+10086
        STR      R0,[R6, #+656]
//  567 		cfg_cloud_flag = 1;
??mksEepromRefresh_14:
        MOVS     R0,#+1
        LDR.W    R1,??DataTable250_2
        STR      R0,[R1, #+0]
//  568 	}
//  569 	
//  570 #endif        
//  571 
//  572  //DEFAULT_bedKp
//  573 	eprBurnValue(">DEFAULT_bedKp",&thermalManager.bedKp);
??mksEepromRefresh_12:
        LDR.W    R1,??DataTable250_3
        LDR.W    R0,??DataTable250_4
          CFI FunCall _Z12eprBurnValuePcPf
        BL       _Z12eprBurnValuePcPf
//  574 //DEFAULT_bedKi
//  575 	tmp_index = (char *)strstr(cfg_buf, ">DEFAULT_bedKi");
        LDR.W    R1,??DataTable250_5
        ADD      R0,R4,#+32
          CFI FunCall _Z6strstrPcPKc
        BL       _Z6strstrPcPKc
//  576 	if(tmp_index)
        CMP      R0,#+0
        BEQ.N    ??mksEepromRefresh_15
//  577 		{
//  578 		tmp_index += strlen(">DEFAULT_bedKi");
//  579 		mksGetParameter(tmp_index);	
        ADDS     R0,R0,#+14
          CFI FunCall _Z15mksGetParameterPc
        BL       _Z15mksGetParameterPc
//  580 		thermalManager.bedKi = scalePID_i(atof(cmd_code));
        MOV      R0,R5
          CFI FunCall atof
        BL       atof
        LDR.W    R2,??DataTable250  ;; 0x88e368f1
        LDR.W    R3,??DataTable250_1  ;; 0x3fc4f8b5
          CFI FunCall __aeabi_dmul
        BL       __aeabi_dmul
          CFI FunCall __aeabi_d2f
        BL       __aeabi_d2f
        LDR.W    R1,??DataTable250_6
        STR      R0,[R1, #+0]
//  581 		}
//  582 //DEFAULT_bedKd
//  583 	tmp_index = (char *)strstr(cfg_buf, ">DEFAULT_bedKd");
??mksEepromRefresh_15:
        LDR.W    R1,??DataTable250_7
        ADD      R0,R4,#+32
          CFI FunCall _Z6strstrPcPKc
        BL       _Z6strstrPcPKc
//  584 	if(tmp_index)
        CMP      R0,#+0
        BEQ.N    ??mksEepromRefresh_16
//  585 		{
//  586 		tmp_index += strlen(">DEFAULT_bedKd");
//  587 		mksGetParameter(tmp_index);	
        ADDS     R0,R0,#+14
          CFI FunCall _Z15mksGetParameterPc
        BL       _Z15mksGetParameterPc
//  588 		thermalManager.bedKd = scalePID_d(atof(cmd_code));
        MOV      R0,R5
          CFI FunCall atof
        BL       atof
        LDR.W    R2,??DataTable250  ;; 0x88e368f1
        LDR.W    R3,??DataTable250_1  ;; 0x3fc4f8b5
          CFI FunCall __aeabi_ddiv
        BL       __aeabi_ddiv
          CFI FunCall __aeabi_d2f
        BL       __aeabi_d2f
        LDR.W    R1,??DataTable250_8
        STR      R0,[R1, #+0]
//  589 		}
//  590 
//  591          
//  592  //Z_PROBE_OFFSET_FROM_EXTRUDER
//  593 	eprBurnValue(">Z_PROBE_OFFSET_FROM_EXTRUDER",&zprobe_zoffset);
??mksEepromRefresh_16:
        LDR.W    R1,??DataTable250_9
        LDR.W    R0,??DataTable250_10
          CFI FunCall _Z12eprBurnValuePcPf
        BL       _Z12eprBurnValuePcPf
//  594 //DELTA_RADIUS
//  595 	eprBurnValue(">DELTA_RADIUS",&delta_radius);
        LDR.W    R1,??DataTable250_11
        LDR.W    R0,??DataTable250_12
          CFI FunCall _Z12eprBurnValuePcPf
        BL       _Z12eprBurnValuePcPf
//  596 //DELTA_DIAGONAL_ROD
//  597 	eprBurnValue(">DELTA_DIAGONAL_ROD",&delta_diagonal_rod);
        LDR.W    R1,??DataTable250_13
        LDR.W    R0,??DataTable250_14
          CFI FunCall _Z12eprBurnValuePcPf
        BL       _Z12eprBurnValuePcPf
//  598 //DELTA_SEGMENTS_PER_SECOND
//  599 	eprBurnValue(">DELTA_SEGMENTS_PER_SECOND",&delta_segments_per_second);
        LDR.W    R1,??DataTable250_15
        LDR.W    R0,??DataTable250_16
          CFI FunCall _Z12eprBurnValuePcPf
        BL       _Z12eprBurnValuePcPf
//  600 //DELTA_CALIBRATION_RADIUS
//  601 	eprBurnValue(">DELTA_CALIBRATION_RADIUS",&delta_calibration_radius);
        LDR.W    R1,??DataTable250_17
        LDR.W    R0,??DataTable250_18
          CFI FunCall _Z12eprBurnValuePcPf
        BL       _Z12eprBurnValuePcPf
//  602  
//  603 
//  604 /*------------------------Marlin 自带参数配置 end---------------------------------*/
//  605 
//  606 /*------------------------MKS 新增参数配置 begin---------------------------------*/
//  607         
//  608 //INVERT_x_DIR
//  609 	eprBurnValue(">INVERT_X_DIR", &mksCfg.invert_x_dir, EPR_INVERT_X_DIR);
        MOVW     R2,#+1454
        ADD      R1,R6,#+688
        LDR.W    R0,??DataTable250_19
          CFI FunCall _Z12eprBurnValuePcPht
        BL       _Z12eprBurnValuePcPht
//  610 	eprBurnValue(">INVERT_Y_DIR", &mksCfg.invert_y_dir, EPR_INVERT_Y_DIR);
        MOVW     R2,#+1455
        ADDW     R1,R6,#+689
        LDR.W    R0,??DataTable250_20
          CFI FunCall _Z12eprBurnValuePcPht
        BL       _Z12eprBurnValuePcPht
//  611 	eprBurnValue(">INVERT_Z_DIR", &mksCfg.invert_z_dir, EPR_INVERT_Z_DIR);
        MOV      R2,#+1456
        ADDW     R1,R6,#+690
        LDR.W    R0,??DataTable250_21
          CFI FunCall _Z12eprBurnValuePcPht
        BL       _Z12eprBurnValuePcPht
//  612 	eprBurnValue(">INVERT_E0_DIR", &mksCfg.invert_e0_dir, EPR_INVERT_E0_DIR);
        MOVW     R2,#+1457
        ADDW     R1,R6,#+691
        LDR.W    R0,??DataTable250_22
          CFI FunCall _Z12eprBurnValuePcPht
        BL       _Z12eprBurnValuePcPht
//  613 	eprBurnValue(">INVERT_E1_DIR", &mksCfg.invert_e1_dir, EPR_INVERT_E1_DIR);
        MOVW     R2,#+1458
        ADD      R1,R6,#+692
        LDR.W    R0,??DataTable250_23
          CFI FunCall _Z12eprBurnValuePcPht
        BL       _Z12eprBurnValuePcPht
//  614 //x_HOME_DIR
//  615 	eprBurnValue(">X_HOME_DIR", (uint8_t *)&mksCfg.x_home_dir, EPR_X_HOME_DIR);
        MOVW     R2,#+1459
        ADDW     R1,R6,#+693
        LDR.W    R0,??DataTable250_24
          CFI FunCall _Z12eprBurnValuePcPht
        BL       _Z12eprBurnValuePcPht
//  616 	eprBurnValue(">Y_HOME_DIR", (uint8_t *)&mksCfg.y_home_dir, EPR_Y_HOME_DIR);
        MOVW     R2,#+1460
        ADDW     R1,R6,#+694
        LDR.W    R0,??DataTable250_25
          CFI FunCall _Z12eprBurnValuePcPht
        BL       _Z12eprBurnValuePcPht
//  617 	eprBurnValue(">Z_HOME_DIR", (uint8_t *)&mksCfg.z_home_dir, EPR_Z_HOME_DIR);
        MOVW     R2,#+1461
        ADDW     R1,R6,#+695
        LDR.W    R0,??DataTable250_26
          CFI FunCall _Z12eprBurnValuePcPht
        BL       _Z12eprBurnValuePcPht
//  618 
//  619 //x_MIN_POS 
//  620 	eprBurnValue(">X_MIN_POS", &mksCfg.x_min_pos, EPR_X_MIN_POS);
        MOVW     R2,#+1462
        ADD      R1,R6,#+696
        LDR.W    R0,??DataTable250_27
          CFI FunCall _Z12eprBurnValuePcPft
        BL       _Z12eprBurnValuePcPft
//  621 	eprBurnValue(">Y_MIN_POS", &mksCfg.y_min_pos, EPR_Y_MIN_POS);
        MOVW     R2,#+1466
        ADD      R1,R6,#+700
        LDR.W    R0,??DataTable250_28
          CFI FunCall _Z12eprBurnValuePcPft
        BL       _Z12eprBurnValuePcPft
//  622 	eprBurnValue(">Z_MIN_POS", &mksCfg.z_min_pos, EPR_Z_MIN_POS);
        MOVW     R2,#+1470
        ADD      R1,R6,#+704
        LDR.W    R0,??DataTable250_29
          CFI FunCall _Z12eprBurnValuePcPft
        BL       _Z12eprBurnValuePcPft
//  623 
//  624 //x_MAX_POS 
//  625 	eprBurnValue(">X_MAX_POS", &mksCfg.x_max_pos, EPR_X_MAX_POS);
        MOVW     R2,#+1474
        ADD      R1,R6,#+708
        LDR.W    R0,??DataTable250_30
          CFI FunCall _Z12eprBurnValuePcPft
        BL       _Z12eprBurnValuePcPft
//  626 	eprBurnValue(">Y_MAX_POS", &mksCfg.y_max_pos, EPR_Y_MAX_POS);
        MOVW     R2,#+1478
        ADD      R1,R6,#+712
        LDR.W    R0,??DataTable250_31
          CFI FunCall _Z12eprBurnValuePcPft
        BL       _Z12eprBurnValuePcPft
//  627 	eprBurnValue(">Z_MAX_POS", &mksCfg.z_max_pos, EPR_Z_MAX_POS);
        MOVW     R2,#+1482
        ADD      R1,R6,#+716
        LDR.W    R0,??DataTable250_32
          CFI FunCall _Z12eprBurnValuePcPft
        BL       _Z12eprBurnValuePcPft
//  628 
//  629 //SOFTWARE_ENDSTOPS
//  630 	eprBurnValue(">MIN_SOFTWARE_ENDSTOPS", &mksCfg.min_software_endstops, EPR_MIN_SOFTWARE_ENDSTOPS);
        MOVW     R2,#+1486
        ADD      R1,R6,#+720
        LDR.W    R0,??DataTable250_33
          CFI FunCall _Z12eprBurnValuePcPht
        BL       _Z12eprBurnValuePcPht
//  631 	eprBurnValue(">MAX_SOFTWARE_ENDSTOPS", &mksCfg.max_software_endstops, EPR_MAX_SOFTWARE_ENDSTOPS);
        MOVW     R2,#+1487
        ADDW     R1,R6,#+721
        LDR.W    R0,??DataTable250_34
          CFI FunCall _Z12eprBurnValuePcPht
        BL       _Z12eprBurnValuePcPht
//  632 
//  633 //HOMING_FEEDRATE  
//  634 	eprBurnValue(">HOMING_FEEDRATE_XY", &mksCfg.homing_feedrate_xy, EPR_HOMING_FEEDRATE_XY);
        MOV      R2,#+1488
        ADD      R1,R6,#+724
        LDR.W    R0,??DataTable250_35
          CFI FunCall _Z12eprBurnValuePcPft
        BL       _Z12eprBurnValuePcPft
//  635 	eprBurnValue(">HOMING_FEEDRATE_Z", &mksCfg.homing_feedrate_z, EPR_HOMING_FEEDRATE_Z);
        MOVW     R2,#+1492
        ADD      R1,R6,#+728
        ADR.W    R0,`?<Constant ">HOMING_FEEDRATE_Z">`
          CFI FunCall _Z12eprBurnValuePcPft
        BL       _Z12eprBurnValuePcPft
//  636 	eprBurnValue(">EXTRUDE_MINTEMP", &mksCfg.extrude_mintemp, EPR_EXTRUDE_MINTEMP);
        MOV      R2,#+1496
        ADD      R1,R6,#+732
        ADR.W    R0,`?<Constant ">EXTRUDE_MINTEMP">`
          CFI FunCall _Z12eprBurnValuePcPft
        BL       _Z12eprBurnValuePcPft
//  637 
//  638 //robinPlus add
//  639 	eprBurnValue(">HEATER_0_MINTEMP", &mksCfg.heater_0_mintemp, EPR_HEATER_0_MINTEMP);
        MOVW     R2,#+1674
        ADD      R1,R6,#+928
        ADR.W    R0,`?<Constant ">HEATER_0_MINTEMP">`
          CFI FunCall _Z12eprBurnValuePcPst
        BL       _Z12eprBurnValuePcPst
//  640 	eprBurnValue(">HEATER_1_MINTEMP", (uint8_t *)&mksCfg.heater_1_mintemp, EPR_HEATER_1_MINTEMP);
        MOVW     R2,#+1676
        ADDW     R1,R6,#+930
        LDR.W    R0,??DataTable250_36
          CFI FunCall _Z12eprBurnValuePcPht
        BL       _Z12eprBurnValuePcPht
//  641 	eprBurnValue(">HEATER_1_MAXTEMP", &mksCfg.heater_1_maxtemp, EPR_HEATER_1_MAXTEMP);
        MOVW     R2,#+1677
        ADD      R1,R6,#+932
        ADR.W    R0,`?<Constant ">HEATER_1_MAXTEMP">`
          CFI FunCall _Z12eprBurnValuePcPst
        BL       _Z12eprBurnValuePcPst
//  642 	eprBurnValue(">TEMP_SENSOR_0", (uint8_t *)&mksCfg.temp_sensor_0, EPR_TEMP_SENSOR_0);
        MOVW     R2,#+1679
        ADDW     R1,R6,#+934
        ADR.W    R0,`?<Constant ">TEMP_SENSOR_0">`
          CFI FunCall _Z12eprBurnValuePcPht
        BL       _Z12eprBurnValuePcPht
//  643 	eprBurnValue(">EXTRUDERS", &mksCfg.extruders, EPR_EXTRUDERS);
        MOV      R2,#+1680
        ADDW     R1,R6,#+935
        ADR.W    R0,`?<Constant ">EXTRUDERS">`
          CFI FunCall _Z12eprBurnValuePcPht
        BL       _Z12eprBurnValuePcPht
//  644 
//  645 //HEATER_0_MAXTEMP  
//  646 	eprBurnValue(">HEATER_0_MAXTEMP", &mksCfg.heater_0_maxtemp, EPR_HEATER_0_MAXTEMP);
        MOVW     R2,#+1500
        ADD      R1,R6,#+736
        ADR.W    R0,`?<Constant ">HEATER_0_MAXTEMP">`
          CFI FunCall _Z12eprBurnValuePcPst
        BL       _Z12eprBurnValuePcPst
//  647 //BED_MAXTEMP  
//  648 	eprBurnValue(">BED_MAXTEMP", &mksCfg.bed_maxtemp, EPR_BED_MAXTEMP);
        MOVW     R2,#+1502
        ADDW     R1,R6,#+738
        ADR.W    R0,`?<Constant ">BED_MAXTEMP">`
          CFI FunCall _Z12eprBurnValuePcPst
        BL       _Z12eprBurnValuePcPst
//  649 //PIDTEMP 
//  650 	eprBurnValue(">PIDTEMPE", &mksCfg.pidtemp, EPR_PIDTEMP);
        MOV      R2,#+1504
        ADD      R1,R6,#+740
        ADR.W    R0,`?<Constant ">PIDTEMPE">`
          CFI FunCall _Z12eprBurnValuePcPht
        BL       _Z12eprBurnValuePcPht
//  651 //PIDTEMPBED  
//  652 	eprBurnValue(">PIDTEMPBED", &mksCfg.pidtempbed, EPR_PIDTEMPBED);
        MOVW     R2,#+1505
        ADDW     R1,R6,#+741
        ADR.W    R0,`?<Constant ">PIDTEMPBED">`
          CFI FunCall _Z12eprBurnValuePcPht
        BL       _Z12eprBurnValuePcPht
//  653 //HAS_TEMP_BED  
//  654 	eprBurnValue(">HAS_TEMP_BED", &mksCfg.has_temp_bed, EPR_HAS_TEMP_BED);
        MOVW     R2,#+1506
        ADDW     R1,R6,#+742
        ADR.W    R0,`?<Constant ">HAS_TEMP_BED">`
          CFI FunCall _Z12eprBurnValuePcPht
        BL       _Z12eprBurnValuePcPht
//  655 //MIN_ENDSTOP_INVERTING  
//  656 	eprBurnValue(">X_MIN_ENDSTOP_INVERTING", &mksCfg.x_min_endstop_inverting, EPR_X_MIN_ENDSTOP_INVERTING);
        MOVW     R2,#+1507
        ADDW     R1,R6,#+743
        ADR.W    R0,`?<Constant ">X_MIN_ENDSTOP_INVERTING">`
          CFI FunCall _Z12eprBurnValuePcPht
        BL       _Z12eprBurnValuePcPht
//  657 	eprBurnValue(">Y_MIN_ENDSTOP_INVERTING", &mksCfg.y_min_endstop_inverting, EPR_Y_MIN_ENDSTOP_INVERTING);
        MOVW     R2,#+1508
        ADD      R1,R6,#+744
        ADR.W    R0,`?<Constant ">Y_MIN_ENDSTOP_INVERTING">`
          CFI FunCall _Z12eprBurnValuePcPht
        BL       _Z12eprBurnValuePcPht
//  658 	eprBurnValue(">Z_MIN_ENDSTOP_INVERTING", &mksCfg.z_min_endstop_inverting, EPR_Z_MIN_ENDSTOP_INVERTING);
        MOVW     R2,#+1509
        ADDW     R1,R6,#+745
        LDR.W    R0,??DataTable250_37
          CFI FunCall _Z12eprBurnValuePcPht
        BL       _Z12eprBurnValuePcPht
//  659 //MAX_ENDSTOP_INVERTING  
//  660 	eprBurnValue(">X_MAX_ENDSTOP_INVERTING", &mksCfg.x_max_endstop_inverting, EPR_X_MAX_ENDSTOP_INVERTING);
        MOVW     R2,#+1510
        ADDW     R1,R6,#+746
        ADR.W    R0,`?<Constant ">X_MAX_ENDSTOP_INVERTING">`
          CFI FunCall _Z12eprBurnValuePcPht
        BL       _Z12eprBurnValuePcPht
//  661 	eprBurnValue(">Y_MAX_ENDSTOP_INVERTING", &mksCfg.y_max_endstop_inverting, EPR_Y_MAX_ENDSTOP_INVERTING);
        MOVW     R2,#+1511
        ADDW     R1,R6,#+747
        LDR.W    R0,??DataTable250_38
          CFI FunCall _Z12eprBurnValuePcPht
        BL       _Z12eprBurnValuePcPht
//  662 	eprBurnValue(">Z_MAX_ENDSTOP_INVERTING", &mksCfg.z_max_endstop_inverting, EPR_Z_MAX_ENDSTOP_INVERTING);
        MOV      R2,#+1512
        ADD      R1,R6,#+748
        ADR.W    R0,`?<Constant ">Z_MAX_ENDSTOP_INVERTING">`
          CFI FunCall _Z12eprBurnValuePcPht
        BL       _Z12eprBurnValuePcPht
//  663 //Z_MIN_PROBE_ENDSTOP_INVERTING  
//  664 	eprBurnValue(">Z_MIN_PROBE_ENDSTOP_INVERTING", &mksCfg.z_min_probe_endstop_inverting, EPR_Z_MIN_PROBE_ENDSTOP_INVERTING);
        MOVW     R2,#+1513
        ADDW     R1,R6,#+749
        ADR.W    R0,`?<Constant ">Z_MIN_PROBE_ENDSTOP_...">`
          CFI FunCall _Z12eprBurnValuePcPht
        BL       _Z12eprBurnValuePcPht
//  665 //LCD_LANGUAGE  
//  666 	eprBurnValue(">LCD_LANGUAGE", &mksCfg.lcd_language, EPR_LCD_LANGUAGE);
        MOVW     R2,#+1514
        ADDW     R1,R6,#+750
        LDR.W    R0,??DataTable250_39
          CFI FunCall _Z12eprBurnValuePcPht
        BL       _Z12eprBurnValuePcPht
//  667 //HOME_Y_BEFORE_X
//  668 	eprBurnValue(">HOME_Y_BEFORE_X", &mksCfg.home_y_before_x, EPR_HOME_Y_BEFORE_X);
        MOVW     R2,#+1515
        ADDW     R1,R6,#+751
        ADR.W    R0,`?<Constant ">HOME_Y_BEFORE_X">`
          CFI FunCall _Z12eprBurnValuePcPht
        BL       _Z12eprBurnValuePcPht
//  669 //BED_LEVELING_METHOD
//  670 	eprBurnValue(">BED_LEVELING_METHOD", &mksCfg.bed_leveling_method, EPR_BED_LEVELING_METHOD);
        MOVW     R2,#+1516
        ADD      R1,R6,#+752
        LDR.W    R0,??DataTable250_40
          CFI FunCall _Z12eprBurnValuePcPht
        BL       _Z12eprBurnValuePcPht
//  671 
//  672 //DELTA_SMOOTH_ROD_OFFSET
//  673 	eprBurnValue(">DELTA_SMOOTH_ROD_OFFSET", &mksCfg.delta_smooth_rod_offset, EPR_DELTA_SMOOTH_ROD_OFFSET);
        MOVW     R2,#+1517
        ADD      R1,R6,#+756
        ADR.W    R0,`?<Constant ">DELTA_SMOOTH_ROD_OFFSET">`
          CFI FunCall _Z12eprBurnValuePcPft
        BL       _Z12eprBurnValuePcPft
//  674 //DELTA_EFFECTOR_OFFSET
//  675 	eprBurnValue(">DELTA_EFFECTOR_OFFSET", &mksCfg.delta_effector_offset, EPR_DELTA_EFFECTOR_OFFSET);
        MOVW     R2,#+1521
        ADD      R1,R6,#+760
        ADR.W    R0,`?<Constant ">DELTA_EFFECTOR_OFFSET">`
          CFI FunCall _Z12eprBurnValuePcPft
        BL       _Z12eprBurnValuePcPft
//  676 //DELTA_CARRIAGE_OFFSET
//  677 	eprBurnValue(">DELTA_CARRIAGE_OFFSET", &mksCfg.delta_carriage_offset, EPR_DELTA_CARRIAGE_OFFSET);
        MOVW     R2,#+1525
        ADD      R1,R6,#+764
        LDR.W    R0,??DataTable250_41
          CFI FunCall _Z12eprBurnValuePcPft
        BL       _Z12eprBurnValuePcPft
//  678 //DELTA_HEIGHT
//  679 	eprBurnValue(">DELTA_HEIGHT", &mksCfg.delta_height, EPR_DELTA_HEIGHT);
        MOVW     R2,#+1529
        ADD      R1,R6,#+768
        ADR.W    R0,`?<Constant ">DELTA_HEIGHT">`
          CFI FunCall _Z12eprBurnValuePcPft
        BL       _Z12eprBurnValuePcPft
//  680     delta_height = mksCfg.delta_height;
        LDR      R0,[R6, #+768]
        LDR.W    R1,??DataTable250_42
        STR      R0,[R1, #+0]
//  681 
//  682 //DELTA_PRINTABLE_RADIUS
//  683 	eprBurnValue(">DELTA_PRINTABLE_RADIUS", &mksCfg.delta_printable_radius, EPR_DELTA_PRINTABLE_RADIUS);
        MOVW     R2,#+1533
        ADD      R1,R6,#+772
        ADR.W    R0,`?<Constant ">DELTA_PRINTABLE_RADIUS">`
          CFI FunCall _Z12eprBurnValuePcPft
        BL       _Z12eprBurnValuePcPft
//  684 //MACHINETPYE
//  685 	eprBurnValue(">MACHINETPYE", &mksCfg.machinetype, EPR_MACHINETPYE);
        MOVW     R2,#+1537
        ADD      R1,R6,#+776
        ADR.W    R0,`?<Constant ">MACHINETPYE">`
          CFI FunCall _Z12eprBurnValuePcPst
        BL       _Z12eprBurnValuePcPst
//  686 
//  687 //CURRENT_VREF
//  688         eprBurnValue(">CURRENT_VREF_XY", &mksCfg.current_vref_xy, EPR_CURRENT_VREF_XY);
        MOVW     R2,#+1539
        ADDW     R1,R6,#+778
        ADR.W    R0,`?<Constant ">CURRENT_VREF_XY">`
          CFI FunCall _Z12eprBurnValuePcPst
        BL       _Z12eprBurnValuePcPst
//  689         eprBurnValue(">CURRENT_VREF_Z", &mksCfg.current_vref_z, EPR_CURRENT_VREF_Z);
        MOVW     R2,#+1541
        ADD      R1,R6,#+780
        ADR.W    R0,`?<Constant ">CURRENT_VREF_Z">`
          CFI FunCall _Z12eprBurnValuePcPst
        BL       _Z12eprBurnValuePcPst
//  690         eprBurnValue(">CURRENT_VREF_E", &mksCfg.current_vref_e, EPR_CURRENT_VREF_E);
        MOVW     R2,#+1543
        ADDW     R1,R6,#+782
        ADR.W    R0,`?<Constant ">CURRENT_VREF_E">`
          CFI FunCall _Z12eprBurnValuePcPst
        BL       _Z12eprBurnValuePcPst
//  691 //GRID_MAX_POINTS
//  692 	eprBurnValue(">GRID_MAX_POINTS_X", &mksCfg.grid_max_points_x, EPR_GRID_MAX_POINTS_X);
        MOVW     R2,#+1545
        ADD      R1,R6,#+784
        ADR.W    R0,`?<Constant ">GRID_MAX_POINTS_X">`
          CFI FunCall _Z12eprBurnValuePcPht
        BL       _Z12eprBurnValuePcPht
//  693 	eprBurnValue(">GRID_MAX_POINTS_Y", &mksCfg.grid_max_points_y, EPR_GRID_MAX_POINTS_Y);
        MOVW     R2,#+1546
        ADDW     R1,R6,#+785
        ADR.W    R0,`?<Constant ">GRID_MAX_POINTS_Y">`
          CFI FunCall _Z12eprBurnValuePcPht
        BL       _Z12eprBurnValuePcPht
//  694 
//  695 //Z_CLEARANCE_DEPLOY_PROBE
//  696 	eprBurnValue(">Z_CLEARANCE_DEPLOY_PROBE", &mksCfg.z_clearance_deploy_probe, EPR_Z_CLEARANCE_DEPLOY_PROBE);
        MOVW     R2,#+1547
        ADD      R1,R6,#+788
        ADR.W    R0,`?<Constant ">Z_CLEARANCE_DEPLOY_P...">`
          CFI FunCall _Z12eprBurnValuePcPft
        BL       _Z12eprBurnValuePcPft
//  697 //Z_CLEARANCE_BETWEEN_PROBES
//  698 	eprBurnValue(">Z_CLEARANCE_BETWEEN_PROBES", &mksCfg.z_clearance_between_probes, EPR_Z_CLEARANCE_BETWEEN_PROBES);
        MOVW     R2,#+1551
        ADD      R1,R6,#+792
        LDR.W    R0,??DataTable250_43
          CFI FunCall _Z12eprBurnValuePcPft
        BL       _Z12eprBurnValuePcPft
//  699 //X_PROBE_OFFSET_FROM_EXTRUDER
//  700 	eprBurnValue(">X_PROBE_OFFSET_FROM_EXTRUDER", &mksCfg.x_probe_offset_from_extruder, EPR_X_PROBE_OFFSET_FROM_EXTRUDER);
        MOVW     R2,#+1555
        ADD      R1,R6,#+796
        ADR.W    R0,`?<Constant ">X_PROBE_OFFSET_FROM_...">`
          CFI FunCall _Z12eprBurnValuePcPft
        BL       _Z12eprBurnValuePcPft
//  701 //Y_PROBE_OFFSET_FROM_EXTRUDER
//  702 	eprBurnValue(">Y_PROBE_OFFSET_FROM_EXTRUDER", &mksCfg.y_probe_offset_from_extruder, EPR_Y_PROBE_OFFSET_FROM_EXTRUDER);
        MOVW     R2,#+1559
        ADD      R1,R6,#+800
        LDR.W    R0,??DataTable250_44
          CFI FunCall _Z12eprBurnValuePcPft
        BL       _Z12eprBurnValuePcPft
//  703 //XY_PROBE_SPEED
//  704 	eprBurnValue(">XY_PROBE_SPEED", &mksCfg.xy_probe_speed, EPR_XY_PROBE_SPEED);
        MOVW     R2,#+1563
        ADD      R1,R6,#+804
        ADR.W    R0,`?<Constant ">XY_PROBE_SPEED">`
          CFI FunCall _Z12eprBurnValuePcPft
        BL       _Z12eprBurnValuePcPft
//  705 //Z_PROBE_SPEED_FAST
//  706 	eprBurnValue(">Z_PROBE_SPEED_FAST", &mksCfg.z_probe_speed_fast, EPR_Z_PROBE_SPEED_FAST);
        MOVW     R2,#+1567
        ADD      R1,R6,#+808
        ADR.W    R0,`?<Constant ">Z_PROBE_SPEED_FAST">`
          CFI FunCall _Z12eprBurnValuePcPft
        BL       _Z12eprBurnValuePcPft
//  707 //Z_PROBE_SPEED_SLOW
//  708 	eprBurnValue(">Z_PROBE_SPEED_SLOW", &mksCfg.z_probe_speed_slow, EPR_Z_PROBE_SPEED_SLOW);
        MOVW     R2,#+1571
        ADD      R1,R6,#+812
        ADR.W    R0,`?<Constant ">Z_PROBE_SPEED_SLOW">`
          CFI FunCall _Z12eprBurnValuePcPft
        BL       _Z12eprBurnValuePcPft
//  709 
//  710 //USE_MIN/MAX_PLUG
//  711 	eprBurnValue(">USE_XMIN_PLUG", &mksCfg.use_xmin_plug, EPR_USE_XMIN_PLUG);
        MOVW     R2,#+1575
        ADD      R1,R6,#+816
        LDR.W    R0,??DataTable250_45
          CFI FunCall _Z12eprBurnValuePcPht
        BL       _Z12eprBurnValuePcPht
//  712 	eprBurnValue(">USE_YMIN_PLUG", &mksCfg.use_ymin_plug, EPR_USE_YMIN_PLUG);
        MOV      R2,#+1576
        ADDW     R1,R6,#+817
        ADR.W    R0,`?<Constant ">USE_YMIN_PLUG">`
          CFI FunCall _Z12eprBurnValuePcPht
        BL       _Z12eprBurnValuePcPht
//  713 	eprBurnValue(">USE_ZMIN_PLUG", &mksCfg.use_zmin_plug, EPR_USE_ZMIN_PLUG);
        MOVW     R2,#+1577
        ADDW     R1,R6,#+818
        ADR.W    R0,`?<Constant ">USE_ZMIN_PLUG">`
          CFI FunCall _Z12eprBurnValuePcPht
        BL       _Z12eprBurnValuePcPht
//  714 	eprBurnValue(">USE_XMAX_PLUG", &mksCfg.use_xmax_plug, EPR_USE_XMAX_PLUG);
        MOVW     R2,#+1578
        ADDW     R1,R6,#+819
        ADR.W    R0,`?<Constant ">USE_XMAX_PLUG">`
          CFI FunCall _Z12eprBurnValuePcPht
        BL       _Z12eprBurnValuePcPht
//  715 	eprBurnValue(">USE_YMAX_PLUG", &mksCfg.use_ymax_plug, EPR_USE_YMAX_PLUG);
        MOVW     R2,#+1579
        ADD      R1,R6,#+820
        ADR.W    R0,`?<Constant ">USE_YMAX_PLUG">`
          CFI FunCall _Z12eprBurnValuePcPht
        BL       _Z12eprBurnValuePcPht
//  716 	eprBurnValue(">USE_ZMAX_PLUG", &mksCfg.use_zmax_plug, EPR_USE_ZMAX_PLUG);
        MOVW     R2,#+1580
        ADDW     R1,R6,#+821
        ADR.W    R0,`?<Constant ">USE_ZMAX_PLUG">`
          CFI FunCall _Z12eprBurnValuePcPht
        BL       _Z12eprBurnValuePcPht
//  717 
//  718 //PROBE_BED_POSITION
//  719 	eprBurnValue(">LEFT_PROBE_BED_POSITION", &mksCfg.left_probe_bed_position, EPR_LEFT_PROBE_BED_POSITION);
        MOVW     R2,#+1581
        ADD      R1,R6,#+824
        ADR.W    R0,`?<Constant ">LEFT_PROBE_BED_POSITION">`
          CFI FunCall _Z12eprBurnValuePcPft
        BL       _Z12eprBurnValuePcPft
//  720 	eprBurnValue(">RIGHT_PROBE_BED_POSITION", &mksCfg.right_probe_bed_position, EPR_RIGHT_PROBE_BED_POSITION);
        MOVW     R2,#+1585
        ADD      R1,R6,#+828
        ADR.W    R0,`?<Constant ">RIGHT_PROBE_BED_POSI...">`
          CFI FunCall _Z12eprBurnValuePcPft
        BL       _Z12eprBurnValuePcPft
//  721 	eprBurnValue(">FRONT_PROBE_BED_POSITION", &mksCfg.front_probe_bed_position, EPR_FRONT_PROBE_BED_POSITION);
        MOVW     R2,#+1589
        ADD      R1,R6,#+832
        LDR.W    R0,??DataTable250_46
          CFI FunCall _Z12eprBurnValuePcPft
        BL       _Z12eprBurnValuePcPft
//  722 	eprBurnValue(">BACK_PROBE_BED_POSITION", &mksCfg.back_probe_bed_position, EPR_BACK_PROBE_BED_POSITION);
        MOVW     R2,#+1593
        ADD      R1,R6,#+836
        ADR.W    R0,`?<Constant ">BACK_PROBE_BED_POSITION">`
          CFI FunCall _Z12eprBurnValuePcPft
        BL       _Z12eprBurnValuePcPft
//  723 
//  724 //MESH_INSET
//  725 	eprBurnValue(">MESH_INSET", &mksCfg.mesh_inst, EPR_MESH_INSET);
        MOVW     R2,#+1597
        ADD      R1,R6,#+840
        LDR.W    R0,??DataTable250_47
          CFI FunCall _Z12eprBurnValuePcPht
        BL       _Z12eprBurnValuePcPht
//  726 
//  727 //Z_MIN_PROBE_PIN_MODE
//  728 	eprBurnValue(">Z_MIN_PROBE_PIN_MODE", &mksCfg.z_min_probe_pin_mode, EPR_Z_MIN_PROBE_PIN_MODE);
        MOVW     R2,#+1598
        ADDW     R1,R6,#+841
        ADR.W    R0,`?<Constant ">Z_MIN_PROBE_PIN_MODE">`
          CFI FunCall _Z12eprBurnValuePcPht
        BL       _Z12eprBurnValuePcPht
//  729 
//  730 
//  731 //ABL_PROBE_PT
//  732 
//  733 	eprBurnValue(">ABL_PROBE_PT_1_X", &mksCfg.abl_probe_pt1_x, EPR_ABL_PROBE_PT_1_X);
        MOVW     R2,#+1599
        ADD      R1,R6,#+844
        ADR.W    R0,`?<Constant ">ABL_PROBE_PT_1_X">`
          CFI FunCall _Z12eprBurnValuePcPft
        BL       _Z12eprBurnValuePcPft
//  734 	eprBurnValue(">ABL_PROBE_PT_1_Y", &mksCfg.abl_probe_pt1_y, EPR_ABL_PROBE_PT_1_Y);
        MOVW     R2,#+1603
        ADD      R1,R6,#+848
        LDR.W    R0,??DataTable250_48
          CFI FunCall _Z12eprBurnValuePcPft
        BL       _Z12eprBurnValuePcPft
//  735 	eprBurnValue(">ABL_PROBE_PT_2_X", &mksCfg.abl_probe_pt2_x, EPR_ABL_PROBE_PT_2_X);
        MOVW     R2,#+1607
        ADD      R1,R6,#+852
        ADR.W    R0,`?<Constant ">ABL_PROBE_PT_2_X">`
          CFI FunCall _Z12eprBurnValuePcPft
        BL       _Z12eprBurnValuePcPft
//  736 	eprBurnValue(">ABL_PROBE_PT_2_Y", &mksCfg.abl_probe_pt2_y, EPR_ABL_PROBE_PT_2_Y);
        MOVW     R2,#+1611
        ADD      R1,R6,#+856
        ADR.W    R0,`?<Constant ">ABL_PROBE_PT_2_Y">`
          CFI FunCall _Z12eprBurnValuePcPft
        BL       _Z12eprBurnValuePcPft
//  737 	eprBurnValue(">ABL_PROBE_PT_3_X", &mksCfg.abl_probe_pt3_x, EPR_ABL_PROBE_PT_3_X);
        MOVW     R2,#+1615
        ADD      R1,R6,#+860
        ADR.W    R0,`?<Constant ">ABL_PROBE_PT_3_X">`
          CFI FunCall _Z12eprBurnValuePcPft
        BL       _Z12eprBurnValuePcPft
//  738 	eprBurnValue(">ABL_PROBE_PT_3_Y", &mksCfg.abl_probe_pt3_y, EPR_ABL_PROBE_PT_3_Y);
        MOVW     R2,#+1619
        ADD      R1,R6,#+864
        ADR.W    R0,`?<Constant ">ABL_PROBE_PT_3_Y">`
          CFI FunCall _Z12eprBurnValuePcPft
        BL       _Z12eprBurnValuePcPft
//  739 
//  740 
//  741 //UBL_MESH_INSET
//  742 	eprBurnValue(">UBL_MESH_INSET", &mksCfg.ubl_mesh_inset, EPR_UBL_MESH_INSET);
        MOVW     R2,#+1623
        ADD      R1,R6,#+868
        LDR.W    R0,??DataTable250_49
          CFI FunCall _Z12eprBurnValuePcPst
        BL       _Z12eprBurnValuePcPst
//  743 //UBL_PROBE_PT_1_X
//  744 	eprBurnValue(">UBL_PROBE_PT_1_X", &mksCfg.ubl_probe_pt_1_x, EPR_UBL_PROBE_PT_1_X);
        MOVW     R2,#+1625
        ADD      R1,R6,#+872
        ADR.W    R0,`?<Constant ">UBL_PROBE_PT_1_X">`
          CFI FunCall _Z12eprBurnValuePcPft
        BL       _Z12eprBurnValuePcPft
//  745 	eprBurnValue(">UBL_PROBE_PT_1_Y", &mksCfg.ubl_probe_pt_1_y, EPR_UBL_PROBE_PT_1_Y);
        MOVW     R2,#+1629
        ADD      R1,R6,#+876
        ADR.W    R0,`?<Constant ">UBL_PROBE_PT_1_Y">`
          CFI FunCall _Z12eprBurnValuePcPft
        BL       _Z12eprBurnValuePcPft
//  746 	eprBurnValue(">UBL_PROBE_PT_2_X", &mksCfg.ubl_probe_pt_2_x, EPR_UBL_PROBE_PT_2_X);
        MOVW     R2,#+1633
        ADD      R1,R6,#+880
        ADR.W    R0,`?<Constant ">UBL_PROBE_PT_2_X">`
          CFI FunCall _Z12eprBurnValuePcPft
        BL       _Z12eprBurnValuePcPft
//  747 	eprBurnValue(">UBL_PROBE_PT_2_Y", &mksCfg.ubl_probe_pt_2_y, EPR_UBL_PROBE_PT_2_Y);
        MOVW     R2,#+1637
        ADD      R1,R6,#+884
        ADR.W    R0,`?<Constant ">UBL_PROBE_PT_2_Y">`
          CFI FunCall _Z12eprBurnValuePcPft
        BL       _Z12eprBurnValuePcPft
//  748 	eprBurnValue(">UBL_PROBE_PT_3_X", &mksCfg.ubl_probe_pt_3_x, EPR_UBL_PROBE_PT_3_X);
        MOVW     R2,#+1641
        ADD      R1,R6,#+888
        LDR.W    R0,??DataTable250_50
          CFI FunCall _Z12eprBurnValuePcPft
        BL       _Z12eprBurnValuePcPft
//  749 	eprBurnValue(">UBL_PROBE_PT_3_Y", &mksCfg.ubl_probe_pt_3_y, EPR_UBL_PROBE_PT_3_Y);
        MOVW     R2,#+1645
        ADD      R1,R6,#+892
        ADR.W    R0,`?<Constant ">UBL_PROBE_PT_3_Y">`
          CFI FunCall _Z12eprBurnValuePcPft
        BL       _Z12eprBurnValuePcPft
//  750 	
//  751 //FIL_RUNOUT_INVERTING
//  752 	eprBurnValue(">FIL_RUNOUT_INVERTING", &mksCfg.fil_runout_inverting, EPR_FIL_RUNOUT_INVERTING);
        MOVW     R2,#+1649
        ADD      R1,R6,#+896
        ADR.W    R0,`?<Constant ">FIL_RUNOUT_INVERTING">`
          CFI FunCall _Z12eprBurnValuePcPht
        BL       _Z12eprBurnValuePcPht
//  753 
//  754 //FILAMENT_CHANGE_X_POS
//  755 	eprBurnValue(">FILAMENT_CHANGE_X_POS", &mksCfg.filament_change_x_pos, EPR_FILAMENT_CHANGE_X_POS);
        MOVW     R2,#+1650
        ADD      R1,R6,#+900
        ADR.W    R0,`?<Constant ">FILAMENT_CHANGE_X_POS">`
          CFI FunCall _Z12eprBurnValuePcPft
        BL       _Z12eprBurnValuePcPft
//  756 	eprBurnValue(">FILAMENT_CHANGE_Y_POS", &mksCfg.filament_change_y_pos, EPR_FILAMENT_CHANGE_Y_POS);
        MOVW     R2,#+1654
        ADD      R1,R6,#+904
        LDR.W    R0,??DataTable250_51
          CFI FunCall _Z12eprBurnValuePcPft
        BL       _Z12eprBurnValuePcPft
//  757 	eprBurnValue(">FILAMENT_CHANGE_Z_ADD", &mksCfg.filament_change_z_add, EPR_FILAMENT_CHANGE_Z_ADD);
        MOVW     R2,#+1658
        ADD      R1,R6,#+908
        ADR.W    R0,`?<Constant ">FILAMENT_CHANGE_Z_ADD">`
          CFI FunCall _Z12eprBurnValuePcPft
        BL       _Z12eprBurnValuePcPft
//  758 
//  759 //THERMAL_PROTECTION_PERIOD
//  760 	eprBurnValue(">THERMAL_PROTECTION_PERIOD", &mksCfg.thermal_protection_period, EPR_THERMAL_PROTECTION_PERIOD);
        MOVW     R2,#+1662
        ADD      R1,R6,#+912
        ADR.W    R0,`?<Constant ">THERMAL_PROTECTION_P...">`
          CFI FunCall _Z12eprBurnValuePcPst
        BL       _Z12eprBurnValuePcPst
//  761 	eprBurnValue(">THERMAL_PROTECTION_HYSTERESIS", &mksCfg.thermal_protection_hysteresis, EPR_THERMAL_PROTECTION_HYSTERESIS);
        MOV      R2,#+1664
        ADDW     R1,R6,#+914
        LDR.W    R0,??DataTable250_52
          CFI FunCall _Z12eprBurnValuePcPht
        BL       _Z12eprBurnValuePcPht
//  762 	eprBurnValue(">WATCH_TEMP_PERIOD", &mksCfg.watch_temp_period, EPR_WATCH_TEMP_PERIOD);
        MOVW     R2,#+1665
        ADD      R1,R6,#+916
        ADR.W    R0,`?<Constant ">WATCH_TEMP_PERIOD">`
          CFI FunCall _Z12eprBurnValuePcPst
        BL       _Z12eprBurnValuePcPst
//  763 	eprBurnValue(">WATCH_TEMP_INCREASE", &mksCfg.watch_temp_increase, EPR_WATCH_TEMP_INCREASE);
        MOVW     R2,#+1667
        ADDW     R1,R6,#+918
        ADR.W    R0,`?<Constant ">WATCH_TEMP_INCREASE">`
          CFI FunCall _Z12eprBurnValuePcPht
        BL       _Z12eprBurnValuePcPht
//  764 
//  765 //THERMAL_PROTECTION_BED_PERIOD
//  766 	eprBurnValue(">THERMAL_PROTECTION_BED_PERIOD", &mksCfg.thermal_protection_bed_period, EPR_THERMAL_PROTECTION_BED_PERIOD);
        MOVW     R2,#+1668
        ADD      R1,R6,#+920
        LDR.W    R0,??DataTable250_53
          CFI FunCall _Z12eprBurnValuePcPst
        BL       _Z12eprBurnValuePcPst
//  767 	eprBurnValue(">THERMAL_PROTECTION_BED_HYSTERESIS", &mksCfg.thermal_protection_bed_hysteresis, EPR_THERMAL_PROTECTION_BED_HYSTERESIS);
        MOVW     R2,#+1670
        ADDW     R1,R6,#+922
        ADR.W    R0,`?<Constant ">THERMAL_PROTECTION_B...">_1`
          CFI FunCall _Z12eprBurnValuePcPht
        BL       _Z12eprBurnValuePcPht
//  768 	eprBurnValue(">WATCH_BED_TEMP_PERIOD", &mksCfg.watch_bed_temp_period, EPR_WATCH_BED_TEMP_PERIOD);
        MOVW     R2,#+1671
        ADD      R1,R6,#+924
        LDR.W    R0,??DataTable250_54
          CFI FunCall _Z12eprBurnValuePcPst
        BL       _Z12eprBurnValuePcPst
//  769 	eprBurnValue(">WATCH_BED_TEMP_INCREASE", &mksCfg.watch_bed_temp_increase, EPR_WATCH_BED_TEMP_INCREASE);
        MOVW     R2,#+1673
        ADDW     R1,R6,#+926
        ADR.W    R0,`?<Constant ">WATCH_BED_TEMP_INCREASE">`
          CFI FunCall _Z12eprBurnValuePcPht
        BL       _Z12eprBurnValuePcPht
//  770 /*
//  771 	tmp_index = (char *)strstr(cfg_buf, ">cfg_hardware_test_enable");
//  772 	
//  773 	if(tmp_index)
//  774 	{
//  775 		mksTmp.cfg_hardware_test_enable = 1;
//  776 	}
//  777 	*/
//  778     eprBurnValue(">cfg_hardware_test_enable",(uint32_t*)&mksTmp.cfg_hardware_test_enable);
        ADD      R1,R4,#+19
        LDR.W    R0,??DataTable250_55
          CFI FunCall _Z12eprBurnValuePcPj
        BL       _Z12eprBurnValuePcPj
//  779 
//  780 //HOTEND_OFFSET_X/Y
//  781 	eprBurnValue(">HOTEND_OFFSET_X", &mksCfg.hotnd_offset_x, EPR_HOTEND_OFFSET_X);
        MOVW     R2,#+1681
        ADD      R1,R6,#+936
        ADR.W    R0,`?<Constant ">HOTEND_OFFSET_X">`
          CFI FunCall _Z12eprBurnValuePcPft
        BL       _Z12eprBurnValuePcPft
//  782 	eprBurnValue(">HOTEND_OFFSET_Y", &mksCfg.hotnd_offset_y, EPR_HOTEND_OFFSET_Y);
        MOVW     R2,#+1685
        ADD      R1,R6,#+940
        ADR.W    R0,`?<Constant ">HOTEND_OFFSET_Y">`
          CFI FunCall _Z12eprBurnValuePcPft
        BL       _Z12eprBurnValuePcPft
//  783 
//  784 //BLTOUCH
//  785 	eprBurnValue(">BLTOUCH", &mksCfg.mkstouch, EPR_MKSTOUCH);
        MOVW     R2,#+1689
        ADD      R1,R6,#+944
        LDR.W    R0,??DataTable250_56
          CFI FunCall _Z12eprBurnValuePcPht
        BL       _Z12eprBurnValuePcPht
//  786 
//  787 //CUSTOMER CMD
//  788 	
//  789 	eprBurnValue(">cfg_language_adjust_type", (uint8_t *)&gCfgItems.multiple_language,EPR_MUTIL_LANGUAGE_FLG);
        MOVW     R2,#+1758
        ADDW     R1,R6,#+447
        ADR.W    R0,`?<Constant ">cfg_language_adjust_...">`
          CFI FunCall _Z12eprBurnValuePcPht
        BL       _Z12eprBurnValuePcPht
//  790 	eprBurnValue(">cfg_language_type", (uint32_t *)&gCfgItems.language_bak);
        ADDW     R1,R6,#+285
        LDR.W    R0,??DataTable250_57
          CFI FunCall _Z12eprBurnValuePcPj
        BL       _Z12eprBurnValuePcPj
//  791 	
//  792 	hexBurnValue(">cfg_background_color",&gCfgItems.background_color,EPR_SCREEN_BKCOLOR);
        MOVW     R2,#+1694
        ADDS     R1,R6,#+4
        ADR.W    R0,`?<Constant ">cfg_background_color">`
          CFI FunCall _Z12hexBurnValuePcPit
        BL       _Z12hexBurnValuePcPit
//  793 	hexBurnValue(">cfg_title_color",&gCfgItems.title_color,EPR_TITIL_COLOR);
        MOVW     R2,#+1698
        ADD      R1,R6,#+8
        ADR.W    R0,`?<Constant ">cfg_title_color">`
          CFI FunCall _Z12hexBurnValuePcPit
        BL       _Z12hexBurnValuePcPit
//  794 	
//  795 	hexBurnValue(">cfg_state_bkcolor",&gCfgItems.state_background_color,EPR_STATE_BKCOLOR);
        MOVW     R2,#+1702
        ADD      R1,R6,#+12
        LDR.W    R0,??DataTable250_58
          CFI FunCall _Z12hexBurnValuePcPit
        BL       _Z12hexBurnValuePcPit
//  796 	hexBurnValue(">cfg_state_textcolor",&gCfgItems.state_text_color,EPR_STATE_TEXTCOLOR);
        MOVW     R2,#+1706
        ADD      R1,R6,#+16
        ADR.W    R0,`?<Constant ">cfg_state_textcolor">`
          CFI FunCall _Z12hexBurnValuePcPit
        BL       _Z12hexBurnValuePcPit
//  797 	hexBurnValue(">cfg_filename_bkcolor",&gCfgItems.filename_background_color,EPR_FILENAME_BKCOLOR);
        MOVW     R2,#+1710
        ADD      R1,R6,#+24
        ADR.W    R0,`?<Constant ">cfg_filename_bkcolor">`
          CFI FunCall _Z12hexBurnValuePcPit
        BL       _Z12hexBurnValuePcPit
//  798 	hexBurnValue(">cfg_filename_textcolor",&gCfgItems.filename_color,EPR_FILENAME_TEXTCOLOR);
        MOVW     R2,#+1714
        ADD      R1,R6,#+20
        LDR.W    R0,??DataTable250_59
          CFI FunCall _Z12hexBurnValuePcPit
        BL       _Z12hexBurnValuePcPit
//  799 	hexBurnValue(">cfg_btn_bkcolor",&gCfgItems.btn_color,EPR_BTN_BKCOLOR);
        MOVW     R2,#+1718
        ADD      R1,R6,#+36
        ADR.W    R0,`?<Constant ">cfg_btn_bkcolor">`
          CFI FunCall _Z12hexBurnValuePcPit
        BL       _Z12hexBurnValuePcPit
//  800 	hexBurnValue(">cfg_btn_textcolor",&gCfgItems.btn_textcolor,EPR_BTN_TEXTCOLOR);
        MOVW     R2,#+1722
        ADD      R1,R6,#+40
        ADR.W    R0,`?<Constant ">cfg_btn_textcolor">`
          CFI FunCall _Z12hexBurnValuePcPit
        BL       _Z12hexBurnValuePcPit
//  801 	hexBurnValue(">cfg_state_btn_bkcolor",&gCfgItems.btn_state_color,EPR_STATE_BTN_BKCOLOR);
        MOVW     R2,#+1726
        ADD      R1,R6,#+44
        ADR.W    R0,`?<Constant ">cfg_state_btn_bkcolor">`
          CFI FunCall _Z12hexBurnValuePcPit
        BL       _Z12hexBurnValuePcPit
//  802 	hexBurnValue(">cfg_state_btn_textcolor",&gCfgItems.btn_state_textcolor,EPR_STATE_BTN_TEXTCOLOR);	
        MOVW     R2,#+1730
        ADD      R1,R6,#+48
        LDR.W    R0,??DataTable250_60
          CFI FunCall _Z12hexBurnValuePcPit
        BL       _Z12hexBurnValuePcPit
//  803 	hexBurnValue(">cfg_back_btn_bkcolor",&gCfgItems.back_btn_color,EPR_BACK_BTN_BKCOLOR);
        MOVW     R2,#+1734
        ADD      R1,R6,#+60
        ADR.W    R0,`?<Constant ">cfg_back_btn_bkcolor">`
          CFI FunCall _Z12hexBurnValuePcPit
        BL       _Z12hexBurnValuePcPit
//  804 	hexBurnValue(">cfg_back_btn_textcolor",&gCfgItems.back_btn_textcolor,EPR_BACK_BTN_TEXTCOLOR);
        MOVW     R2,#+1738
        ADD      R1,R6,#+64
        ADR.W    R0,`?<Constant ">cfg_back_btn_textcolor">`
          CFI FunCall _Z12hexBurnValuePcPit
        BL       _Z12hexBurnValuePcPit
//  805 	hexBurnValue(">cfg_sel_btn_bkcolor",&gCfgItems.btn_state_sel_color,EPR_SEL_BTN_BKCOLOR);
        MOVW     R2,#+1742
        ADD      R1,R6,#+52
        LDR.W    R0,??DataTable250_61
          CFI FunCall _Z12hexBurnValuePcPit
        BL       _Z12hexBurnValuePcPit
//  806 	hexBurnValue(">cfg_sel_btn_textcolor",&gCfgItems.btn_state_sel_textcolor,EPR_SEL_BTN_TEXTCOLOR);
        MOVW     R2,#+1746
        ADD      R1,R6,#+56
        ADR.W    R0,`?<Constant ">cfg_sel_btn_textcolor">`
          CFI FunCall _Z12hexBurnValuePcPit
        BL       _Z12hexBurnValuePcPit
//  807 	hexBurnValue(">cfg_dialog_btn_bkcolor",&gCfgItems.dialog_btn_color,EPR_DIALOG_BTN_BKCOLOR);
        MOVW     R2,#+1750
        ADD      R1,R6,#+84
        ADR.W    R0,`?<Constant ">cfg_dialog_btn_bkcolor">`
          CFI FunCall _Z12hexBurnValuePcPit
        BL       _Z12hexBurnValuePcPit
//  808 	hexBurnValue(">cfg_dialog_btn_textcolor",&gCfgItems.dialog_btn_textcolor,EPR_DIALOG_BTN_TEXTCOLOR);
        MOVW     R2,#+1754
        ADD      R1,R6,#+88
        LDR.W    R0,??DataTable250_62
          CFI FunCall _Z12hexBurnValuePcPit
        BL       _Z12hexBurnValuePcPit
//  809 
//  810 	eprBurnValue(">cfg_insert_det_module", (uint8_t *)&gCfgItems.insert_det_module, EPR_INSERT_DET_MODULE_TYPE);
        MOVW     R2,#+1799
        ADD      R1,R6,#+444
        ADR.W    R0,`?<Constant ">cfg_insert_det_module">`
          CFI FunCall _Z12eprBurnValuePcPht
        BL       _Z12eprBurnValuePcPht
//  811 	eprBurnValue(">cfg_have_ups_device", (uint8_t *)&gCfgItems.have_ups, EPR_HAS_UPS);
        MOV      R2,#+1800
        ADD      R1,R6,#+205
        ADR.W    R0,`?<Constant ">cfg_have_ups_device">`
          CFI FunCall _Z12eprBurnValuePcPht
        BL       _Z12eprBurnValuePcPht
//  812 	eprBurnValue(">cfg_filament_det0_trigger_level", (uint8_t *)&gCfgItems.filament_det0_level_flg, EPR_FILAMENT_DET0_LEVEL);
        MOVW     R2,#+1801
        ADDW     R1,R6,#+445
        LDR.W    R0,??DataTable250_63
          CFI FunCall _Z12eprBurnValuePcPht
        BL       _Z12eprBurnValuePcPht
//  813 	eprBurnValue(">cfg_filament_det1_trigger_level", (uint8_t *)&gCfgItems.filament_det1_level_flg, EPR_FILAMENT_DET1_LEVEL);
        MOVW     R2,#+1802
        ADD      R1,R6,#+446
        ADR.W    R0,`?<Constant ">cfg_filament_det1_tr...">`
          CFI FunCall _Z12eprBurnValuePcPht
        BL       _Z12eprBurnValuePcPht
//  814 	eprBurnValue(">cfg_mask_det_function", (uint8_t *)&gCfgItems.mask_det_Function, EPR_MASK_DET_FUNCTION);
        MOVW     R2,#+1803
        ADD      R1,R6,#+458
        LDR.W    R0,??DataTable250_64
          CFI FunCall _Z12eprBurnValuePcPht
        BL       _Z12eprBurnValuePcPht
//  815 
//  816 	eprBurnValue(">cfg_filament_load_length", (int32_t *)&gCfgItems.filamentchange_load_length, EPR_FILAMENT_LOAD_LENGTH);
        MOV      R2,#+1768
        ADD      R1,R6,#+228
        ADR.W    R0,`?<Constant ">cfg_filament_load_le...">`
          CFI FunCall _Z12eprBurnValuePcPit
        BL       _Z12eprBurnValuePcPit
//  817 	eprBurnValue(">cfg_filament_load_speed", (int32_t *)&gCfgItems.filamentchange_load_speed, EPR_FILAMENT_LOAD_SPEED);
        MOVW     R2,#+1772
        ADD      R1,R6,#+220
        LDR.W    R0,??DataTable251
          CFI FunCall _Z12eprBurnValuePcPit
        BL       _Z12eprBurnValuePcPit
//  818 	eprBurnValue(">cfg_filament_load_limit_temperature", (int32_t *)&gCfgItems.filament_load_limit_temper, EPR_FILAMENT_LOAD_LIMIT_TEMPER);
        MOV      R2,#+1776
        ADD      R1,R6,#+236
        ADR.W    R0,`?<Constant ">cfg_filament_load_li...">`
          CFI FunCall _Z12eprBurnValuePcPit
        BL       _Z12eprBurnValuePcPit
//  819 	eprBurnValue(">cfg_filament_unload_length", (int32_t *)&gCfgItems.filamentchange_unload_length, EPR_FILAMENT_UNLOAD_LENGTH);
        MOVW     R2,#+1780
        ADD      R1,R6,#+232
        LDR.W    R0,??DataTable251_1
          CFI FunCall _Z12eprBurnValuePcPit
        BL       _Z12eprBurnValuePcPit
//  820 	eprBurnValue(">cfg_filament_unload_speed", (int32_t *)&gCfgItems.filamentchange_unload_speed, EPR_FILAMENT_UNLOAD_SPEED);
        MOV      R2,#+1784
        ADD      R1,R6,#+224
        ADR.W    R0,`?<Constant ">cfg_filament_unload_...">_1`
          CFI FunCall _Z12eprBurnValuePcPit
        BL       _Z12eprBurnValuePcPit
//  821 	eprBurnValue(">cfg_filament_unload_limit_temperature", (int32_t *)&gCfgItems.filament_unload_limit_temper, EPR_FILAMENT_UNLOAD_LIMIT_TEMPER);
        MOVW     R2,#+1788
        ADD      R1,R6,#+240
        LDR.W    R0,??DataTable251_2
          CFI FunCall _Z12eprBurnValuePcPit
        BL       _Z12eprBurnValuePcPit
//  822 	
//  823 	eprBurnValue(">setmenu_func1_display", &gCfgItems.func_btn1_display_flag, EPR_SETMENU_FUNC1_DISPLAY_FLG);
        MOVW     R2,#+1793
        ADD      R1,R6,#+213
        ADR.W    R0,`?<Constant ">setmenu_func1_display">`
          CFI FunCall _Z12eprBurnValuePcPht
        BL       _Z12eprBurnValuePcPht
//  824 	flashBurnValue(">setmenu_func1:", BUTTON_FUNCTION1_ADDR);
        MOVW     R4,#+2132
        MOV      R1,R4
        ADR.W    R0,`?<Constant ">setmenu_func1:">`
          CFI FunCall _Z14flashBurnValuePct
        BL       _Z14flashBurnValuePct
//  825 	SPI_FLASH_BufferRead((u8 *)cmd_code,BUTTON_FUNCTION1_ADDR,201);
        MOVS     R2,#+201
        MOV      R1,R4
        MOV      R0,R5
          CFI FunCall SPI_FLASH_BufferRead
        BL       SPI_FLASH_BufferRead
//  826 	eprBurnValue(">moreitem_pic_cnt", &gCfgItems.MoreItem_pic_cnt,EPR_MORE_ITEM_CNT);
        MOVW     R2,#+1794
        ADD      R1,R6,#+212
        ADR.W    R0,`?<Constant ">moreitem_pic_cnt">`
          CFI FunCall _Z12eprBurnValuePcPht
        BL       _Z12eprBurnValuePcPht
//  827 	flashBurnValue(">moreitem_button1_cmd:", BUTTON_CMD1_ADDR);
        MOVS     R1,#+4
        ADR.W    R0,`?<Constant ">moreitem_button1_cmd:">`
          CFI FunCall _Z14flashBurnValuePct
        BL       _Z14flashBurnValuePct
//  828 	flashBurnValue(">moreitem_button2_cmd:", BUTTON_CMD2_ADDR);
        MOVS     R1,#+208
        LDR.W    R0,??DataTable251_3
          CFI FunCall _Z14flashBurnValuePct
        BL       _Z14flashBurnValuePct
//  829 	flashBurnValue(">moreitem_button3_cmd:", BUTTON_CMD3_ADDR);
        MOV      R1,#+412
        LDR.W    R0,??DataTable251_4
          CFI FunCall _Z14flashBurnValuePct
        BL       _Z14flashBurnValuePct
//  830 	flashBurnValue(">moreitem_button4_cmd:", BUTTON_CMD4_ADDR);
        MOV      R1,#+616
        ADR.W    R0,`?<Constant ">moreitem_button4_cmd:">`
          CFI FunCall _Z14flashBurnValuePct
        BL       _Z14flashBurnValuePct
//  831 	flashBurnValue(">moreitem_button5_cmd:", BUTTON_CMD5_ADDR);
        MOV      R1,#+820
        LDR.W    R0,??DataTable251_5
          CFI FunCall _Z14flashBurnValuePct
        BL       _Z14flashBurnValuePct
//  832 	flashBurnValue(">moreitem_button6_cmd:", BUTTON_CMD6_ADDR);
        MOV      R1,#+1024
        ADR.W    R0,`?<Constant ">moreitem_button6_cmd:">`
          CFI FunCall _Z14flashBurnValuePct
        BL       _Z14flashBurnValuePct
//  833 	flashBurnValue(">moreitem_button7_cmd:", BUTTON_CMD7_ADDR);
        MOVW     R1,#+1228
        LDR.W    R0,??DataTable251_6
          CFI FunCall _Z14flashBurnValuePct
        BL       _Z14flashBurnValuePct
//  834 	eprBurnValue(">morefunc_cnt", &gCfgItems.morefunc_cnt,EPR_PRINTING_MENU_MORE_FUNC_CNT);
        MOVW     R2,#+1795
        ADD      R1,R6,#+218
        ADR.W    R0,`?<Constant ">morefunc_cnt">`
          CFI FunCall _Z12eprBurnValuePcPht
        BL       _Z12eprBurnValuePcPht
//  835 	flashBurnValue(">morefunc1_cmd:", BUTTON_MOREFUNC1_ADDR);
        MOVW     R1,#+2540
        ADR.W    R0,`?<Constant ">morefunc1_cmd:">`
          CFI FunCall _Z14flashBurnValuePct
        BL       _Z14flashBurnValuePct
//  836 	flashBurnValue(">morefunc2_cmd:", BUTTON_MOREFUNC2_ADDR);
        MOVW     R1,#+2744
        ADR.W    R0,`?<Constant ">morefunc2_cmd:">`
          CFI FunCall _Z14flashBurnValuePct
        BL       _Z14flashBurnValuePct
//  837 	flashBurnValue(">morefunc3_cmd:", BUTTON_MOREFUNC3_ADDR);
        MOVW     R1,#+2948
        ADR.W    R0,`?<Constant ">morefunc3_cmd:">`
          CFI FunCall _Z14flashBurnValuePct
        BL       _Z14flashBurnValuePct
//  838 	flashBurnValue(">morefunc4_cmd:", BUTTON_MOREFUNC4_ADDR);
        MOV      R1,#+3152
        LDR.W    R0,??DataTable251_7
          CFI FunCall _Z14flashBurnValuePct
        BL       _Z14flashBurnValuePct
//  839 	flashBurnValue(">morefunc5_cmd:", BUTTON_MOREFUNC5_ADDR);
        MOVW     R1,#+3356
        ADR.W    R0,`?<Constant ">morefunc5_cmd:">`
          CFI FunCall _Z14flashBurnValuePct
        BL       _Z14flashBurnValuePct
//  840 	flashBurnValue(">morefunc6_cmd:", BUTTON_MOREFUNC6_ADDR);
        MOVW     R1,#+3560
        ADR.W    R0,`?<Constant ">morefunc6_cmd:">`
          CFI FunCall _Z14flashBurnValuePct
        BL       _Z14flashBurnValuePct
//  841 	
//  842 	eprBurnValue(">cfg_btn_text_offset", (uint8_t *)&gCfgItems.btn_text_offset,EPR_BTN_TEXT_OFFSET);
        MOVW     R2,#+1796
        ADD      R1,R6,#+660
        ADR.W    R0,`?<Constant ">cfg_btn_text_offset">`
          CFI FunCall _Z12eprBurnValuePcPht
        BL       _Z12eprBurnValuePcPht
//  843 	eprBurnValue(">cfg_screen_display_mode", (uint8_t *)&gCfgItems.display_style,EPR_SCREEN_DISPLAY_STYLE);
        MOVW     R2,#+1797
        ADDW     R1,R6,#+661
        LDR.W    R0,??DataTable251_8
          CFI FunCall _Z12eprBurnValuePcPht
        BL       _Z12eprBurnValuePcPht
//  844 	
//  845 	eprBurnValue(">cfg_pwroff_save_mode", (uint8_t *)&gCfgItems.pwroff_save_mode,EPR_PWROFF_SAVE_MODE);
        MOVW     R2,#+1798
        ADDW     R1,R6,#+415
        ADR.W    R0,`?<Constant ">cfg_pwroff_save_mode">`
          CFI FunCall _Z12eprBurnValuePcPht
        BL       _Z12eprBurnValuePcPht
//  846 	
//  847 	//自动调平指令
//  848 	flashBurnValue(">cfg_auto_leveling_cmd:", BUTTON_AUTOLEVELING_ADDR);
        MOV      R1,#+3968
        ADR.W    R0,`?<Constant ">cfg_auto_leveling_cmd:">`
          CFI FunCall _Z14flashBurnValuePct
        BL       _Z14flashBurnValuePct
//  849 	eprBurnValue(">cfg_leveling_mode", (uint8_t *)&gCfgItems.leveling_mode,EPR_LEVELING_MODE);
        MOVW     R2,#+1804
        ADD      R1,R6,#+252
        LDR.W    R0,??DataTable251_9
          CFI FunCall _Z12eprBurnValuePcPht
        BL       _Z12eprBurnValuePcPht
//  850 	eprBurnValue(">cfg_point_number", (uint8_t *)&gCfgItems.leveling_point_number,EPR_LEVELING_POINT_CNT);
        MOVW     R2,#+1805
        ADD      R1,R6,#+253
        ADR.W    R0,`?<Constant ">cfg_point_number">`
          CFI FunCall _Z12eprBurnValuePcPht
        BL       _Z12eprBurnValuePcPht
//  851 	eprBurnValue_leveling(">cfg_point1:",(int32_t *)&gCfgItems.leveling_point1_x,(int32_t *)&gCfgItems.leveling_point1_y,EPR_LEVELING_POINT1_X,EPR_LEVELING_POINT1_Y);
        MOV      R0,#+1808
        STR      R0,[SP, #+0]
        MOVW     R3,#+1806
        ADD      R2,R6,#+256
        ADD      R1,R6,#+254
        ADR.W    R0,`?<Constant ">cfg_point1:">`
          CFI FunCall _Z21eprBurnValue_levelingPcPiS0_tt
        BL       _Z21eprBurnValue_levelingPcPiS0_tt
//  852 	eprBurnValue_leveling(">cfg_point2:",(int32_t *)&gCfgItems.leveling_point2_x,(int32_t *)&gCfgItems.leveling_point2_y,EPR_LEVELING_POINT2_X,EPR_LEVELING_POINT2_Y);
        MOVW     R0,#+1812
        STR      R0,[SP, #+0]
        MOVW     R3,#+1810
        ADD      R2,R6,#+260
        ADD      R1,R6,#+258
        ADR.W    R0,`?<Constant ">cfg_point2:">`
          CFI FunCall _Z21eprBurnValue_levelingPcPiS0_tt
        BL       _Z21eprBurnValue_levelingPcPiS0_tt
//  853 	eprBurnValue_leveling(">cfg_point3:",(int32_t *)&gCfgItems.leveling_point3_x,(int32_t *)&gCfgItems.leveling_point3_y,EPR_LEVELING_POINT3_X,EPR_LEVELING_POINT3_Y);
        MOV      R0,#+1816
        STR      R0,[SP, #+0]
        MOVW     R3,#+1814
        ADD      R2,R6,#+264
        ADD      R1,R6,#+262
        ADR.W    R0,`?<Constant ">cfg_point3:">`
          CFI FunCall _Z21eprBurnValue_levelingPcPiS0_tt
        BL       _Z21eprBurnValue_levelingPcPiS0_tt
//  854 	eprBurnValue_leveling(">cfg_point4:",(int32_t *)&gCfgItems.leveling_point4_x,(int32_t *)&gCfgItems.leveling_point4_y,EPR_LEVELING_POINT4_X,EPR_LEVELING_POINT4_Y);
        MOVW     R0,#+1820
        STR      R0,[SP, #+0]
        MOVW     R3,#+1818
        ADD      R2,R6,#+268
        ADD      R1,R6,#+266
        ADR.W    R0,`?<Constant ">cfg_point4:">`
          CFI FunCall _Z21eprBurnValue_levelingPcPiS0_tt
        BL       _Z21eprBurnValue_levelingPcPiS0_tt
//  855 	eprBurnValue_leveling(">cfg_point5:",(int32_t *)&gCfgItems.leveling_point5_x,(int32_t *)&gCfgItems.leveling_point5_y,EPR_LEVELING_POINT5_X,EPR_LEVELING_POINT5_Y);
        MOV      R0,#+1824
        STR      R0,[SP, #+0]
        MOVW     R3,#+1822
        ADD      R2,R6,#+272
        ADD      R1,R6,#+270
        ADR.W    R0,`?<Constant ">cfg_point5:">`
          CFI FunCall _Z21eprBurnValue_levelingPcPiS0_tt
        BL       _Z21eprBurnValue_levelingPcPiS0_tt
//  856 
//  857 	eprBurnValue(">cfg_print_over_auto_close", (uint8_t *)&gCfgItems.print_finish_close_machine_flg,EPR_AUTO_CLOSE_MACHINE);
        MOVW     R2,#+1826
        ADD      R1,R6,#+217
        ADR.W    R0,`?<Constant ">cfg_print_over_auto_...">`
          CFI FunCall _Z12eprBurnValuePcPht
        BL       _Z12eprBurnValuePcPht
//  858 
//  859 
//  860     eprBurnValue(">Z2_STEPPER_DRIVERS", &mksCfg.z2_enable, EPR_Z2_ENABLE);
        MOVW     R2,#+1828
        ADDW     R1,R6,#+945
        ADR.W    R0,`?<Constant ">Z2_STEPPER_DRIVERS">`
          CFI FunCall _Z12eprBurnValuePcPht
        BL       _Z12eprBurnValuePcPht
//  861     eprBurnValue(">Z2_ENDSTOPS", &mksCfg.z2_endstops_enable, EPR_Z2_ENDSTOP_ENABLE);
        MOVW     R2,#+1829
        ADDW     R1,R6,#+946
        ADR.W    R0,`?<Constant ">Z2_ENDSTOPS">`
          CFI FunCall _Z12eprBurnValuePcPht
        BL       _Z12eprBurnValuePcPht
//  862     eprBurnValue(">Z2_USE_ENDSTOP", &mksCfg.z2_endstop, EPR_Z2_ENDSTOP);
        MOVW     R2,#+1830
        ADDW     R1,R6,#+947
        ADR.W    R0,`?<Constant ">Z2_USE_ENDSTOP">`
          CFI FunCall _Z12eprBurnValuePcPht
        BL       _Z12eprBurnValuePcPht
//  863     
//  864     eprBurnValue(">X_ENABLE_ON", &mksCfg.x_enable_on, EPR_X_ENABLE_ON);
        MOVW     R2,#+1831
        ADD      R1,R6,#+948
        ADR.W    R0,`?<Constant ">X_ENABLE_ON">`
          CFI FunCall _Z12eprBurnValuePcPht
        BL       _Z12eprBurnValuePcPht
//  865     eprBurnValue(">Y_ENABLE_ON", &mksCfg.y_enable_on, EPR_Y_ENABLE_ON);
        MOV      R2,#+1832
        ADDW     R1,R6,#+949
        ADR.W    R0,`?<Constant ">Y_ENABLE_ON">`
          CFI FunCall _Z12eprBurnValuePcPht
        BL       _Z12eprBurnValuePcPht
//  866     eprBurnValue(">Z_ENABLE_ON", &mksCfg.z_enable_on, EPR_Z_ENABLE_ON);
        MOVW     R2,#+1833
        ADDW     R1,R6,#+950
        ADR.W    R0,`?<Constant ">Z_ENABLE_ON">`
          CFI FunCall _Z12eprBurnValuePcPht
        BL       _Z12eprBurnValuePcPht
//  867     eprBurnValue(">E_ENABLE_ON", &mksCfg.e_enable_on, EPR_E_ENABLE_ON);
        MOVW     R2,#+1834
        ADDW     R1,R6,#+951
        ADR.W    R0,`?<Constant ">E_ENABLE_ON">`
          CFI FunCall _Z12eprBurnValuePcPht
        BL       _Z12eprBurnValuePcPht
//  868 
//  869 	eprBurnValue(">DISABLE_WIFI", (uint8_t *)&gCfgItems.wifi_btn_state, EPR_DISABLE_WIFI);
        MOVW     R2,#+1836
        ADDW     R1,R6,#+669
        ADR.W    R0,`?<Constant ">DISABLE_WIFI">`
          CFI FunCall _Z12eprBurnValuePcPht
        BL       _Z12eprBurnValuePcPht
//  870 
//  871 	eprBurnValue(">PAUSE_UNLOAD_LEN",(uint8_t *)&gCfgItems.pause_unload_len, EPR_PAUSE_UNLOAD_LEN);
        MOVW     R2,#+1837
        ADDW     R1,R6,#+670
        ADR.W    R0,`?<Constant ">PAUSE_UNLOAD_LEN">`
          CFI FunCall _Z12eprBurnValuePcPht
        BL       _Z12eprBurnValuePcPht
//  872 	eprBurnValue(">RESUME_LOAD_LEN",(uint8_t *)&gCfgItems.resume_load_len, EPR_RESUME_LOAD_LEN);
        MOVW     R2,#+1838
        ADDW     R1,R6,#+671
        ADR.W    R0,`?<Constant ">RESUME_LOAD_LEN">`
          CFI FunCall _Z12eprBurnValuePcPht
        BL       _Z12eprBurnValuePcPht
//  873 	eprBurnValue(">RESUME_SPEED",(int16_t *)&gCfgItems.resume_speed,EPR_RESUME_SPEED);
        MOVW     R2,#+1839
        ADD      R1,R6,#+672
        ADR.W    R0,`?<Constant ">RESUME_SPEED">`
          CFI FunCall _Z12eprBurnValuePcPst
        BL       _Z12eprBurnValuePcPst
//  874 
//  875 	
//  876 
//  877 	flashBurnValue(">about_type:", ABOUT_TYPE_ADDR);
        MOVW     R1,#+4600
        ADR.W    R0,`?<Constant ">about_type:">`
          CFI FunCall _Z14flashBurnValuePct
        BL       _Z14flashBurnValuePct
//  878 	flashBurnValue(">about_version:", ABOUT_VERSION_ADDR);
        MOVW     R1,#+4700
        ADR.W    R0,`?<Constant ">about_version:">`
          CFI FunCall _Z14flashBurnValuePct
        BL       _Z14flashBurnValuePct
//  879 	flashBurnValue(">about_company:", ABOUT_COMPANY_ADDR);
        MOV      R1,#+4800
        ADR.W    R0,`?<Constant ">about_company:">`
          CFI FunCall _Z14flashBurnValuePct
        BL       _Z14flashBurnValuePct
//  880 	flashBurnValue(">about_email:", ABOUT_EMAINL_ADDR);
        MOVW     R1,#+4900
        ADR.W    R0,`?<Constant ">about_email:">`
          CFI FunCall _Z14flashBurnValuePct
        BL       _Z14flashBurnValuePct
//  881 	
//  882 	eprBurnValue(">SINGLE_NOZZLE", (uint8_t *)&gCfgItems.singleNozzle, EPR_SINGLE_NOZZLE);
        MOVW     R2,#+1842
        ADDW     R1,R6,#+674
        ADR.W    R0,`?<Constant ">SINGLE_NOZZLE">`
          CFI FunCall _Z12eprBurnValuePcPht
        BL       _Z12eprBurnValuePcPht
//  883 	
//  884     
//  885 
//  886     //eprBurnValue(">X_HOME_BUMP_MM", &mksCfg.x_home_bump_mm, EPR_X_HOME_BUMP_MM);
//  887     //eprBurnValue(">Y_HOME_BUMP_MM", &mksCfg.y_home_bump_mm, EPR_Y_HOME_BUMP_MM);
//  888     //eprBurnValue(">Z_HOME_BUMP_MM", &mksCfg.z_home_bump_mm, EPR_Z_HOME_BUMP_MM);
//  889 
//  890     //sean 19.8.16
//  891     eprBurnValue(">WISI_LIST_SCAN",(uint8_t *)&gCfgItems.wifi_scan,EPR_ENABLE_WIFI_SCAN);
        MOVW     R2,#+1841
        ADD      R1,R6,#+668
        ADR.W    R0,`?<Constant ">WISI_LIST_SCAN">`
          CFI FunCall _Z12eprBurnValuePcPht
        BL       _Z12eprBurnValuePcPht
//  892     hexBurnValue2(">cfg_screen_overturn_180",&gCfgItems.overturn_180,DISP_ROTATION_180_ADDR);
        MOVW     R2,#+4174
        ADDW     R1,R6,#+675
        ADR.W    R0,`?<Constant ">cfg_screen_overturn_180">`
          CFI FunCall _Z13hexBurnValue2PcPht
        BL       _Z13hexBurnValue2PcPht
//  893     eprBurnValue(">cfg_Standby_mode",(uint8_t *)&gCfgItems.standby_mode,EPR_STANDBY_MODE);
        MOVW     R2,#+1843
        ADD      R1,R6,#+676
        ADR.W    R0,`?<Constant ">cfg_Standby_mode">`
          CFI FunCall _Z12eprBurnValuePcPht
        BL       _Z12eprBurnValuePcPht
//  894     eprBurnValue(">cfg_Standby_gap_time", (int32_t *)&gCfgItems.standby_time, EPR_STANDBY_TIME);
        MOVW     R2,#+1844
        ADD      R1,R6,#+680
        ADR.W    R0,`?<Constant ">cfg_Standby_gap_time">`
          CFI FunCall _Z12eprBurnValuePcPit
        BL       _Z12eprBurnValuePcPit
//  895 
//  896 	eprBurnValue(">PULSE_DELAY", (int16_t *)&gCfgItems.pulseDelay, EPR_PULSE_DELAY_TIME);
        MOV      R2,#+1848
        ADD      R1,R6,#+684
        LDR.N    R0,??DataTable250_65
          CFI FunCall _Z12eprBurnValuePcPst
        BL       _Z12eprBurnValuePcPst
//  897 	eprBurnValue(">PRINT_FINISHED_COUNT", (int16_t *)&gCfgItems.print_finish_count, EPR_PRINT_FINESH_COUNT);
        MOVW     R2,#+1850
        ADDW     R1,R6,#+686
        ADR.W    R0,`?<Constant ">PRINT_FINISHED_COUNT">`
        POP      {R3-R7,LR}
          CFI R4 SameValue
          CFI R5 SameValue
          CFI R6 SameValue
          CFI R7 SameValue
          CFI R14 SameValue
          CFI CFA R13+0
          CFI FunCall _Z12eprBurnValuePcPst
        B.W      _Z12eprBurnValuePcPst
        DATA
??mksEepromRefresh_4:
        DC32     _ZN7Planner17axis_steps_per_mmE
        DC32     `?<Constant ">DEFAULT_X_STEPS_PER_...">`
        DC32     `?<Constant ">DEFAULT_Y_STEPS_PER_...">`
        DC32     `?<Constant ">DEFAULT_Z_STEPS_PER_...">`
        DC32     `?<Constant ">DEFAULT_E0_STEPS_PER...">`
        DC32     `?<Constant ">DEFAULT_E1_STEPS_PER...">`
        DC32     _ZN7Planner17max_feedrate_mm_sE
        DC32     `?<Constant ">DEFAULT_X_MAX_FEEDRATE">`
        DC32     `?<Constant ">DEFAULT_Y_MAX_FEEDRATE">`
        DC32     `?<Constant ">DEFAULT_Z_MAX_FEEDRATE">`
        DC32     `?<Constant ">DEFAULT_E0_MAX_FEEDRATE">`
        DC32     `?<Constant ">DEFAULT_E1_MAX_FEEDRATE">`
        DC32     _ZN7Planner26max_acceleration_mm_per_s2E
        DC32     `?<Constant ">DEFAULT_X_MAX_ACCELE...">`
        DC32     `?<Constant ">DEFAULT_Y_MAX_ACCELE...">`
        DC32     `?<Constant ">DEFAULT_Z_MAX_ACCELE...">`
        DC32     `?<Constant ">DEFAULT_E0_MAX_ACCEL...">`
        DC32     `?<Constant ">DEFAULT_E1_MAX_ACCEL...">`
        DC32     _ZN7Planner12accelerationE
        DC32     `?<Constant ">DEFAULT_ACCELERATION">`
        DC32     _ZN7Planner20retract_accelerationE
        DC32     `?<Constant ">DEFAULT_RETRACT_ACCE...">`
        DC32     _ZN7Planner19travel_accelerationE
        DC32     `?<Constant ">DEFAULT_TRAVEL_ACCEL...">`
        DC32     _ZN7Planner17min_feedrate_mm_sE
        DC32     `?<Constant ">DEFAULT_MINIMUMFEEDRATE">`
        DC32     _ZN7Planner19min_segment_time_usE
        DC32     `?<Constant ">DEFAULT_MINSEGMENTTIME">`
        DC32     _ZN7Planner24min_travel_feedrate_mm_sE
        DC32     `?<Constant ">DEFAULT_MINTRAVELFEE...">`
          CFI EndBlock cfiBlock19
//  898 	
//  899 
//  900 /*------------------------MKS 新增参数配置 end---------------------------------*/
//  901         
//  902 	
//  903 }

        SECTION `.text`:CODE:NOROOT(2)
        SECTION_TYPE SHT_PROGBITS, 0
        DATA
??DataTable250:
        DC32     0x88e368f1

        SECTION `.text`:CODE:NOROOT(2)
        SECTION_TYPE SHT_PROGBITS, 0
        DATA
??DataTable250_1:
        DC32     0x3fc4f8b5

        SECTION `.text`:CODE:NOROOT(2)
        SECTION_TYPE SHT_PROGBITS, 0
        DATA
??DataTable250_2:
        DC32     cfg_cloud_flag

        SECTION `.text`:CODE:NOROOT(2)
        SECTION_TYPE SHT_PROGBITS, 0
        DATA
??DataTable250_3:
        DC32     _ZN11Temperature5bedKpE

        SECTION `.text`:CODE:NOROOT(2)
        SECTION_TYPE SHT_PROGBITS, 0
        DATA
??DataTable250_4:
        DC32     `?<Constant ">DEFAULT_bedKp">`

        SECTION `.text`:CODE:NOROOT(2)
        SECTION_TYPE SHT_PROGBITS, 0
        DATA
??DataTable250_5:
        DC32     `?<Constant ">DEFAULT_bedKi">`

        SECTION `.text`:CODE:NOROOT(2)
        SECTION_TYPE SHT_PROGBITS, 0
        DATA
??DataTable250_6:
        DC32     _ZN11Temperature5bedKiE

        SECTION `.text`:CODE:NOROOT(2)
        SECTION_TYPE SHT_PROGBITS, 0
        DATA
??DataTable250_7:
        DC32     `?<Constant ">DEFAULT_bedKd">`

        SECTION `.text`:CODE:NOROOT(2)
        SECTION_TYPE SHT_PROGBITS, 0
        DATA
??DataTable250_8:
        DC32     _ZN11Temperature5bedKdE

        SECTION `.text`:CODE:NOROOT(2)
        SECTION_TYPE SHT_PROGBITS, 0
        DATA
??DataTable250_9:
        DC32     zprobe_zoffset

        SECTION `.text`:CODE:NOROOT(2)
        SECTION_TYPE SHT_PROGBITS, 0
        DATA
??DataTable250_10:
        DC32     `?<Constant ">Z_PROBE_OFFSET_FROM_...">`

        SECTION `.text`:CODE:NOROOT(2)
        SECTION_TYPE SHT_PROGBITS, 0
        DATA
??DataTable250_11:
        DC32     delta_radius

        SECTION `.text`:CODE:NOROOT(2)
        SECTION_TYPE SHT_PROGBITS, 0
        DATA
??DataTable250_12:
        DC32     `?<Constant ">DELTA_RADIUS">`

        SECTION `.text`:CODE:NOROOT(2)
        SECTION_TYPE SHT_PROGBITS, 0
        DATA
??DataTable250_13:
        DC32     delta_diagonal_rod

        SECTION `.text`:CODE:NOROOT(2)
        SECTION_TYPE SHT_PROGBITS, 0
        DATA
??DataTable250_14:
        DC32     `?<Constant ">DELTA_DIAGONAL_ROD">`

        SECTION `.text`:CODE:NOROOT(2)
        SECTION_TYPE SHT_PROGBITS, 0
        DATA
??DataTable250_15:
        DC32     delta_segments_per_second

        SECTION `.text`:CODE:NOROOT(2)
        SECTION_TYPE SHT_PROGBITS, 0
        DATA
??DataTable250_16:
        DC32     `?<Constant ">DELTA_SEGMENTS_PER_S...">`

        SECTION `.text`:CODE:NOROOT(2)
        SECTION_TYPE SHT_PROGBITS, 0
        DATA
??DataTable250_17:
        DC32     delta_calibration_radius

        SECTION `.text`:CODE:NOROOT(2)
        SECTION_TYPE SHT_PROGBITS, 0
        DATA
??DataTable250_18:
        DC32     `?<Constant ">DELTA_CALIBRATION_RA...">`

        SECTION `.text`:CODE:NOROOT(2)
        SECTION_TYPE SHT_PROGBITS, 0
        DATA
??DataTable250_19:
        DC32     `?<Constant ">INVERT_X_DIR">`

        SECTION `.text`:CODE:NOROOT(2)
        SECTION_TYPE SHT_PROGBITS, 0
        DATA
??DataTable250_20:
        DC32     `?<Constant ">INVERT_Y_DIR">`

        SECTION `.text`:CODE:NOROOT(2)
        SECTION_TYPE SHT_PROGBITS, 0
        DATA
??DataTable250_21:
        DC32     `?<Constant ">INVERT_Z_DIR">`

        SECTION `.text`:CODE:NOROOT(2)
        SECTION_TYPE SHT_PROGBITS, 0
        DATA
??DataTable250_22:
        DC32     `?<Constant ">INVERT_E0_DIR">`

        SECTION `.text`:CODE:NOROOT(2)
        SECTION_TYPE SHT_PROGBITS, 0
        DATA
??DataTable250_23:
        DC32     `?<Constant ">INVERT_E1_DIR">`

        SECTION `.text`:CODE:NOROOT(2)
        SECTION_TYPE SHT_PROGBITS, 0
        DATA
??DataTable250_24:
        DC32     `?<Constant ">X_HOME_DIR">`

        SECTION `.text`:CODE:NOROOT(2)
        SECTION_TYPE SHT_PROGBITS, 0
        DATA
??DataTable250_25:
        DC32     `?<Constant ">Y_HOME_DIR">`

        SECTION `.text`:CODE:NOROOT(2)
        SECTION_TYPE SHT_PROGBITS, 0
        DATA
??DataTable250_26:
        DC32     `?<Constant ">Z_HOME_DIR">`

        SECTION `.text`:CODE:NOROOT(2)
        SECTION_TYPE SHT_PROGBITS, 0
        DATA
??DataTable250_27:
        DC32     `?<Constant ">X_MIN_POS">`

        SECTION `.text`:CODE:NOROOT(2)
        SECTION_TYPE SHT_PROGBITS, 0
        DATA
??DataTable250_28:
        DC32     `?<Constant ">Y_MIN_POS">`

        SECTION `.text`:CODE:NOROOT(2)
        SECTION_TYPE SHT_PROGBITS, 0
        DATA
??DataTable250_29:
        DC32     `?<Constant ">Z_MIN_POS">`

        SECTION `.text`:CODE:NOROOT(2)
        SECTION_TYPE SHT_PROGBITS, 0
        DATA
??DataTable250_30:
        DC32     `?<Constant ">X_MAX_POS">`

        SECTION `.text`:CODE:NOROOT(2)
        SECTION_TYPE SHT_PROGBITS, 0
        DATA
??DataTable250_31:
        DC32     `?<Constant ">Y_MAX_POS">`

        SECTION `.text`:CODE:NOROOT(2)
        SECTION_TYPE SHT_PROGBITS, 0
        DATA
??DataTable250_32:
        DC32     `?<Constant ">Z_MAX_POS">`

        SECTION `.text`:CODE:NOROOT(2)
        SECTION_TYPE SHT_PROGBITS, 0
        DATA
??DataTable250_33:
        DC32     `?<Constant ">MIN_SOFTWARE_ENDSTOPS">`

        SECTION `.text`:CODE:NOROOT(2)
        SECTION_TYPE SHT_PROGBITS, 0
        DATA
??DataTable250_34:
        DC32     `?<Constant ">MAX_SOFTWARE_ENDSTOPS">`

        SECTION `.text`:CODE:NOROOT(2)
        SECTION_TYPE SHT_PROGBITS, 0
        DATA
??DataTable250_35:
        DC32     `?<Constant ">HOMING_FEEDRATE_XY">`

        SECTION `.text`:CODE:NOROOT(2)
        SECTION_TYPE SHT_PROGBITS, 0
        DATA
??DataTable250_36:
        DC32     `?<Constant ">HEATER_1_MINTEMP">`

        SECTION `.text`:CODE:NOROOT(2)
        SECTION_TYPE SHT_PROGBITS, 0
        DATA
??DataTable250_37:
        DC32     `?<Constant ">Z_MIN_ENDSTOP_INVERTING">`

        SECTION `.text`:CODE:NOROOT(2)
        SECTION_TYPE SHT_PROGBITS, 0
        DATA
??DataTable250_38:
        DC32     `?<Constant ">Y_MAX_ENDSTOP_INVERTING">`

        SECTION `.text`:CODE:NOROOT(2)
        SECTION_TYPE SHT_PROGBITS, 0
        DATA
??DataTable250_39:
        DC32     `?<Constant ">LCD_LANGUAGE">`

        SECTION `.text`:CODE:NOROOT(2)
        SECTION_TYPE SHT_PROGBITS, 0
        DATA
??DataTable250_40:
        DC32     `?<Constant ">BED_LEVELING_METHOD">`

        SECTION `.text`:CODE:NOROOT(2)
        SECTION_TYPE SHT_PROGBITS, 0
        DATA
??DataTable250_41:
        DC32     `?<Constant ">DELTA_CARRIAGE_OFFSET">`

        SECTION `.text`:CODE:NOROOT(2)
        SECTION_TYPE SHT_PROGBITS, 0
        DATA
??DataTable250_42:
        DC32     delta_height

        SECTION `.text`:CODE:NOROOT(2)
        SECTION_TYPE SHT_PROGBITS, 0
        DATA
??DataTable250_43:
        DC32     `?<Constant ">Z_CLEARANCE_BETWEEN_...">`

        SECTION `.text`:CODE:NOROOT(2)
        SECTION_TYPE SHT_PROGBITS, 0
        DATA
??DataTable250_44:
        DC32     `?<Constant ">Y_PROBE_OFFSET_FROM_...">`

        SECTION `.text`:CODE:NOROOT(2)
        SECTION_TYPE SHT_PROGBITS, 0
        DATA
??DataTable250_45:
        DC32     `?<Constant ">USE_XMIN_PLUG">`

        SECTION `.text`:CODE:NOROOT(2)
        SECTION_TYPE SHT_PROGBITS, 0
        DATA
??DataTable250_46:
        DC32     `?<Constant ">FRONT_PROBE_BED_POSI...">`

        SECTION `.text`:CODE:NOROOT(2)
        SECTION_TYPE SHT_PROGBITS, 0
        DATA
??DataTable250_47:
        DC32     `?<Constant ">MESH_INSET">`

        SECTION `.text`:CODE:NOROOT(2)
        SECTION_TYPE SHT_PROGBITS, 0
        DATA
??DataTable250_48:
        DC32     `?<Constant ">ABL_PROBE_PT_1_Y">`

        SECTION `.text`:CODE:NOROOT(2)
        SECTION_TYPE SHT_PROGBITS, 0
        DATA
??DataTable250_49:
        DC32     `?<Constant ">UBL_MESH_INSET">`

        SECTION `.text`:CODE:NOROOT(2)
        SECTION_TYPE SHT_PROGBITS, 0
        DATA
??DataTable250_50:
        DC32     `?<Constant ">UBL_PROBE_PT_3_X">`

        SECTION `.text`:CODE:NOROOT(2)
        SECTION_TYPE SHT_PROGBITS, 0
        DATA
??DataTable250_51:
        DC32     `?<Constant ">FILAMENT_CHANGE_Y_POS">`

        SECTION `.text`:CODE:NOROOT(2)
        SECTION_TYPE SHT_PROGBITS, 0
        DATA
??DataTable250_52:
        DC32     `?<Constant ">THERMAL_PROTECTION_H...">`

        SECTION `.text`:CODE:NOROOT(2)
        SECTION_TYPE SHT_PROGBITS, 0
        DATA
??DataTable250_53:
        DC32     `?<Constant ">THERMAL_PROTECTION_B...">`

        SECTION `.text`:CODE:NOROOT(2)
        SECTION_TYPE SHT_PROGBITS, 0
        DATA
??DataTable250_54:
        DC32     `?<Constant ">WATCH_BED_TEMP_PERIOD">`

        SECTION `.text`:CODE:NOROOT(2)
        SECTION_TYPE SHT_PROGBITS, 0
        DATA
??DataTable250_55:
        DC32     `?<Constant ">cfg_hardware_test_en...">`

        SECTION `.text`:CODE:NOROOT(2)
        SECTION_TYPE SHT_PROGBITS, 0
        DATA
??DataTable250_56:
        DC32     `?<Constant ">BLTOUCH">`

        SECTION `.text`:CODE:NOROOT(2)
        SECTION_TYPE SHT_PROGBITS, 0
        DATA
??DataTable250_57:
        DC32     `?<Constant ">cfg_language_type">`

        SECTION `.text`:CODE:NOROOT(2)
        SECTION_TYPE SHT_PROGBITS, 0
        DATA
??DataTable250_58:
        DC32     `?<Constant ">cfg_state_bkcolor">`

        SECTION `.text`:CODE:NOROOT(2)
        SECTION_TYPE SHT_PROGBITS, 0
        DATA
??DataTable250_59:
        DC32     `?<Constant ">cfg_filename_textcolor">`

        SECTION `.text`:CODE:NOROOT(2)
        SECTION_TYPE SHT_PROGBITS, 0
        DATA
??DataTable250_60:
        DC32     `?<Constant ">cfg_state_btn_textcolor">`

        SECTION `.text`:CODE:NOROOT(2)
        SECTION_TYPE SHT_PROGBITS, 0
        DATA
??DataTable250_61:
        DC32     `?<Constant ">cfg_sel_btn_bkcolor">`

        SECTION `.text`:CODE:NOROOT(2)
        SECTION_TYPE SHT_PROGBITS, 0
        DATA
??DataTable250_62:
        DC32     `?<Constant ">cfg_dialog_btn_textc...">`

        SECTION `.text`:CODE:NOROOT(2)
        SECTION_TYPE SHT_PROGBITS, 0
        DATA
??DataTable250_63:
        DC32     `?<Constant ">cfg_filament_det0_tr...">`

        SECTION `.text`:CODE:NOROOT(2)
        SECTION_TYPE SHT_PROGBITS, 0
        DATA
??DataTable250_64:
        DC32     `?<Constant ">cfg_mask_det_function">`

        SECTION `.text`:CODE:NOROOT(2)
        SECTION_TYPE SHT_PROGBITS, 0
        DATA
??DataTable250_65:
        DC32     `?<Constant ">PULSE_DELAY">`

        SECTION `.text`:CODE:NOROOT(2)
        SECTION_TYPE SHT_PROGBITS, 0
        DATA
`?<Constant ">HOMING_FEEDRATE_Z">`:
        DC8 ">HOMING_FEEDRATE_Z"
        DC8 0

        SECTION `.text`:CODE:NOROOT(2)
        SECTION_TYPE SHT_PROGBITS, 0
        DATA
`?<Constant ">EXTRUDE_MINTEMP">`:
        DC8 ">EXTRUDE_MINTEMP"
        DC8 0, 0, 0

        SECTION `.text`:CODE:NOROOT(2)
        SECTION_TYPE SHT_PROGBITS, 0
        DATA
`?<Constant ">HEATER_0_MINTEMP">`:
        DC8 ">HEATER_0_MINTEMP"
        DC8 0, 0

        SECTION `.text`:CODE:NOROOT(2)
        SECTION_TYPE SHT_PROGBITS, 0
        DATA
`?<Constant ">HEATER_1_MAXTEMP">`:
        DC8 ">HEATER_1_MAXTEMP"
        DC8 0, 0

        SECTION `.text`:CODE:NOROOT(2)
        SECTION_TYPE SHT_PROGBITS, 0
        DATA
`?<Constant ">TEMP_SENSOR_0">`:
        DC8 ">TEMP_SENSOR_0"
        DC8 0

        SECTION `.text`:CODE:NOROOT(2)
        SECTION_TYPE SHT_PROGBITS, 0
        DATA
`?<Constant ">EXTRUDERS">`:
        DC8 ">EXTRUDERS"
        DC8 0

        SECTION `.text`:CODE:NOROOT(2)
        SECTION_TYPE SHT_PROGBITS, 0
        DATA
`?<Constant ">HEATER_0_MAXTEMP">`:
        DC8 ">HEATER_0_MAXTEMP"
        DC8 0, 0

        SECTION `.text`:CODE:NOROOT(2)
        SECTION_TYPE SHT_PROGBITS, 0
        DATA
`?<Constant ">BED_MAXTEMP">`:
        DC8 ">BED_MAXTEMP"
        DC8 0, 0, 0

        SECTION `.text`:CODE:NOROOT(2)
        SECTION_TYPE SHT_PROGBITS, 0
        DATA
`?<Constant ">PIDTEMPE">`:
        DC8 ">PIDTEMPE"
        DC8 0, 0

        SECTION `.text`:CODE:NOROOT(2)
        SECTION_TYPE SHT_PROGBITS, 0
        DATA
`?<Constant ">PIDTEMPBED">`:
        DC8 ">PIDTEMPBED"

        SECTION `.text`:CODE:NOROOT(2)
        SECTION_TYPE SHT_PROGBITS, 0
        DATA
`?<Constant ">HAS_TEMP_BED">`:
        DC8 ">HAS_TEMP_BED"
        DC8 0, 0

        SECTION `.text`:CODE:NOROOT(2)
        SECTION_TYPE SHT_PROGBITS, 0
        DATA
`?<Constant ">X_MIN_ENDSTOP_INVERTING">`:
        DC8 ">X_MIN_ENDSTOP_INVERTING"
        DC8 0, 0, 0

        SECTION `.text`:CODE:NOROOT(2)
        SECTION_TYPE SHT_PROGBITS, 0
        DATA
`?<Constant ">Y_MIN_ENDSTOP_INVERTING">`:
        DC8 ">Y_MIN_ENDSTOP_INVERTING"
        DC8 0, 0, 0

        SECTION `.text`:CODE:NOROOT(2)
        SECTION_TYPE SHT_PROGBITS, 0
        DATA
`?<Constant ">X_MAX_ENDSTOP_INVERTING">`:
        DC8 ">X_MAX_ENDSTOP_INVERTING"
        DC8 0, 0, 0

        SECTION `.text`:CODE:NOROOT(2)
        SECTION_TYPE SHT_PROGBITS, 0
        DATA
`?<Constant ">Z_MAX_ENDSTOP_INVERTING">`:
        DC8 ">Z_MAX_ENDSTOP_INVERTING"
        DC8 0, 0, 0

        SECTION `.text`:CODE:NOROOT(2)
        SECTION_TYPE SHT_PROGBITS, 0
        DATA
`?<Constant ">Z_MIN_PROBE_ENDSTOP_...">`:
        DC8 ">Z_MIN_PROBE_ENDSTOP_INVERTING"
        DC8 0

        SECTION `.text`:CODE:NOROOT(2)
        SECTION_TYPE SHT_PROGBITS, 0
        DATA
`?<Constant ">HOME_Y_BEFORE_X">`:
        DC8 ">HOME_Y_BEFORE_X"
        DC8 0, 0, 0

        SECTION `.text`:CODE:NOROOT(2)
        SECTION_TYPE SHT_PROGBITS, 0
        DATA
`?<Constant ">DELTA_SMOOTH_ROD_OFFSET">`:
        DC8 ">DELTA_SMOOTH_ROD_OFFSET"
        DC8 0, 0, 0

        SECTION `.text`:CODE:NOROOT(2)
        SECTION_TYPE SHT_PROGBITS, 0
        DATA
`?<Constant ">DELTA_EFFECTOR_OFFSET">`:
        DC8 ">DELTA_EFFECTOR_OFFSET"
        DC8 0

        SECTION `.text`:CODE:NOROOT(2)
        SECTION_TYPE SHT_PROGBITS, 0
        DATA
`?<Constant ">DELTA_HEIGHT">`:
        DC8 ">DELTA_HEIGHT"
        DC8 0, 0

        SECTION `.text`:CODE:NOROOT(2)
        SECTION_TYPE SHT_PROGBITS, 0
        DATA
`?<Constant ">DELTA_PRINTABLE_RADIUS">`:
        DC8 ">DELTA_PRINTABLE_RADIUS"

        SECTION `.text`:CODE:NOROOT(2)
        SECTION_TYPE SHT_PROGBITS, 0
        DATA
`?<Constant ">MACHINETPYE">`:
        DC8 ">MACHINETPYE"
        DC8 0, 0, 0

        SECTION `.text`:CODE:NOROOT(2)
        SECTION_TYPE SHT_PROGBITS, 0
        DATA
`?<Constant ">CURRENT_VREF_XY">`:
        DC8 ">CURRENT_VREF_XY"
        DC8 0, 0, 0

        SECTION `.text`:CODE:NOROOT(2)
        SECTION_TYPE SHT_PROGBITS, 0
        DATA
`?<Constant ">CURRENT_VREF_Z">`:
        DC8 ">CURRENT_VREF_Z"

        SECTION `.text`:CODE:NOROOT(2)
        SECTION_TYPE SHT_PROGBITS, 0
        DATA
`?<Constant ">CURRENT_VREF_E">`:
        DC8 ">CURRENT_VREF_E"

        SECTION `.text`:CODE:NOROOT(2)
        SECTION_TYPE SHT_PROGBITS, 0
        DATA
`?<Constant ">GRID_MAX_POINTS_X">`:
        DC8 ">GRID_MAX_POINTS_X"
        DC8 0

        SECTION `.text`:CODE:NOROOT(2)
        SECTION_TYPE SHT_PROGBITS, 0
        DATA
`?<Constant ">GRID_MAX_POINTS_Y">`:
        DC8 ">GRID_MAX_POINTS_Y"
        DC8 0

        SECTION `.text`:CODE:NOROOT(2)
        SECTION_TYPE SHT_PROGBITS, 0
        DATA
`?<Constant ">Z_CLEARANCE_DEPLOY_P...">`:
        DC8 ">Z_CLEARANCE_DEPLOY_PROBE"
        DC8 0, 0

        SECTION `.text`:CODE:NOROOT(2)
        SECTION_TYPE SHT_PROGBITS, 0
        DATA
`?<Constant ">X_PROBE_OFFSET_FROM_...">`:
        DC8 ">X_PROBE_OFFSET_FROM_EXTRUDER"
        DC8 0, 0

        SECTION `.text`:CODE:NOROOT(2)
        SECTION_TYPE SHT_PROGBITS, 0
        DATA
`?<Constant ">XY_PROBE_SPEED">`:
        DC8 ">XY_PROBE_SPEED"

        SECTION `.text`:CODE:NOROOT(2)
        SECTION_TYPE SHT_PROGBITS, 0
        DATA
`?<Constant ">Z_PROBE_SPEED_FAST">`:
        DC8 ">Z_PROBE_SPEED_FAST"

        SECTION `.text`:CODE:NOROOT(2)
        SECTION_TYPE SHT_PROGBITS, 0
        DATA
`?<Constant ">Z_PROBE_SPEED_SLOW">`:
        DC8 ">Z_PROBE_SPEED_SLOW"

        SECTION `.text`:CODE:NOROOT(2)
        SECTION_TYPE SHT_PROGBITS, 0
        DATA
`?<Constant ">USE_YMIN_PLUG">`:
        DC8 ">USE_YMIN_PLUG"
        DC8 0

        SECTION `.text`:CODE:NOROOT(2)
        SECTION_TYPE SHT_PROGBITS, 0
        DATA
`?<Constant ">USE_ZMIN_PLUG">`:
        DC8 ">USE_ZMIN_PLUG"
        DC8 0

        SECTION `.text`:CODE:NOROOT(2)
        SECTION_TYPE SHT_PROGBITS, 0
        DATA
`?<Constant ">USE_XMAX_PLUG">`:
        DC8 ">USE_XMAX_PLUG"
        DC8 0

        SECTION `.text`:CODE:NOROOT(2)
        SECTION_TYPE SHT_PROGBITS, 0
        DATA
`?<Constant ">USE_YMAX_PLUG">`:
        DC8 ">USE_YMAX_PLUG"
        DC8 0

        SECTION `.text`:CODE:NOROOT(2)
        SECTION_TYPE SHT_PROGBITS, 0
        DATA
`?<Constant ">USE_ZMAX_PLUG">`:
        DC8 ">USE_ZMAX_PLUG"
        DC8 0

        SECTION `.text`:CODE:NOROOT(2)
        SECTION_TYPE SHT_PROGBITS, 0
        DATA
`?<Constant ">LEFT_PROBE_BED_POSITION">`:
        DC8 ">LEFT_PROBE_BED_POSITION"
        DC8 0, 0, 0

        SECTION `.text`:CODE:NOROOT(2)
        SECTION_TYPE SHT_PROGBITS, 0
        DATA
`?<Constant ">RIGHT_PROBE_BED_POSI...">`:
        DC8 ">RIGHT_PROBE_BED_POSITION"
        DC8 0, 0

        SECTION `.text`:CODE:NOROOT(2)
        SECTION_TYPE SHT_PROGBITS, 0
        DATA
`?<Constant ">BACK_PROBE_BED_POSITION">`:
        DC8 ">BACK_PROBE_BED_POSITION"
        DC8 0, 0, 0

        SECTION `.text`:CODE:NOROOT(2)
        SECTION_TYPE SHT_PROGBITS, 0
        DATA
`?<Constant ">Z_MIN_PROBE_PIN_MODE">`:
        DC8 ">Z_MIN_PROBE_PIN_MODE"
        DC8 0, 0

        SECTION `.text`:CODE:NOROOT(2)
        SECTION_TYPE SHT_PROGBITS, 0
        DATA
`?<Constant ">ABL_PROBE_PT_1_X">`:
        DC8 ">ABL_PROBE_PT_1_X"
        DC8 0, 0

        SECTION `.text`:CODE:NOROOT(2)
        SECTION_TYPE SHT_PROGBITS, 0
        DATA
`?<Constant ">ABL_PROBE_PT_2_X">`:
        DC8 ">ABL_PROBE_PT_2_X"
        DC8 0, 0

        SECTION `.text`:CODE:NOROOT(2)
        SECTION_TYPE SHT_PROGBITS, 0
        DATA
`?<Constant ">ABL_PROBE_PT_2_Y">`:
        DC8 ">ABL_PROBE_PT_2_Y"
        DC8 0, 0

        SECTION `.text`:CODE:NOROOT(2)
        SECTION_TYPE SHT_PROGBITS, 0
        DATA
`?<Constant ">ABL_PROBE_PT_3_X">`:
        DC8 ">ABL_PROBE_PT_3_X"
        DC8 0, 0

        SECTION `.text`:CODE:NOROOT(2)
        SECTION_TYPE SHT_PROGBITS, 0
        DATA
`?<Constant ">ABL_PROBE_PT_3_Y">`:
        DC8 ">ABL_PROBE_PT_3_Y"
        DC8 0, 0

        SECTION `.text`:CODE:NOROOT(2)
        SECTION_TYPE SHT_PROGBITS, 0
        DATA
`?<Constant ">UBL_PROBE_PT_1_X">`:
        DC8 ">UBL_PROBE_PT_1_X"
        DC8 0, 0

        SECTION `.text`:CODE:NOROOT(2)
        SECTION_TYPE SHT_PROGBITS, 0
        DATA
`?<Constant ">UBL_PROBE_PT_1_Y">`:
        DC8 ">UBL_PROBE_PT_1_Y"
        DC8 0, 0

        SECTION `.text`:CODE:NOROOT(2)
        SECTION_TYPE SHT_PROGBITS, 0
        DATA
`?<Constant ">UBL_PROBE_PT_2_X">`:
        DC8 ">UBL_PROBE_PT_2_X"
        DC8 0, 0

        SECTION `.text`:CODE:NOROOT(2)
        SECTION_TYPE SHT_PROGBITS, 0
        DATA
`?<Constant ">UBL_PROBE_PT_2_Y">`:
        DC8 ">UBL_PROBE_PT_2_Y"
        DC8 0, 0

        SECTION `.text`:CODE:NOROOT(2)
        SECTION_TYPE SHT_PROGBITS, 0
        DATA
`?<Constant ">UBL_PROBE_PT_3_Y">`:
        DC8 ">UBL_PROBE_PT_3_Y"
        DC8 0, 0

        SECTION `.text`:CODE:NOROOT(2)
        SECTION_TYPE SHT_PROGBITS, 0
        DATA
`?<Constant ">FIL_RUNOUT_INVERTING">`:
        DC8 ">FIL_RUNOUT_INVERTING"
        DC8 0, 0

        SECTION `.text`:CODE:NOROOT(2)
        SECTION_TYPE SHT_PROGBITS, 0
        DATA
`?<Constant ">FILAMENT_CHANGE_X_POS">`:
        DC8 ">FILAMENT_CHANGE_X_POS"
        DC8 0

        SECTION `.text`:CODE:NOROOT(2)
        SECTION_TYPE SHT_PROGBITS, 0
        DATA
`?<Constant ">FILAMENT_CHANGE_Z_ADD">`:
        DC8 ">FILAMENT_CHANGE_Z_ADD"
        DC8 0

        SECTION `.text`:CODE:NOROOT(2)
        SECTION_TYPE SHT_PROGBITS, 0
        DATA
`?<Constant ">THERMAL_PROTECTION_P...">`:
        DC8 ">THERMAL_PROTECTION_PERIOD"
        DC8 0

        SECTION `.text`:CODE:NOROOT(2)
        SECTION_TYPE SHT_PROGBITS, 0
        DATA
`?<Constant ">WATCH_TEMP_PERIOD">`:
        DC8 ">WATCH_TEMP_PERIOD"
        DC8 0

        SECTION `.text`:CODE:NOROOT(2)
        SECTION_TYPE SHT_PROGBITS, 0
        DATA
`?<Constant ">WATCH_TEMP_INCREASE">`:
        DC8 ">WATCH_TEMP_INCREASE"
        DC8 0, 0, 0

        SECTION `.text`:CODE:NOROOT(2)
        SECTION_TYPE SHT_PROGBITS, 0
        DATA
`?<Constant ">THERMAL_PROTECTION_B...">_1`:
        DC8 ">THERMAL_PROTECTION_BED_HYSTERESIS"
        DC8 0

        SECTION `.text`:CODE:NOROOT(2)
        SECTION_TYPE SHT_PROGBITS, 0
        DATA
`?<Constant ">WATCH_BED_TEMP_INCREASE">`:
        DC8 ">WATCH_BED_TEMP_INCREASE"
        DC8 0, 0, 0

        SECTION `.text`:CODE:NOROOT(2)
        SECTION_TYPE SHT_PROGBITS, 0
        DATA
`?<Constant ">HOTEND_OFFSET_X">`:
        DC8 ">HOTEND_OFFSET_X"
        DC8 0, 0, 0

        SECTION `.text`:CODE:NOROOT(2)
        SECTION_TYPE SHT_PROGBITS, 0
        DATA
`?<Constant ">HOTEND_OFFSET_Y">`:
        DC8 ">HOTEND_OFFSET_Y"
        DC8 0, 0, 0

        SECTION `.text`:CODE:NOROOT(2)
        SECTION_TYPE SHT_PROGBITS, 0
        DATA
`?<Constant ">cfg_language_adjust_...">`:
        DC8 ">cfg_language_adjust_type"
        DC8 0, 0

        SECTION `.text`:CODE:NOROOT(2)
        SECTION_TYPE SHT_PROGBITS, 0
        DATA
`?<Constant ">cfg_background_color">`:
        DC8 ">cfg_background_color"
        DC8 0, 0

        SECTION `.text`:CODE:NOROOT(2)
        SECTION_TYPE SHT_PROGBITS, 0
        DATA
`?<Constant ">cfg_title_color">`:
        DC8 ">cfg_title_color"
        DC8 0, 0, 0

        SECTION `.text`:CODE:NOROOT(2)
        SECTION_TYPE SHT_PROGBITS, 0
        DATA
`?<Constant ">cfg_state_textcolor">`:
        DC8 ">cfg_state_textcolor"
        DC8 0, 0, 0

        SECTION `.text`:CODE:NOROOT(2)
        SECTION_TYPE SHT_PROGBITS, 0
        DATA
`?<Constant ">cfg_filename_bkcolor">`:
        DC8 ">cfg_filename_bkcolor"
        DC8 0, 0

        SECTION `.text`:CODE:NOROOT(2)
        SECTION_TYPE SHT_PROGBITS, 0
        DATA
`?<Constant ">cfg_btn_bkcolor">`:
        DC8 ">cfg_btn_bkcolor"
        DC8 0, 0, 0

        SECTION `.text`:CODE:NOROOT(2)
        SECTION_TYPE SHT_PROGBITS, 0
        DATA
`?<Constant ">cfg_btn_textcolor">`:
        DC8 ">cfg_btn_textcolor"
        DC8 0

        SECTION `.text`:CODE:NOROOT(2)
        SECTION_TYPE SHT_PROGBITS, 0
        DATA
`?<Constant ">cfg_state_btn_bkcolor">`:
        DC8 ">cfg_state_btn_bkcolor"
        DC8 0

        SECTION `.text`:CODE:NOROOT(2)
        SECTION_TYPE SHT_PROGBITS, 0
        DATA
`?<Constant ">cfg_back_btn_bkcolor">`:
        DC8 ">cfg_back_btn_bkcolor"
        DC8 0, 0

        SECTION `.text`:CODE:NOROOT(2)
        SECTION_TYPE SHT_PROGBITS, 0
        DATA
`?<Constant ">cfg_back_btn_textcolor">`:
        DC8 ">cfg_back_btn_textcolor"

        SECTION `.text`:CODE:NOROOT(2)
        SECTION_TYPE SHT_PROGBITS, 0
        DATA
`?<Constant ">cfg_sel_btn_textcolor">`:
        DC8 ">cfg_sel_btn_textcolor"
        DC8 0

        SECTION `.text`:CODE:NOROOT(2)
        SECTION_TYPE SHT_PROGBITS, 0
        DATA
`?<Constant ">cfg_dialog_btn_bkcolor">`:
        DC8 ">cfg_dialog_btn_bkcolor"

        SECTION `.text`:CODE:NOROOT(2)
        SECTION_TYPE SHT_PROGBITS, 0
        DATA
`?<Constant ">cfg_insert_det_module">`:
        DC8 ">cfg_insert_det_module"
        DC8 0

        SECTION `.text`:CODE:NOROOT(2)
        SECTION_TYPE SHT_PROGBITS, 0
        DATA
`?<Constant ">cfg_have_ups_device">`:
        DC8 ">cfg_have_ups_device"
        DC8 0, 0, 0

        SECTION `.text`:CODE:NOROOT(2)
        SECTION_TYPE SHT_PROGBITS, 0
        DATA
`?<Constant ">cfg_filament_det1_tr...">`:
        DC8 ">cfg_filament_det1_trigger_level"
        DC8 0, 0, 0

        SECTION `.text`:CODE:NOROOT(2)
        SECTION_TYPE SHT_PROGBITS, 0
        DATA
`?<Constant ">cfg_filament_load_le...">`:
        DC8 ">cfg_filament_load_length"
        DC8 0, 0

        SECTION `.text`:CODE:NOROOT(2)
        SECTION_TYPE SHT_PROGBITS, 0
        DATA
`?<Constant ">cfg_filament_load_li...">`:
        DC8 ">cfg_filament_load_limit_temperature"
        DC8 0, 0, 0

        SECTION `.text`:CODE:NOROOT(2)
        SECTION_TYPE SHT_PROGBITS, 0
        DATA
`?<Constant ">cfg_filament_unload_...">_1`:
        DC8 ">cfg_filament_unload_speed"
        DC8 0

        SECTION `.text`:CODE:NOROOT(2)
        SECTION_TYPE SHT_PROGBITS, 0
        DATA
`?<Constant ">setmenu_func1_display">`:
        DC8 ">setmenu_func1_display"
        DC8 0

        SECTION `.text`:CODE:NOROOT(2)
        SECTION_TYPE SHT_PROGBITS, 0
        DATA
`?<Constant ">setmenu_func1:">`:
        DC8 ">setmenu_func1:"

        SECTION `.text`:CODE:NOROOT(2)
        SECTION_TYPE SHT_PROGBITS, 0
        DATA
`?<Constant ">moreitem_pic_cnt">`:
        DC8 ">moreitem_pic_cnt"
        DC8 0, 0

        SECTION `.text`:CODE:NOROOT(2)
        SECTION_TYPE SHT_PROGBITS, 0
        DATA
`?<Constant ">moreitem_button1_cmd:">`:
        DC8 ">moreitem_button1_cmd:"
        DC8 0

        SECTION `.text`:CODE:NOROOT(2)
        SECTION_TYPE SHT_PROGBITS, 0
        DATA
`?<Constant ">moreitem_button4_cmd:">`:
        DC8 ">moreitem_button4_cmd:"
        DC8 0

        SECTION `.text`:CODE:NOROOT(2)
        SECTION_TYPE SHT_PROGBITS, 0
        DATA
`?<Constant ">moreitem_button6_cmd:">`:
        DC8 ">moreitem_button6_cmd:"
        DC8 0

        SECTION `.text`:CODE:NOROOT(2)
        SECTION_TYPE SHT_PROGBITS, 0
        DATA
`?<Constant ">morefunc_cnt">`:
        DC8 ">morefunc_cnt"
        DC8 0, 0

        SECTION `.text`:CODE:NOROOT(2)
        SECTION_TYPE SHT_PROGBITS, 0
        DATA
`?<Constant ">morefunc1_cmd:">`:
        DC8 ">morefunc1_cmd:"

        SECTION `.text`:CODE:NOROOT(2)
        SECTION_TYPE SHT_PROGBITS, 0
        DATA
`?<Constant ">morefunc2_cmd:">`:
        DC8 ">morefunc2_cmd:"

        SECTION `.text`:CODE:NOROOT(2)
        SECTION_TYPE SHT_PROGBITS, 0
        DATA
`?<Constant ">morefunc3_cmd:">`:
        DC8 ">morefunc3_cmd:"

        SECTION `.text`:CODE:NOROOT(2)
        SECTION_TYPE SHT_PROGBITS, 0
        DATA
`?<Constant ">morefunc5_cmd:">`:
        DC8 ">morefunc5_cmd:"

        SECTION `.text`:CODE:NOROOT(2)
        SECTION_TYPE SHT_PROGBITS, 0
        DATA
`?<Constant ">morefunc6_cmd:">`:
        DC8 ">morefunc6_cmd:"

        SECTION `.text`:CODE:NOROOT(2)
        SECTION_TYPE SHT_PROGBITS, 0
        DATA
`?<Constant ">cfg_btn_text_offset">`:
        DC8 ">cfg_btn_text_offset"
        DC8 0, 0, 0

        SECTION `.text`:CODE:NOROOT(2)
        SECTION_TYPE SHT_PROGBITS, 0
        DATA
`?<Constant ">cfg_pwroff_save_mode">`:
        DC8 ">cfg_pwroff_save_mode"
        DC8 0, 0

        SECTION `.text`:CODE:NOROOT(2)
        SECTION_TYPE SHT_PROGBITS, 0
        DATA
`?<Constant ">cfg_auto_leveling_cmd:">`:
        DC8 ">cfg_auto_leveling_cmd:"

        SECTION `.text`:CODE:NOROOT(2)
        SECTION_TYPE SHT_PROGBITS, 0
        DATA
`?<Constant ">cfg_point_number">`:
        DC8 ">cfg_point_number"
        DC8 0, 0

        SECTION `.text`:CODE:NOROOT(2)
        SECTION_TYPE SHT_PROGBITS, 0
        DATA
`?<Constant ">cfg_point1:">`:
        DC8 ">cfg_point1:"
        DC8 0, 0, 0

        SECTION `.text`:CODE:NOROOT(2)
        SECTION_TYPE SHT_PROGBITS, 0
        DATA
`?<Constant ">cfg_point2:">`:
        DC8 ">cfg_point2:"
        DC8 0, 0, 0

        SECTION `.text`:CODE:NOROOT(2)
        SECTION_TYPE SHT_PROGBITS, 0
        DATA
`?<Constant ">cfg_point3:">`:
        DC8 ">cfg_point3:"
        DC8 0, 0, 0

        SECTION `.text`:CODE:NOROOT(2)
        SECTION_TYPE SHT_PROGBITS, 0
        DATA
`?<Constant ">cfg_point4:">`:
        DC8 ">cfg_point4:"
        DC8 0, 0, 0

        SECTION `.text`:CODE:NOROOT(2)
        SECTION_TYPE SHT_PROGBITS, 0
        DATA
`?<Constant ">cfg_point5:">`:
        DC8 ">cfg_point5:"
        DC8 0, 0, 0

        SECTION `.text`:CODE:NOROOT(2)
        SECTION_TYPE SHT_PROGBITS, 0
        DATA
`?<Constant ">cfg_print_over_auto_...">`:
        DC8 ">cfg_print_over_auto_close"
        DC8 0

        SECTION `.text`:CODE:NOROOT(2)
        SECTION_TYPE SHT_PROGBITS, 0
        DATA
`?<Constant ">Z2_STEPPER_DRIVERS">`:
        DC8 ">Z2_STEPPER_DRIVERS"

        SECTION `.text`:CODE:NOROOT(2)
        SECTION_TYPE SHT_PROGBITS, 0
        DATA
`?<Constant ">Z2_ENDSTOPS">`:
        DC8 ">Z2_ENDSTOPS"
        DC8 0, 0, 0

        SECTION `.text`:CODE:NOROOT(2)
        SECTION_TYPE SHT_PROGBITS, 0
        DATA
`?<Constant ">Z2_USE_ENDSTOP">`:
        DC8 ">Z2_USE_ENDSTOP"

        SECTION `.text`:CODE:NOROOT(2)
        SECTION_TYPE SHT_PROGBITS, 0
        DATA
`?<Constant ">X_ENABLE_ON">`:
        DC8 ">X_ENABLE_ON"
        DC8 0, 0, 0

        SECTION `.text`:CODE:NOROOT(2)
        SECTION_TYPE SHT_PROGBITS, 0
        DATA
`?<Constant ">Y_ENABLE_ON">`:
        DC8 ">Y_ENABLE_ON"
        DC8 0, 0, 0

        SECTION `.text`:CODE:NOROOT(2)
        SECTION_TYPE SHT_PROGBITS, 0
        DATA
`?<Constant ">Z_ENABLE_ON">`:
        DC8 ">Z_ENABLE_ON"
        DC8 0, 0, 0

        SECTION `.text`:CODE:NOROOT(2)
        SECTION_TYPE SHT_PROGBITS, 0
        DATA
`?<Constant ">E_ENABLE_ON">`:
        DC8 ">E_ENABLE_ON"
        DC8 0, 0, 0

        SECTION `.text`:CODE:NOROOT(2)
        SECTION_TYPE SHT_PROGBITS, 0
        DATA
`?<Constant ">DISABLE_WIFI">`:
        DC8 ">DISABLE_WIFI"
        DC8 0, 0

        SECTION `.text`:CODE:NOROOT(2)
        SECTION_TYPE SHT_PROGBITS, 0
        DATA
`?<Constant ">PAUSE_UNLOAD_LEN">`:
        DC8 ">PAUSE_UNLOAD_LEN"
        DC8 0, 0

        SECTION `.text`:CODE:NOROOT(2)
        SECTION_TYPE SHT_PROGBITS, 0
        DATA
`?<Constant ">RESUME_LOAD_LEN">`:
        DC8 ">RESUME_LOAD_LEN"
        DC8 0, 0, 0

        SECTION `.text`:CODE:NOROOT(2)
        SECTION_TYPE SHT_PROGBITS, 0
        DATA
`?<Constant ">RESUME_SPEED">`:
        DC8 ">RESUME_SPEED"
        DC8 0, 0

        SECTION `.text`:CODE:NOROOT(2)
        SECTION_TYPE SHT_PROGBITS, 0
        DATA
`?<Constant ">about_type:">`:
        DC8 ">about_type:"
        DC8 0, 0, 0

        SECTION `.text`:CODE:NOROOT(2)
        SECTION_TYPE SHT_PROGBITS, 0
        DATA
`?<Constant ">about_version:">`:
        DC8 ">about_version:"

        SECTION `.text`:CODE:NOROOT(2)
        SECTION_TYPE SHT_PROGBITS, 0
        DATA
`?<Constant ">about_company:">`:
        DC8 ">about_company:"

        SECTION `.text`:CODE:NOROOT(2)
        SECTION_TYPE SHT_PROGBITS, 0
        DATA
`?<Constant ">about_email:">`:
        DC8 ">about_email:"
        DC8 0, 0

        SECTION `.text`:CODE:NOROOT(2)
        SECTION_TYPE SHT_PROGBITS, 0
        DATA
`?<Constant ">SINGLE_NOZZLE">`:
        DC8 ">SINGLE_NOZZLE"
        DC8 0

        SECTION `.text`:CODE:NOROOT(2)
        SECTION_TYPE SHT_PROGBITS, 0
        DATA
`?<Constant ">WISI_LIST_SCAN">`:
        DC8 ">WISI_LIST_SCAN"

        SECTION `.text`:CODE:NOROOT(2)
        SECTION_TYPE SHT_PROGBITS, 0
        DATA
`?<Constant ">cfg_screen_overturn_180">`:
        DC8 ">cfg_screen_overturn_180"
        DC8 0, 0, 0

        SECTION `.text`:CODE:NOROOT(2)
        SECTION_TYPE SHT_PROGBITS, 0
        DATA
`?<Constant ">cfg_Standby_mode">`:
        DC8 ">cfg_Standby_mode"
        DC8 0, 0

        SECTION `.text`:CODE:NOROOT(2)
        SECTION_TYPE SHT_PROGBITS, 0
        DATA
`?<Constant ">cfg_Standby_gap_time">`:
        DC8 ">cfg_Standby_gap_time"
        DC8 0, 0

        SECTION `.text`:CODE:NOROOT(2)
        SECTION_TYPE SHT_PROGBITS, 0
        DATA
`?<Constant ">PRINT_FINISHED_COUNT">`:
        DC8 ">PRINT_FINISHED_COUNT"
        DC8 0, 0
//  904 
//  905 

        SECTION `.text`:CODE:NOROOT(1)
          CFI Block cfiBlock20 Using cfiCommon0
          CFI Function epr_write_data
        THUMB
//  906 void epr_write_data(uint16_t pos, const uint8_t* value, uint16_t size)
//  907 	{
epr_write_data:
        PUSH     {R4-R6,LR}
          CFI R14 Frame(CFA, -4)
          CFI R6 Frame(CFA, -8)
          CFI R5 Frame(CFA, -12)
          CFI R4 Frame(CFA, -16)
          CFI CFA R13+16
        SUB      SP,SP,#+8
          CFI CFA R13+24
        MOV      R4,R0
        MOV      R5,R1
        MOV      R6,R2
        B.N      ??epr_write_data_0
//  908   while (size--) {
//  909 	const uint8_t v = *value;
//  910 	uint8_t eppr_r;
//  911         
//  912 	AT24CXX_Read((uint16_t)pos,&eppr_r,1);
//  913 	
//  914 	if (v != eppr_r) {		 
//  915 	  AT24CXX_Write((uint16_t)pos, (uint8_t *)&v,1);
//  916   
//  917 	  AT24CXX_Read((uint16_t)pos,&eppr_r,1);
//  918 	  if (eppr_r != v) {
//  919 		SERIAL_ECHO_START();
//  920 		SERIAL_ECHOPGM("Error writing to EEPROM:");
//  921 	  	char *p = dst_buf;
//  922 		while(*p != 0)	SERIAL_CHAR(*p++);
//  923 		SERIAL_EOL();
//  924 		return;
//  925 	  }
//  926 	}
//  927 	pos++;
??epr_write_data_1:
        ADDS     R4,R4,#+1
//  928 	value++;
        ADDS     R5,R5,#+1
??epr_write_data_0:
        MOV      R0,R6
        SUBS     R6,R0,#+1
        UXTH     R0,R0
        CMP      R0,#+0
        BEQ.N    ??epr_write_data_2
        LDRB     R0,[R5, #+0]
        STRB     R0,[SP, #+1]
        MOVS     R2,#+1
        ADD      R1,SP,#+0
        MOV      R0,R4
        UXTH     R0,R0
          CFI FunCall AT24CXX_Read
        BL       AT24CXX_Read
        LDRB     R0,[SP, #+1]
        LDRB     R1,[SP, #+0]
        CMP      R0,R1
        BEQ.N    ??epr_write_data_1
        MOVS     R2,#+1
        ADD      R1,SP,#+1
        MOV      R0,R4
        UXTH     R0,R0
          CFI FunCall AT24CXX_Write
        BL       AT24CXX_Write
        MOVS     R2,#+1
        ADD      R1,SP,#+0
        MOV      R0,R4
        UXTH     R0,R0
          CFI FunCall AT24CXX_Read
        BL       AT24CXX_Read
        LDRB     R0,[SP, #+0]
        LDRB     R1,[SP, #+1]
        CMP      R0,R1
        BEQ.N    ??epr_write_data_1
        LDR.W    R0,??DataTable252
          CFI FunCall _Z14serialprintPGMPKc
        BL       _Z14serialprintPGMPKc
        ADR.W    R0,`?<Constant "Error writing to EEPROM:">`
          CFI FunCall _Z14serialprintPGMPKc
        BL       _Z14serialprintPGMPKc
        LDR.W    R4,??DataTable252_1
        B.N      ??epr_write_data_3
??epr_write_data_4:
        LDRB     R1,[R4], #+1
          CFI FunCall _ZN10USARTClass5writeEh
        BL       _ZN10USARTClass5writeEh
??epr_write_data_3:
        LDR.W    R0,??DataTable253
        LDRSB    R1,[R4, #+0]
        CMP      R1,#+0
        BNE.N    ??epr_write_data_4
        MOVS     R1,#+10
          CFI FunCall _ZN10USARTClass5writeEh
        BL       _ZN10USARTClass5writeEh
//  929   }
//  930 }
??epr_write_data_2:
        POP      {R0,R1,R4-R6,PC}  ;; return
          CFI EndBlock cfiBlock20

        SECTION `.text`:CODE:NOROOT(2)
        SECTION_TYPE SHT_PROGBITS, 0
        DATA
??DataTable251:
        DC32     `?<Constant ">cfg_filament_load_speed">`

        SECTION `.text`:CODE:NOROOT(2)
        SECTION_TYPE SHT_PROGBITS, 0
        DATA
??DataTable251_1:
        DC32     `?<Constant ">cfg_filament_unload_...">`

        SECTION `.text`:CODE:NOROOT(2)
        SECTION_TYPE SHT_PROGBITS, 0
        DATA
??DataTable251_2:
        DC32     `?<Constant ">cfg_filament_unload_...">_2`

        SECTION `.text`:CODE:NOROOT(2)
        SECTION_TYPE SHT_PROGBITS, 0
        DATA
??DataTable251_3:
        DC32     `?<Constant ">moreitem_button2_cmd:">`

        SECTION `.text`:CODE:NOROOT(2)
        SECTION_TYPE SHT_PROGBITS, 0
        DATA
??DataTable251_4:
        DC32     `?<Constant ">moreitem_button3_cmd:">`

        SECTION `.text`:CODE:NOROOT(2)
        SECTION_TYPE SHT_PROGBITS, 0
        DATA
??DataTable251_5:
        DC32     `?<Constant ">moreitem_button5_cmd:">`

        SECTION `.text`:CODE:NOROOT(2)
        SECTION_TYPE SHT_PROGBITS, 0
        DATA
??DataTable251_6:
        DC32     `?<Constant ">moreitem_button7_cmd:">`

        SECTION `.text`:CODE:NOROOT(2)
        SECTION_TYPE SHT_PROGBITS, 0
        DATA
??DataTable251_7:
        DC32     `?<Constant ">morefunc4_cmd:">`

        SECTION `.text`:CODE:NOROOT(2)
        SECTION_TYPE SHT_PROGBITS, 0
        DATA
??DataTable251_8:
        DC32     `?<Constant ">cfg_screen_display_mode">`

        SECTION `.text`:CODE:NOROOT(2)
        SECTION_TYPE SHT_PROGBITS, 0
        DATA
??DataTable251_9:
        DC32     `?<Constant ">cfg_leveling_mode">`

        SECTION `.text`:CODE:NOROOT(2)
        SECTION_TYPE SHT_PROGBITS, 0
        DATA
`?<Constant "Error writing to EEPROM:">`:
        DC8 "Error writing to EEPROM:"
        DC8 0, 0, 0
//  931 
//  932 

        SECTION `.text`:CODE:NOROOT(1)
          CFI Block cfiBlock21 Using cfiCommon0
          CFI Function epr_read_data
        THUMB
//  933 void epr_read_data(int pos, uint8_t* value, uint16_t size) 
//  934 	{
epr_read_data:
        PUSH     {R4-R6,LR}
          CFI R14 Frame(CFA, -4)
          CFI R6 Frame(CFA, -8)
          CFI R5 Frame(CFA, -12)
          CFI R4 Frame(CFA, -16)
          CFI CFA R13+16
        SUB      SP,SP,#+8
          CFI CFA R13+24
        MOV      R4,R0
        MOV      R5,R1
        MOV      R6,R2
//  935   do {
//  936 	uint8_t c;
//  937 	AT24CXX_Read((uint16_t)pos,&c,1);
??epr_read_data_0:
        MOVS     R2,#+1
        ADD      R1,SP,#+0
        MOV      R0,R4
        UXTH     R0,R0
          CFI FunCall AT24CXX_Read
        BL       AT24CXX_Read
//  938 	*value = c;
        LDRB     R0,[SP, #+0]
        STRB     R0,[R5], #+1
//  939 	pos++;
        ADDS     R4,R4,#+1
//  940 	value++;
//  941   } while (--size);
        SUBS     R6,R6,#+1
        UXTH     R6,R6
        CMP      R6,#+0
        BNE.N    ??epr_read_data_0
//  942 }
        POP      {R0,R1,R4-R6,PC}  ;; return
          CFI EndBlock cfiBlock21
//  943 
//  944 
//  945 //除settings.reset();外，其他默认参数恢复

        SECTION `.text`:CODE:NOROOT(1)
          CFI Block cfiBlock22 Using cfiCommon0
          CFI Function _ZN10CardReader8mksResetEv
        THUMB
//  946 void CardReader::mksReset() 
//  947 {
_ZN10CardReader8mksResetEv:
        PUSH     {R3-R11,LR}
          CFI R14 Frame(CFA, -4)
          CFI R11 Frame(CFA, -8)
          CFI R10 Frame(CFA, -12)
          CFI R9 Frame(CFA, -16)
          CFI R8 Frame(CFA, -20)
          CFI R7 Frame(CFA, -24)
          CFI R6 Frame(CFA, -28)
          CFI R5 Frame(CFA, -32)
          CFI R4 Frame(CFA, -36)
          CFI CFA R13+40
//  948 	  mksCfg.machinetype = Cartesian;
        LDR.N    R4,??DataTable252_2
        ADD      R10,R4,#+752
        MOVS     R0,#+1
        STRH     R0,[R10, #+24]
//  949 
//  950       mksCfg.invert_x_dir = 1;
        STRB     R0,[R4, #+688]
//  951       mksCfg.invert_y_dir = 0;
        ADD      R5,R4,#+688
        MOVS     R0,#+0
        STRB     R0,[R5, #+1]
//  952       mksCfg.invert_z_dir = 1;
        MOVS     R0,#+1
        STRB     R0,[R5, #+2]
//  953       mksCfg.invert_e0_dir = 0;
        MOVS     R0,#+0
        STRB     R0,[R5, #+3]
//  954 	  mksCfg.invert_e1_dir = 0;
        STRB     R0,[R5, #+4]
//  955 /*--mks cfg XYZ_CONSTS_FROM_CONFIG BEGIN--*/	 
//  956 
//  957       mksCfg.x_home_dir = home_dir_P[0] = -1;
        LDR.W    R0,??DataTable253_1
        MOV      R1,#-1
        STRB     R1,[R0, #+0]
        STRB     R1,[R5, #+5]
//  958       mksCfg.y_home_dir = home_dir_P[1] = -1;
        STRB     R1,[R0, #+1]
        STRB     R1,[R5, #+6]
//  959       mksCfg.z_home_dir = home_dir_P[2] = -1;
        STRB     R1,[R0, #+2]
        STRB     R1,[R5, #+7]
//  960 	  
//  961       mksCfg.x_min_pos = base_min_pos_P[0] = soft_endstop_min[0] = 0;
        LDR.W    R0,??DataTable253_2
        MOVS     R1,#+0
        STR      R1,[R0, #+0]
        LDR.W    R1,??DataTable253_3
        MOVS     R2,#+0
        STR      R2,[R1, #+0]
        STR      R2,[R5, #+8]
//  962       mksCfg.y_min_pos = base_min_pos_P[1] = soft_endstop_min[1] = 0;0;
        STR      R2,[R0, #+4]
        STR      R2,[R1, #+4]
        STR      R2,[R5, #+12]
//  963       mksCfg.z_min_pos = base_min_pos_P[2] = soft_endstop_min[2] = 0;0;
        STR      R2,[R0, #+8]
        MOV      R0,R2
        STR      R0,[R1, #+8]
        STR      R0,[R5, #+16]
//  964 
//  965       mksCfg.x_max_pos = base_max_pos_P[0] = soft_endstop_max[0] = 210;
        LDR.W    R0,??DataTable253_4
        LDR.W    R1,??DataTable253_5  ;; 0x43520000
        STR      R1,[R0, #+0]
        LDR.W    R2,??DataTable253_6
        STR      R1,[R2, #+0]
        STR      R1,[R5, #+20]
//  966       mksCfg.y_max_pos = base_max_pos_P[1] = soft_endstop_max[1] = 210;
        STR      R1,[R0, #+4]
        STR      R1,[R2, #+4]
        STR      R1,[R5, #+24]
        LDR.W    R1,??DataTable253_7  ;; 0x43340000
        STR      R1,[R0, #+8]
        MOV      R0,R1
        STR      R0,[R2, #+8]
        STR      R0,[R5, #+28]
//  967       mksCfg.z_max_pos = base_max_pos_P[2] = soft_endstop_max[2] = 180;
//  968 	  
//  969       max_length_P[0] = mksCfg.x_max_pos - mksCfg.x_min_pos;
        LDR.W    R6,??DataTable253_8
        LDR      R0,[R5, #+20]
        MOVS     R1,#+0
          CFI FunCall __aeabi_fsub
        BL       __aeabi_fsub
        STR      R0,[R6, #+0]
//  970       max_length_P[1] = mksCfg.y_max_pos - mksCfg.y_min_pos;
        LDR      R0,[R5, #+24]
        LDR      R1,[R5, #+12]
          CFI FunCall __aeabi_fsub
        BL       __aeabi_fsub
        STR      R0,[R6, #+4]
//  971       max_length_P[2] = mksCfg.z_max_pos - mksCfg.z_min_pos;
        LDR      R0,[R5, #+28]
        LDR      R1,[R5, #+16]
          CFI FunCall __aeabi_fsub
        BL       __aeabi_fsub
        STR      R0,[R6, #+8]
//  972 
//  973 
//  974 //#if ENABLED(DELTA)
//  975 #if 0
//  976       base_home_pos_P[0] = 0; 
//  977       base_home_pos_P[1] = 0; 
//  978 #else
//  979       base_home_pos_P[0] = (mksCfg.x_home_dir < 0 ? mksCfg.x_min_pos : mksCfg.x_max_pos); 
        LDRSB    R0,[R5, #+5]
        CMP      R0,#+0
        BPL.N    ??mksReset_0
        LDR      R0,[R5, #+8]
        B.N      ??mksReset_1
??mksReset_0:
        LDR      R0,[R5, #+20]
??mksReset_1:
        LDR.W    R1,??DataTable253_9
        STR      R0,[R1, #+0]
//  980       base_home_pos_P[1] = (mksCfg.y_home_dir < 0 ? mksCfg.y_min_pos : mksCfg.y_max_pos); 
        LDRSB    R0,[R5, #+6]
        CMP      R0,#+0
        BPL.N    ??mksReset_2
        LDR      R0,[R5, #+12]
        B.N      ??mksReset_3
??mksReset_2:
        LDR      R0,[R5, #+24]
??mksReset_3:
        STR      R0,[R1, #+4]
//  981 #endif
//  982       base_home_pos_P[2] = (mksCfg.z_home_dir < 0 ? mksCfg.z_min_pos : mksCfg.z_max_pos); ; 
        LDRSB    R0,[R5, #+7]
        CMP      R0,#+0
        BPL.N    ??mksReset_4
        LDR      R0,[R5, #+16]
        B.N      ??mksReset_5
??mksReset_4:
        LDR      R0,[R5, #+28]
??mksReset_5:
        STR      R0,[R1, #+8]
//  983 
//  984 
//  985 	  home_bump_mm_P[0] = 5;	//X_HOME_BUMP_MM;
        LDR.W    R0,??DataTable253_10
        LDR.W    R6,??DataTable253_11  ;; 0x40a00000
        STR      R6,[R0, #+0]
//  986 	  home_bump_mm_P[1] = 5;	//Y_HOME_BUMP_MM
        STR      R6,[R0, #+4]
//  987 //#if ENABLED(DELTA)	
//  988 #if 0
//  989 	  home_bump_mm_P[2] = 5;	//Z_HOME_BUMP_MM
//  990 #else
//  991 	  home_bump_mm_P[2] = 2;	//Z_HOME_BUMP_MM
        MOV      R1,#+1073741824
        STR      R1,[R0, #+8]
//  992 #endif
//  993 	  
//  994 	  /*--mks cfg XYZ_CONSTS_FROM_CONFIG END--*/
//  995 	  
//  996       mksCfg.min_software_endstops = 1;
        MOVS     R0,#+1
        STRB     R0,[R4, #+720]
//  997       mksCfg.max_software_endstops = 1;
        ADD      R8,R4,#+720
        STRB     R0,[R8, #+1]
//  998 
//  999       mksCfg.homing_feedrate_xy = 2400;
        LDR.W    R0,??DataTable253_12  ;; 0x45160000
        STR      R0,[R8, #+4]
// 1000       mksCfg.homing_feedrate_z = 600;
        LDR.W    R0,??DataTable253_13  ;; 0x44160000
        STR      R0,[R8, #+8]
// 1001 
// 1002 //#if ENABLED(DELTA)
// 1003 #if 0
// 1004       homing_feedrate_mm_s[0] = mksCfg.homing_feedrate_z/60;
// 1005       homing_feedrate_mm_s[1] = mksCfg.homing_feedrate_z/60;
// 1006 #else
// 1007       homing_feedrate_mm_s[0] = mksCfg.homing_feedrate_xy/60;
        LDR.W    R7,??DataTable253_14
        LDR.W    R0,??DataTable253_15  ;; 0x42200000
        STR      R0,[R7, #+0]
// 1008       homing_feedrate_mm_s[1] = mksCfg.homing_feedrate_xy/60;
        LDR      R0,[R8, #+4]
        LDR.W    R1,??DataTable253_16  ;; 0x42700000
          CFI FunCall __aeabi_fdiv
        BL       __aeabi_fdiv
        STR      R0,[R7, #+4]
// 1009 #endif
// 1010       homing_feedrate_mm_s[2] = mksCfg.homing_feedrate_z/60;
        LDR      R0,[R8, #+8]
        LDR.W    R1,??DataTable253_16  ;; 0x42700000
          CFI FunCall __aeabi_fdiv
        BL       __aeabi_fdiv
        STR      R0,[R7, #+8]
// 1011       homing_feedrate_mm_s[3] = 0;
        MOVS     R0,#+0
        STR      R0,[R7, #+12]
// 1012 
// 1013 
// 1014       mksCfg.extrude_mintemp = 170;
        LDR.W    R7,??DataTable253_17  ;; 0x432a0000
        STR      R7,[R8, #+12]
// 1015       mksCfg.bed_maxtemp = 150;
        MOVS     R0,#+150
        STRH     R0,[R8, #+18]
// 1016 	  thermalManager.extrude_min_temp = 170;
        MOVS     R0,#+170
        LDR.W    R1,??DataTable253_18
        STRH     R0,[R1, #+0]
// 1017 
// 1018 	  //robinPlus add
// 1019 	  mksCfg.heater_0_mintemp = 5;
        ADD      R0,R4,#+896
        STR      R0,[SP, #+0]
        MOVS     R0,#+5
        LDR      R1,[SP, #+0]
        STRH     R0,[R1, #+32]
// 1020       mksCfg.heater_0_maxtemp = 275;
        MOVW     R0,#+275
        STRH     R0,[R8, #+16]
// 1021 	  mksCfg.heater_1_mintemp = 5;
        MOVS     R1,#+5
        STRB     R1,[R4, #+930]
// 1022       mksCfg.heater_1_maxtemp = 275;
        ADDW     R1,R4,#+930
        STRH     R0,[R1, #+2]
// 1023 	  mksCfg.temp_sensor_0 = 1;
        MOVS     R0,#+1
        STRB     R0,[R1, #+4]
// 1024 	  mksCfg.extruders = 1;
        STRB     R0,[R1, #+5]
// 1025 
// 1026 	  
// 1027 #if ENABLED(ULTRA_LCD)          
// 1028 	  heater_maxtemp[0] = 275;
// 1029 #endif
// 1030 	mksCfg.pidtemp = 1;
        STRB     R0,[R8, #+20]
// 1031 	mksCfg.pidtempbed= 0;
        MOVS     R0,#+0
        STRB     R0,[R8, #+21]
// 1032 	mksCfg.has_temp_bed = 1;
        MOVS     R0,#+1
        STRB     R0,[R8, #+22]
// 1033 
// 1034 	mksCfg.x_min_endstop_inverting = 1;
        STRB     R0,[R8, #+23]
// 1035 	mksCfg.y_min_endstop_inverting = 1;
        STRB     R0,[R8, #+24]
// 1036 	mksCfg.z_min_endstop_inverting = 1;
        STRB     R0,[R8, #+25]
// 1037 	mksCfg.x_max_endstop_inverting = 1;
        STRB     R0,[R8, #+26]
// 1038 	mksCfg.y_max_endstop_inverting = 1;
        STRB     R0,[R8, #+27]
// 1039 	mksCfg.z_max_endstop_inverting = 1;
        STRB     R0,[R8, #+28]
// 1040 	mksCfg.z_min_probe_endstop_inverting = 0;
        MOVS     R0,#+0
        STRB     R0,[R8, #+29]
// 1041 	mksCfg.lcd_language = 0;
        STRH     R0,[R8, #+30]
// 1042 
// 1043 #if ENABLED(ULTRA_LCD)
// 1044 	Language_Reset();
// 1045 #endif
// 1046 
// 1047 	mksCfg.home_y_before_x = 0;
// 1048 
// 1049 	mksCfg.grid_max_points_x = 3;
        MOVS     R0,#+3
        STRB     R0,[R4, #+784]
// 1050 	mksCfg.grid_max_points_y = 3;
        ADD      R8,R4,#+784
        STRB     R0,[R8, #+1]
// 1051 
// 1052 	mksCfg.mesh_inst = 10;
        ADD      R9,R4,#+816
        MOVS     R0,#+10
        STRB     R0,[R9, #+24]
// 1053 	
// 1054 	mbl.meshInit();
          CFI FunCall _ZN17mesh_bed_leveling8meshInitEv
        BL       _ZN17mesh_bed_leveling8meshInitEv
// 1055 
// 1056 #if ENABLED(AUTO_BED_LEVELING_UBL)
// 1057 	ubl.state.active = false;
// 1058 	ubl.state.z_offset = 0.0;
// 1059 	ubl.state.eeprom_storage_slot = -1;
// 1060 #endif
// 1061 
// 1062 	mksCfg.bed_leveling_method = NULL_BED_LEVELING;				
        MOVS     R0,#+1
        STRB     R0,[R4, #+752]
// 1063 
// 1064 	mksCfg.delta_smooth_rod_offset = 144;
        LDR.W    R0,??DataTable253_19  ;; 0x43100000
        STR      R0,[R10, #+4]
// 1065 	mksCfg.delta_effector_offset = 25;
        LDR.W    R0,??DataTable253_20  ;; 0x41c80000
        STR      R0,[R10, #+8]
// 1066 	mksCfg.delta_carriage_offset = 17;
        LDR.W    R0,??DataTable253_21  ;; 0x41880000
        STR      R0,[R10, #+12]
// 1067 	mksCfg.delta_height	= 120;
        LDR.W    R0,??DataTable253_22  ;; 0x42f00000
        STR      R0,[R10, #+16]
// 1068 	mksCfg.delta_printable_radius = 127;
        LDR.W    R0,??DataTable253_23  ;; 0x42fe0000
        STR      R0,[R10, #+20]
// 1069 
// 1070 #if defined(MKS_ROBIN_LITE)
// 1071 	TIM3->CCR1 = 500*0.364;
// 1072 	TIM3->CCR2 = 500*0.364;
// 1073 	TIM3->CCR3 = 500*0.364;
// 1074 #endif
// 1075 
// 1076 	mksCfg.z_clearance_deploy_probe = 15;
        LDR.W    R10,??DataTable253_24  ;; 0x41700000
        STR      R10,[R8, #+4]
// 1077 	mksCfg.z_clearance_between_probes = 5;
        STR      R6,[R8, #+8]
// 1078 	
// 1079 	mksCfg.x_probe_offset_from_extruder = 0;
        MOVS     R0,#+0
        STR      R0,[R8, #+12]
// 1080 	mksCfg.y_probe_offset_from_extruder = 0;
        STR      R0,[R8, #+16]
// 1081 
// 1082 	mksCfg.xy_probe_speed = 4000;
        LDR.W    R0,??DataTable253_25  ;; 0x457a0000
        STR      R0,[R8, #+20]
// 1083 	mksCfg.z_probe_speed_fast = 6000;
        LDR.W    R0,??DataTable253_26  ;; 0x45bb8000
        STR      R0,[R8, #+24]
// 1084 	mksCfg.z_probe_speed_slow = 3000;
        LDR.W    R0,??DataTable253_27  ;; 0x453b8000
        STR      R0,[R8, #+28]
// 1085 	
// 1086 	xy_probe_feedrate_mm_s = MMM_TO_MMS(XY_PROBE_SPEED);
        LDR      R0,[R8, #+20]
        LDR.W    R1,??DataTable253_16  ;; 0x42700000
          CFI FunCall __aeabi_fdiv
        BL       __aeabi_fdiv
        LDR.W    R1,??DataTable253_28
        STR      R0,[R1, #+0]
// 1087 
// 1088 	
// 1089 #if ENABLED(ULTRA_LCD)
// 1090 		manual_feedrate_mm_m[0] = 3000;
// 1091 		manual_feedrate_mm_m[1] = 3000;
// 1092 		manual_feedrate_mm_m[2] = 240;
// 1093 		manual_feedrate_mm_m[3] = 60;
// 1094 #endif
// 1095 
// 1096 	mksCfg.use_xmin_plug = 1;
        MOVS     R0,#+1
        STRB     R0,[R4, #+816]
// 1097 	mksCfg.use_ymin_plug = 1;
        STRB     R0,[R9, #+1]
// 1098 	mksCfg.use_zmin_plug = 1;
        STRB     R0,[R9, #+2]
// 1099 	mksCfg.use_xmax_plug = 0;
        MOVS     R0,#+0
        STRB     R0,[R9, #+3]
// 1100 	mksCfg.use_ymax_plug = 0;
        STRH     R0,[R9, #+4]
// 1101 	mksCfg.use_zmax_plug = 0;
// 1102 
// 1103 
// 1104 	mksCfg.left_probe_bed_position = 15;
        STR      R10,[R9, #+8]
// 1105 	mksCfg.right_probe_bed_position = 170;
        STR      R7,[R9, #+12]
// 1106 	mksCfg.front_probe_bed_position = 20;
        LDR.W    R11,??DataTable253_29  ;; 0x41a00000
        STR      R11,[R9, #+16]
// 1107 	mksCfg.back_probe_bed_position = 170;
        STR      R7,[R9, #+20]
        LDR      R1,[R5, #+8]
        LDR      R0,[R8, #+12]
          CFI FunCall __aeabi_fadd
        BL       __aeabi_fadd
        LDR      R1,[R5, #+8]
          CFI FunCall __aeabi_cfcmple
        BL       __aeabi_cfcmple
        BCS.N    ??mksReset_6
        MOV      R0,R1
??mksReset_6:
        LDR.W    R1,??DataTable253_30
        STR      R0,[R1, #+0]
        LDR      R1,[R5, #+20]
        LDR      R0,[R8, #+12]
          CFI FunCall __aeabi_fadd
        BL       __aeabi_fadd
        MOV      R1,R0
        LDR      R0,[R5, #+20]
          CFI FunCall __aeabi_cfcmple
        BL       __aeabi_cfcmple
        BCS.N    ??mksReset_7
        MOV      R1,R0
??mksReset_7:
        LDR.W    R0,??DataTable253_30
        STR      R1,[R0, #+4]
        LDR      R1,[R5, #+12]
        LDR      R0,[R8, #+16]
          CFI FunCall __aeabi_fadd
        BL       __aeabi_fadd
        LDR      R1,[R5, #+12]
          CFI FunCall __aeabi_cfcmple
        BL       __aeabi_cfcmple
        BCS.N    ??mksReset_8
        MOV      R0,R1
??mksReset_8:
        LDR.W    R1,??DataTable253_30
        STR      R0,[R1, #+8]
// 1108 
// 1109 
// 1110 	MIN_PROBE_X = max(X_MIN_POS, X_MIN_POS + X_PROBE_OFFSET_FROM_EXTRUDER);
// 1111 	MAX_PROBE_X = min(X_MAX_POS, X_MAX_POS + X_PROBE_OFFSET_FROM_EXTRUDER);
// 1112 	MIN_PROBE_Y = max(Y_MIN_POS, Y_MIN_POS + Y_PROBE_OFFSET_FROM_EXTRUDER);
// 1113 	MAX_PROBE_Y = min(Y_MAX_POS, Y_MAX_POS + Y_PROBE_OFFSET_FROM_EXTRUDER);
        LDR      R5,[R5, #+24]
        LDR      R0,[R8, #+16]
        MOV      R1,R5
          CFI FunCall __aeabi_fadd
        BL       __aeabi_fadd
        MOV      R1,R0
        MOV      R0,R5
          CFI FunCall __aeabi_cfcmple
        BL       __aeabi_cfcmple
        BCC.N    ??mksReset_9
        MOV      R5,R1
??mksReset_9:
        LDR.W    R0,??DataTable253_30
        STR      R5,[R0, #+12]
// 1114 #if ENABLED(ULTRA_LCD)
// 1115 	total_probe_points  = 1;
// 1116 #endif
// 1117 
// 1118 	mksCfg.z_min_probe_pin_mode = 0;
        MOVS     R0,#+0
        STRB     R0,[R9, #+25]
// 1119 
// 1120 	mksCfg.abl_probe_pt1_x = 15;
        STR      R10,[R9, #+28]
// 1121 	mksCfg.abl_probe_pt1_y = 180;
        LDR.W    R0,??DataTable253_7  ;; 0x43340000
        STR      R0,[R9, #+32]
// 1122 	mksCfg.abl_probe_pt2_x = 15;
        STR      R10,[R9, #+36]
// 1123 	mksCfg.abl_probe_pt2_y = 20;
        STR      R11,[R9, #+40]
// 1124 	mksCfg.abl_probe_pt3_x = 170;
        STR      R7,[R9, #+44]
// 1125 	mksCfg.abl_probe_pt3_y = 20;
        STR      R11,[R9, #+48]
// 1126 	
// 1127 	planner.init();
        LDR.W    R0,??DataTable253_31
          CFI FunCall _ZN7Planner4initEv
        BL       _ZN7Planner4initEv
// 1128 
// 1129 	mksCfg.ubl_mesh_inset = 20;
        MOVS     R0,#+20
        STRH     R0,[R9, #+52]
// 1130 	mksCfg.ubl_probe_pt_1_x = 15;
        STR      R10,[R9, #+56]
// 1131 	mksCfg.ubl_probe_pt_1_y = 180;
        LDR.W    R0,??DataTable253_7  ;; 0x43340000
        STR      R0,[R9, #+60]
// 1132 	mksCfg.ubl_probe_pt_2_x = 15;
        STR      R10,[R9, #+64]
// 1133 	mksCfg.ubl_probe_pt_2_y = 20;
        STR      R11,[R9, #+68]
// 1134 	mksCfg.ubl_probe_pt_3_x = 170;
        STR      R7,[R9, #+72]
// 1135 	mksCfg.ubl_probe_pt_3_y = 20;
        STR      R11,[R9, #+76]
// 1136 
// 1137 	ubl.mesh_index_to_xypos_init();
          CFI FunCall _ZN20unified_bed_leveling24mesh_index_to_xypos_initEv
        BL       _ZN20unified_bed_leveling24mesh_index_to_xypos_initEv
// 1138 
// 1139 	mksCfg.fil_runout_inverting = 0;
        MOVS     R0,#+0
        STRB     R0,[R4, #+896]
// 1140 
// 1141 	mksCfg.filament_change_x_pos = 5;
        LDR      R0,[SP, #+0]
        STR      R6,[R0, #+4]
// 1142 	mksCfg.filament_change_y_pos = 5;
        LDR      R0,[SP, #+0]
        STR      R6,[R0, #+8]
// 1143 	mksCfg.filament_change_z_add = 5;
        LDR      R0,[SP, #+0]
        STR      R6,[R0, #+12]
// 1144 
// 1145 
// 1146 	mksCfg.thermal_protection_period = 40;
        MOVS     R0,#+40
        LDR      R1,[SP, #+0]
        STRH     R0,[R1, #+16]
// 1147 	mksCfg.thermal_protection_hysteresis = 4;
        MOVS     R0,#+4
        LDR      R1,[SP, #+0]
        STRB     R0,[R1, #+18]
// 1148 	mksCfg.watch_temp_period = 20;
        MOVS     R0,#+20
        LDR      R1,[SP, #+0]
        STRH     R0,[R1, #+20]
// 1149 	mksCfg.watch_temp_increase = 2;
        MOVS     R0,#+2
        LDR      R1,[SP, #+0]
        STRB     R0,[R1, #+22]
// 1150 
// 1151 	mksCfg.thermal_protection_bed_period = 20;
        MOVS     R0,#+20
        LDR      R1,[SP, #+0]
        STRH     R0,[R1, #+24]
// 1152 	mksCfg.thermal_protection_bed_hysteresis = 2;
        MOVS     R0,#+2
        LDR      R1,[SP, #+0]
        STRB     R0,[R1, #+26]
// 1153 	mksCfg.watch_bed_temp_period = 60;
        MOVS     R0,#+60
        LDR      R1,[SP, #+0]
        STRH     R0,[R1, #+28]
// 1154 	mksCfg.watch_bed_temp_increase = 2;
        MOVS     R0,#+2
        LDR      R1,[SP, #+0]
        STRB     R0,[R1, #+30]
// 1155 
// 1156 
// 1157 	mksTmp.cfg_hardware_test_enable = 0;
        MOVS     R0,#+0
        LDR.W    R1,??DataTable253_30
        STRB     R0,[R1, #+19]
// 1158 
// 1159 	
// 1160 	
// 1161 	mksCfg.hotnd_offset_x = 20.0;
        STR      R11,[R4, #+936]
// 1162 	mksCfg.hotnd_offset_y = 5.0;
        ADD      R0,R4,#+936
        STR      R6,[R0, #+4]
// 1163 
// 1164 	mksCfg.mkstouch = 0;
        MOVS     R1,#+0
        STRH     R1,[R0, #+8]
// 1165 
// 1166     mksCfg.z2_enable=0;
// 1167     mksCfg.z2_endstops_enable=0;
        STRB     R1,[R0, #+10]
// 1168     mksCfg.z2_endstop=1;
        MOVS     R1,#+1
        STRB     R1,[R0, #+11]
// 1169 
// 1170     mksCfg.x_enable_on=0;
        MOVS     R1,#+0
        STR      R1,[R0, #+12]
// 1171     mksCfg.y_enable_on=0;
// 1172     mksCfg.z_enable_on=0;
// 1173     mksCfg.e_enable_on=0;
// 1174 	//mkstft_ui_init();
// 1175 
// 1176 }
        POP      {R0,R4-R11,PC}   ;; return
          CFI EndBlock cfiBlock22

        SECTION `.text`:CODE:NOROOT(2)
        SECTION_TYPE SHT_PROGBITS, 0
        DATA
??DataTable252:
        DC32     echomagic

        SECTION `.text`:CODE:NOROOT(2)
        SECTION_TYPE SHT_PROGBITS, 0
        DATA
??DataTable252_1:
        DC32     dst_buf

        SECTION `.text`:CODE:NOROOT(2)
        SECTION_TYPE SHT_PROGBITS, 0
        DATA
??DataTable252_2:
        DC32     gCfgItems
// 1177 

        SECTION `.text`:CODE:NOROOT(1)
          CFI Block cfiBlock23 Using cfiCommon0
          CFI Function _ZN10CardReader7mksLoadEv
        THUMB
// 1178 void CardReader::mksLoad() 
// 1179 {
_ZN10CardReader7mksLoadEv:
        PUSH     {R4-R10,LR}
          CFI R14 Frame(CFA, -4)
          CFI R10 Frame(CFA, -8)
          CFI R9 Frame(CFA, -12)
          CFI R8 Frame(CFA, -16)
          CFI R7 Frame(CFA, -20)
          CFI R6 Frame(CFA, -24)
          CFI R5 Frame(CFA, -28)
          CFI R4 Frame(CFA, -32)
          CFI CFA R13+32
        SUB      SP,SP,#+8
          CFI CFA R13+40
// 1180     uint8_t cfg_data;
// 1181 
// 1182 	epr_read_data((int)EPR_MACHINETPYE, (uint8_t*)&mksCfg.machinetype, sizeof(mksCfg.machinetype));
        LDR.W    R5,??DataTable253_32
        MOVS     R2,#+2
        ADD      R1,R5,#+776
        MOVW     R0,#+1537
          CFI FunCall epr_read_data
        BL       epr_read_data
// 1183 	if(mksCfg.machinetype < 0 ||  mksCfg.machinetype > 9)	mksCfg.machinetype = 0;
        ADD      R6,R5,#+768
        LDRSH    R0,[R6, #+8]
        CMP      R0,#+10
        BCC.N    ??mksLoad_0
        MOVS     R0,#+0
        STRH     R0,[R6, #+8]
// 1184 	mksCfg.machinetype = (1<<mksCfg.machinetype);
??mksLoad_0:
        MOVS     R4,#+1
        LDRH     R0,[R6, #+8]
        LSL      R0,R4,R0
        STRH     R0,[R6, #+8]
// 1185 
// 1186 	AT24CXX_Read((uint16_t)EPR_BED_LEVELING_METHOD,&mksCfg.bed_leveling_method,1);
        MOV      R2,R4
        ADD      R1,R5,#+752
        MOVW     R0,#+1516
          CFI FunCall AT24CXX_Read
        BL       AT24CXX_Read
// 1187 	if(mksCfg.bed_leveling_method > 5)	mksCfg.bed_leveling_method = 0;
        ADDW     R7,R5,#+745
        LDRB     R0,[R7, #+7]
        CMP      R0,#+6
        BLT.N    ??mksLoad_1
        MOVS     R0,#+0
        STRB     R0,[R7, #+7]
// 1188 	  mksCfg.bed_leveling_method = (1<<mksCfg.bed_leveling_method);
??mksLoad_1:
        LDRSB    R0,[R7, #+7]
        LSL      R0,R4,R0
        STRB     R0,[R7, #+7]
// 1189 
// 1190 	if(MACHINETPYE == DELTA)	//MESH_BED_LEVELING does not yet support DELTA printers.
        LDRSH    R0,[R6, #+8]
        CMP      R0,#+2
        BNE.N    ??mksLoad_2
        LDRB     R0,[R7, #+7]
        CMP      R0,#+2
        BLT.N    ??mksLoad_2
        CMP      R0,#+8
        BEQ.N    ??mksLoad_2
// 1191 		{
// 1192 		if(mksCfg.bed_leveling_method > NULL_BED_LEVELING && mksCfg.bed_leveling_method != AUTO_BED_LEVELING_BILINEAR)
// 1193 			mksCfg.bed_leveling_method = AUTO_BED_LEVELING_BILINEAR;
        MOVS     R0,#+8
        STRB     R0,[R7, #+7]
// 1194 		}
// 1195 
// 1196 
// 1197     AT24CXX_Read((uint16_t)EPR_INVERT_X_DIR,&mksCfg.invert_x_dir,1);
??mksLoad_2:
        MOV      R2,R4
        ADD      R1,R5,#+688
        MOVW     R0,#+1454
          CFI FunCall AT24CXX_Read
        BL       AT24CXX_Read
// 1198     AT24CXX_Read((uint16_t)EPR_INVERT_Y_DIR,&mksCfg.invert_y_dir,1);
        MOV      R2,R4
        ADDW     R1,R5,#+689
        MOVW     R0,#+1455
          CFI FunCall AT24CXX_Read
        BL       AT24CXX_Read
// 1199     AT24CXX_Read((uint16_t)EPR_INVERT_Z_DIR,&mksCfg.invert_z_dir,1);
        MOV      R2,R4
        ADDW     R1,R5,#+690
        MOV      R0,#+1456
          CFI FunCall AT24CXX_Read
        BL       AT24CXX_Read
// 1200     AT24CXX_Read((uint16_t)EPR_INVERT_E0_DIR,&mksCfg.invert_e0_dir,1);
        MOV      R2,R4
        ADDW     R1,R5,#+691
        MOVW     R0,#+1457
          CFI FunCall AT24CXX_Read
        BL       AT24CXX_Read
// 1201 	AT24CXX_Read((uint16_t)EPR_INVERT_E1_DIR,&mksCfg.invert_e1_dir,1);
        MOV      R2,R4
        ADD      R1,R5,#+692
        MOVW     R0,#+1458
          CFI FunCall AT24CXX_Read
        BL       AT24CXX_Read
// 1202 /*--mks cfg XYZ_CONSTS_FROM_CONFIG BEGIN--*/
// 1203     AT24CXX_Read((uint16_t)EPR_X_HOME_DIR,&cfg_data,1); home_dir_P[0] = mksCfg.x_home_dir = (int)cfg_data;
        MOV      R2,R4
        ADD      R1,SP,#+0
        MOVW     R0,#+1459
          CFI FunCall AT24CXX_Read
        BL       AT24CXX_Read
        LDRSB    R0,[SP, #+0]
        STRB     R0,[R5, #+693]
        LDR.W    R4,??DataTable253_1
        LDRB     R0,[R5, #+693]
        STRB     R0,[R4, #+0]
// 1204     AT24CXX_Read((uint16_t)EPR_Y_HOME_DIR,&cfg_data,1); home_dir_P[1] = mksCfg.y_home_dir = (int)cfg_data;
        MOVS     R2,#+1
        ADD      R1,SP,#+0
        MOVW     R0,#+1460
          CFI FunCall AT24CXX_Read
        BL       AT24CXX_Read
        ADDW     R8,R5,#+693
        LDRSB    R0,[SP, #+0]
        STRB     R0,[R8, #+1]
        LDRB     R0,[R8, #+1]
        STRB     R0,[R4, #+1]
// 1205     AT24CXX_Read((uint16_t)EPR_Z_HOME_DIR,&cfg_data,1); home_dir_P[2] = mksCfg.z_home_dir = (int)cfg_data;
        MOVS     R2,#+1
        ADD      R1,SP,#+0
        MOVW     R0,#+1461
          CFI FunCall AT24CXX_Read
        BL       AT24CXX_Read
        LDRSB    R0,[SP, #+0]
        STRB     R0,[R8, #+2]
        LDRB     R0,[R8, #+2]
        STRB     R0,[R4, #+2]
// 1206 
// 1207     epr_read_data((int)EPR_X_MIN_POS, (uint8_t*)&mksCfg.x_min_pos, sizeof(mksCfg.x_min_pos)); base_min_pos_P[0] = soft_endstop_min[0] = mksCfg.x_min_pos;
        ADD      R4,R5,#+696
        MOVS     R2,#+4
        MOV      R1,R4
        MOVW     R0,#+1462
          CFI FunCall epr_read_data
        BL       epr_read_data
        LDR      R0,[R5, #+696]
        LDR.W    R9,??DataTable253_2
        STR      R0,[R9, #+0]
        LDR.W    R10,??DataTable253_3
        STR      R0,[R10, #+0]
// 1208     epr_read_data((int)EPR_Y_MIN_POS, (uint8_t*)&mksCfg.y_min_pos, sizeof(mksCfg.y_min_pos)); base_min_pos_P[1] = soft_endstop_min[1] = mksCfg.y_min_pos;
        MOVS     R2,#+4
        ADD      R1,R5,#+700
        MOVW     R0,#+1466
          CFI FunCall epr_read_data
        BL       epr_read_data
        LDR      R0,[R4, #+4]
        STR      R0,[R9, #+4]
        STR      R0,[R10, #+4]
// 1209     epr_read_data((int)EPR_Z_MIN_POS, (uint8_t*)&mksCfg.z_min_pos, sizeof(mksCfg.z_min_pos)); base_min_pos_P[2] = soft_endstop_min[2] = mksCfg.z_min_pos;
        MOVS     R2,#+4
        ADD      R1,R5,#+704
        MOVW     R0,#+1470
          CFI FunCall epr_read_data
        BL       epr_read_data
        LDR      R0,[R4, #+8]
        STR      R0,[R9, #+8]
        STR      R0,[R10, #+8]
// 1210 
// 1211     epr_read_data((int)EPR_X_MAX_POS, (uint8_t*)&mksCfg.x_max_pos, sizeof(mksCfg.x_max_pos)); base_max_pos_P[0] = soft_endstop_max[0] = mksCfg.x_max_pos;
        MOVS     R2,#+4
        ADD      R1,R5,#+708
        MOVW     R0,#+1474
          CFI FunCall epr_read_data
        BL       epr_read_data
        LDR      R0,[R4, #+12]
        LDR.W    R9,??DataTable253_4
        STR      R0,[R9, #+0]
        LDR.W    R10,??DataTable253_6
        STR      R0,[R10, #+0]
// 1212     epr_read_data((int)EPR_Y_MAX_POS, (uint8_t*)&mksCfg.y_max_pos, sizeof(mksCfg.y_max_pos)); base_max_pos_P[1] = soft_endstop_max[1] = mksCfg.y_max_pos;
        MOVS     R2,#+4
        ADD      R1,R5,#+712
        MOVW     R0,#+1478
          CFI FunCall epr_read_data
        BL       epr_read_data
        LDR      R0,[R4, #+16]
        STR      R0,[R9, #+4]
        STR      R0,[R10, #+4]
// 1213     epr_read_data((int)EPR_Z_MAX_POS, (uint8_t*)&mksCfg.z_max_pos, sizeof(mksCfg.z_max_pos)); base_max_pos_P[2] = soft_endstop_max[2] = mksCfg.z_max_pos;
        MOVS     R2,#+4
        ADD      R1,R5,#+716
        MOVW     R0,#+1482
          CFI FunCall epr_read_data
        BL       epr_read_data
        LDR      R0,[R4, #+20]
        STR      R0,[R9, #+8]
        STR      R0,[R10, #+8]
// 1214 
// 1215     max_length_P[0] = mksCfg.x_max_pos - mksCfg.x_min_pos;
        LDR.W    R9,??DataTable253_8
        LDR      R0,[R4, #+12]
        LDR      R1,[R5, #+696]
          CFI FunCall __aeabi_fsub
        BL       __aeabi_fsub
        STR      R0,[R9, #+0]
// 1216     max_length_P[1] = mksCfg.y_max_pos - mksCfg.y_min_pos;
        LDR      R0,[R4, #+16]
        LDR      R1,[R4, #+4]
          CFI FunCall __aeabi_fsub
        BL       __aeabi_fsub
        STR      R0,[R9, #+4]
// 1217     max_length_P[2] = mksCfg.z_max_pos - mksCfg.z_min_pos;
        LDR      R0,[R4, #+20]
        LDR      R1,[R4, #+8]
          CFI FunCall __aeabi_fsub
        BL       __aeabi_fsub
        STR      R0,[R9, #+8]
// 1218 
// 1219     //epr_read_data((int)EPR_X_HOME_BUMP_MM, (uint8_t*)&mksCfg.x_home_bump_mm, sizeof(mksCfg.x_home_bump_mm));
// 1220     //epr_read_data((int)EPR_Y_HOME_BUMP_MM, (uint8_t*)&mksCfg.y_home_bump_mm, sizeof(mksCfg.y_home_bump_mm));
// 1221     //epr_read_data((int)EPR_Z_HOME_BUMP_MM, (uint8_t*)&mksCfg.z_home_bump_mm, sizeof(mksCfg.z_home_bump_mm));
// 1222 
// 1223 	if(MACHINETPYE == DELTA)
        LDRSH    R0,[R6, #+8]
        CMP      R0,#+2
        BNE.N    ??mksLoad_3
// 1224 	{
// 1225     	base_home_pos_P[0] = 0; 
        LDR.W    R0,??DataTable253_9
        MOVS     R1,#+0
        STR      R1,[R0, #+0]
// 1226 	    base_home_pos_P[1] = 0; 
        STR      R1,[R0, #+4]
// 1227     	base_home_pos_P[2] = (mksCfg.z_home_dir < 0 ? mksCfg.z_min_pos : mksCfg.z_max_pos); ; 
        LDRSB    R1,[R8, #+2]
        CMP      R1,#+0
        BPL.N    ??mksLoad_4
        LDR      R1,[R4, #+8]
        B.N      ??mksLoad_5
??mksLoad_4:
        LDR      R1,[R4, #+20]
??mksLoad_5:
        STR      R1,[R0, #+8]
// 1228 		home_bump_mm_P[2] = 5;
        LDR.W    R0,??DataTable253_11  ;; 0x40a00000
        LDR.W    R1,??DataTable253_10
        STR      R0,[R1, #+8]
        B.N      ??mksLoad_6
// 1229 	}
// 1230 	else
// 1231 	{
// 1232 	    base_home_pos_P[0] = (mksCfg.x_home_dir < 0 ? mksCfg.x_min_pos : mksCfg.x_max_pos); 
??mksLoad_3:
        LDRSB    R0,[R5, #+693]
        CMP      R0,#+0
        BPL.N    ??mksLoad_7
        LDR      R1,[R5, #+696]
        B.N      ??mksLoad_8
??mksLoad_7:
        LDR      R1,[R4, #+12]
??mksLoad_8:
        LDR.W    R0,??DataTable253_9
        STR      R1,[R0, #+0]
// 1233     	base_home_pos_P[1] = (mksCfg.y_home_dir < 0 ? mksCfg.y_min_pos : mksCfg.y_max_pos); 
        LDRSB    R1,[R8, #+1]
        CMP      R1,#+0
        BPL.N    ??mksLoad_9
        LDR      R1,[R4, #+4]
        B.N      ??mksLoad_10
??mksLoad_9:
        LDR      R1,[R4, #+16]
??mksLoad_10:
        STR      R1,[R0, #+4]
// 1234 	    base_home_pos_P[2] = (mksCfg.z_home_dir < 0 ? mksCfg.z_min_pos : mksCfg.z_max_pos); ; 
        LDRSB    R1,[R8, #+2]
        CMP      R1,#+0
        BPL.N    ??mksLoad_11
        LDR      R1,[R4, #+8]
        B.N      ??mksLoad_12
??mksLoad_11:
        LDR      R1,[R4, #+20]
??mksLoad_12:
        STR      R1,[R0, #+8]
// 1235 		home_bump_mm_P[2] = 2;//mksCfg.z_home_bump_mm;//
        MOV      R0,#+1073741824
        LDR.W    R1,??DataTable253_10
        STR      R0,[R1, #+8]
// 1236 	}
// 1237     home_bump_mm_P[0] = 5;//mksCfg.x_home_bump_mm;//
??mksLoad_6:
        MOV      R0,R1
        LDR.W    R1,??DataTable253_11  ;; 0x40a00000
        STR      R1,[R0, #+0]
// 1238     home_bump_mm_P[1] = 5;//mksCfg.y_home_bump_mm;//
        STR      R1,[R0, #+4]
// 1239 
// 1240 /*--mks cfg XYZ_CONSTS_FROM_CONFIG END--*/
// 1241     AT24CXX_Read((uint16_t)EPR_MIN_SOFTWARE_ENDSTOPS,&mksCfg.min_software_endstops,1);
        MOVS     R2,#+1
        ADD      R1,R5,#+720
        MOVW     R0,#+1486
          CFI FunCall AT24CXX_Read
        BL       AT24CXX_Read
// 1242     AT24CXX_Read((uint16_t)EPR_MAX_SOFTWARE_ENDSTOPS,&mksCfg.max_software_endstops,1);
        MOVS     R2,#+1
        ADDW     R1,R5,#+721
        MOVW     R0,#+1487
          CFI FunCall AT24CXX_Read
        BL       AT24CXX_Read
// 1243 
// 1244     epr_read_data((int)EPR_HOMING_FEEDRATE_XY, (uint8_t*)&mksCfg.homing_feedrate_xy, sizeof(mksCfg.homing_feedrate_xy));
        MOVS     R2,#+4
        ADD      R1,R5,#+724
        MOV      R0,#+1488
          CFI FunCall epr_read_data
        BL       epr_read_data
// 1245     epr_read_data((int)EPR_HOMING_FEEDRATE_Z, (uint8_t*)&mksCfg.homing_feedrate_z, sizeof(mksCfg.homing_feedrate_z));
        MOVS     R2,#+4
        ADD      R1,R5,#+728
        MOVW     R0,#+1492
          CFI FunCall epr_read_data
        BL       epr_read_data
// 1246 
// 1247 
// 1248 
// 1249 	if(MACHINETPYE == DELTA)
        LDR.W    R8,??DataTable253_14
        LDRSH    R0,[R6, #+8]
        CMP      R0,#+2
        BNE.N    ??mksLoad_13
// 1250 	{
// 1251 	    homing_feedrate_mm_s[0] = mksCfg.homing_feedrate_z/60;
        LDR      R0,[R4, #+32]
        LDR.W    R1,??DataTable253_16  ;; 0x42700000
          CFI FunCall __aeabi_fdiv
        BL       __aeabi_fdiv
        STR      R0,[R8, #+0]
// 1252     	homing_feedrate_mm_s[1] = mksCfg.homing_feedrate_z/60;
        LDR      R0,[R4, #+32]
        LDR.W    R1,??DataTable253_16  ;; 0x42700000
          CFI FunCall __aeabi_fdiv
        BL       __aeabi_fdiv
        STR      R0,[R8, #+4]
        B.N      ??mksLoad_14
// 1253 	}
// 1254 	else
// 1255 	{
// 1256     	homing_feedrate_mm_s[0] = mksCfg.homing_feedrate_xy/60;
??mksLoad_13:
        LDR      R0,[R4, #+28]
        LDR.W    R1,??DataTable253_16  ;; 0x42700000
          CFI FunCall __aeabi_fdiv
        BL       __aeabi_fdiv
        STR      R0,[R8, #+0]
// 1257     	homing_feedrate_mm_s[1] = mksCfg.homing_feedrate_xy/60;
        LDR      R0,[R4, #+28]
        LDR.W    R1,??DataTable253_16  ;; 0x42700000
          CFI FunCall __aeabi_fdiv
        BL       __aeabi_fdiv
        STR      R0,[R8, #+4]
// 1258 	}
// 1259     homing_feedrate_mm_s[2] = mksCfg.homing_feedrate_z/60;
??mksLoad_14:
        LDR      R0,[R4, #+32]
        LDR.W    R1,??DataTable253_16  ;; 0x42700000
          CFI FunCall __aeabi_fdiv
        BL       __aeabi_fdiv
        STR      R0,[R8, #+8]
// 1260     homing_feedrate_mm_s[3] = 0;
        MOVS     R0,#+0
        STR      R0,[R8, #+12]
// 1261 
// 1262 	//robinPlus add
// 1263     epr_read_data((int)EPR_HEATER_0_MINTEMP, (uint8_t*)&mksCfg.heater_0_mintemp, sizeof(mksCfg.extrude_mintemp)); 
        MOVS     R2,#+4
        ADD      R1,R5,#+928
        MOVW     R0,#+1674
          CFI FunCall epr_read_data
        BL       epr_read_data
// 1264 	AT24CXX_Read((uint16_t)EPR_HEATER_1_MINTEMP,&cfg_data,1);  mksCfg.heater_1_mintemp = (int)cfg_data;	
        MOVS     R2,#+1
        ADD      R1,SP,#+0
        MOVW     R0,#+1676
          CFI FunCall AT24CXX_Read
        BL       AT24CXX_Read
        LDRSB    R0,[SP, #+0]
        STRB     R0,[R5, #+930]
// 1265     epr_read_data((int)EPR_HEATER_1_MAXTEMP, (uint8_t*)&mksCfg.heater_1_maxtemp, sizeof(mksCfg.extrude_mintemp)); 
        MOVS     R2,#+4
        ADD      R1,R5,#+932
        MOVW     R0,#+1677
          CFI FunCall epr_read_data
        BL       epr_read_data
// 1266 	AT24CXX_Read((uint16_t)EPR_TEMP_SENSOR_0,&cfg_data,1);  mksCfg.temp_sensor_0 = (int)cfg_data;	
        MOVS     R2,#+1
        ADD      R1,SP,#+0
        MOVW     R0,#+1679
          CFI FunCall AT24CXX_Read
        BL       AT24CXX_Read
        ADDW     R8,R5,#+930
        LDRSB    R0,[SP, #+0]
        STRB     R0,[R8, #+4]
// 1267 	AT24CXX_Read((uint16_t)EPR_EXTRUDERS,&mksCfg.extruders,1);
        MOVS     R2,#+1
        ADDW     R1,R5,#+935
        MOV      R0,#+1680
          CFI FunCall AT24CXX_Read
        BL       AT24CXX_Read
// 1268     epr_read_data((int)EPR_EXTRUDE_MINTEMP, (uint8_t*)&mksCfg.extrude_mintemp, sizeof(mksCfg.extrude_mintemp)); thermalManager.extrude_min_temp = mksCfg.extrude_mintemp;
        MOVS     R2,#+4
        ADD      R1,R5,#+732
        MOV      R0,#+1496
          CFI FunCall epr_read_data
        BL       epr_read_data
        LDR      R0,[R4, #+36]
          CFI FunCall __aeabi_f2iz
        BL       __aeabi_f2iz
        LDR.W    R1,??DataTable253_18
        STRH     R0,[R1, #+0]
// 1269     epr_read_data((int)EPR_HEATER_0_MAXTEMP, (uint8_t*)&mksCfg.heater_0_maxtemp, sizeof(mksCfg.heater_0_maxtemp)); 
        MOVS     R2,#+2
        ADD      R1,R5,#+736
        MOVW     R0,#+1500
          CFI FunCall epr_read_data
        BL       epr_read_data
// 1270 #if ENABLED(ULTRA_LCD)
// 1271     heater_maxtemp[0] = mksCfg.heater_0_maxtemp;
// 1272 	heater_maxtemp[1] = mksCfg.heater_1_maxtemp;
// 1273     heater_mintemp[0] = mksCfg.heater_0_mintemp;
// 1274 	heater_mintemp[1] = mksCfg.heater_1_mintemp;
// 1275 #endif    
// 1276     epr_read_data((int)EPR_BED_MAXTEMP, (uint8_t*)&mksCfg.bed_maxtemp, sizeof(mksCfg.bed_maxtemp));
        MOVS     R2,#+2
        ADDW     R1,R5,#+738
        MOVW     R0,#+1502
          CFI FunCall epr_read_data
        BL       epr_read_data
// 1277 	
// 1278 	
// 1279     AT24CXX_Read((uint16_t)EPR_PIDTEMP,&mksCfg.pidtemp,1);
        MOVS     R2,#+1
        ADD      R1,R5,#+740
        MOV      R0,#+1504
          CFI FunCall AT24CXX_Read
        BL       AT24CXX_Read
// 1280     AT24CXX_Read((uint16_t)EPR_PIDTEMPBED,&mksCfg.pidtempbed,1);
        MOVS     R2,#+1
        ADDW     R1,R5,#+741
        MOVW     R0,#+1505
          CFI FunCall AT24CXX_Read
        BL       AT24CXX_Read
// 1281     AT24CXX_Read((uint16_t)EPR_HAS_TEMP_BED,&mksCfg.has_temp_bed,1);
        MOVS     R2,#+1
        ADDW     R1,R5,#+742
        MOVW     R0,#+1506
          CFI FunCall AT24CXX_Read
        BL       AT24CXX_Read
// 1282 
// 1283 #if ENABLED(ULTRA_LCD)
// 1284 	if(!mksCfg.has_temp_bed)	/*--mks cfg-- HAS_TEMP_BED --*/
// 1285 		{
// 1286 		status_screen0_bmp[114] = status_screen0_bmp[115] = 0;
// 1287 		status_screen0_bmp[129] = status_screen0_bmp[130] = 0;
// 1288 		status_screen0_bmp[144] = status_screen0_bmp[145] = 0;
// 1289 		status_screen0_bmp[159] = status_screen0_bmp[160] = 0;
// 1290 		status_screen0_bmp[174] = status_screen0_bmp[175] = 0;
// 1291 		status_screen0_bmp[188] = status_screen0_bmp[189] = status_screen0_bmp[190] = 0;
// 1292 		status_screen0_bmp[203] = status_screen0_bmp[204] = status_screen0_bmp[205] = 0;
// 1293 		status_screen0_bmp[219] = status_screen0_bmp[220] = 0;
// 1294 		status_screen0_bmp[234] = status_screen0_bmp[235] = 0;
// 1295 		status_screen0_bmp[263] = status_screen0_bmp[264] = status_screen0_bmp[265] = status_screen0_bmp[266]= 0;
// 1296 		status_screen0_bmp[278] = status_screen0_bmp[279] = status_screen0_bmp[280] = status_screen0_bmp[281]= 0;
// 1297 		
// 1298 		status_screen1_bmp[114] = status_screen1_bmp[115] = 0;
// 1299 		status_screen1_bmp[129] = status_screen1_bmp[130] = 0;
// 1300 		status_screen1_bmp[144] = status_screen1_bmp[145] = 0;
// 1301 		status_screen1_bmp[159] = status_screen1_bmp[160] = 0;
// 1302 		status_screen1_bmp[174] = status_screen1_bmp[175] = 0;
// 1303 		status_screen1_bmp[188] = status_screen1_bmp[189] = status_screen1_bmp[190] = 0;
// 1304 		status_screen1_bmp[203] = status_screen1_bmp[204] = status_screen1_bmp[205] = 0;
// 1305 		status_screen1_bmp[219] = status_screen1_bmp[220] = 0;
// 1306 		status_screen1_bmp[234] = status_screen1_bmp[235] = 0;
// 1307 		status_screen1_bmp[263] = status_screen1_bmp[264] = status_screen1_bmp[265] = status_screen1_bmp[266] =0;
// 1308 		status_screen1_bmp[278] = status_screen1_bmp[279] = status_screen1_bmp[280] = status_screen1_bmp[281] =0;
// 1309 		
// 1310 		}
// 1311 #endif
// 1312         
// 1313     AT24CXX_Read((uint16_t)EPR_X_MIN_ENDSTOP_INVERTING,&mksCfg.x_min_endstop_inverting,1);
        MOVS     R2,#+1
        ADDW     R1,R5,#+743
        MOVW     R0,#+1507
          CFI FunCall AT24CXX_Read
        BL       AT24CXX_Read
// 1314     AT24CXX_Read((uint16_t)EPR_Y_MIN_ENDSTOP_INVERTING,&mksCfg.y_min_endstop_inverting,1);
        MOVS     R2,#+1
        ADD      R1,R5,#+744
        MOVW     R0,#+1508
          CFI FunCall AT24CXX_Read
        BL       AT24CXX_Read
// 1315     AT24CXX_Read((uint16_t)EPR_Z_MIN_ENDSTOP_INVERTING,&mksCfg.z_min_endstop_inverting,1);
        MOVS     R2,#+1
        ADDW     R1,R5,#+745
        MOVW     R0,#+1509
          CFI FunCall AT24CXX_Read
        BL       AT24CXX_Read
// 1316     AT24CXX_Read((uint16_t)EPR_X_MAX_ENDSTOP_INVERTING,&mksCfg.x_max_endstop_inverting,1);
        MOVS     R2,#+1
        ADDW     R1,R5,#+746
        MOVW     R0,#+1510
          CFI FunCall AT24CXX_Read
        BL       AT24CXX_Read
// 1317     AT24CXX_Read((uint16_t)EPR_Y_MAX_ENDSTOP_INVERTING,&mksCfg.y_max_endstop_inverting,1);
        MOVS     R2,#+1
        ADDW     R1,R5,#+747
        MOVW     R0,#+1511
          CFI FunCall AT24CXX_Read
        BL       AT24CXX_Read
// 1318     AT24CXX_Read((uint16_t)EPR_Z_MAX_ENDSTOP_INVERTING,&mksCfg.z_max_endstop_inverting,1);
        MOVS     R2,#+1
        ADD      R1,R5,#+748
        MOV      R0,#+1512
          CFI FunCall AT24CXX_Read
        BL       AT24CXX_Read
// 1319     AT24CXX_Read((uint16_t)EPR_Z_MIN_PROBE_ENDSTOP_INVERTING,&mksCfg.z_min_probe_endstop_inverting,1);
        MOVS     R2,#+1
        ADDW     R1,R5,#+749
        MOVW     R0,#+1513
          CFI FunCall AT24CXX_Read
        BL       AT24CXX_Read
// 1320     AT24CXX_Read((uint16_t)EPR_LCD_LANGUAGE,&mksCfg.lcd_language,1);
        MOVS     R2,#+1
        ADDW     R1,R5,#+750
        MOVW     R0,#+1514
          CFI FunCall AT24CXX_Read
        BL       AT24CXX_Read
// 1321 
// 1322 #if ENABLED(ULTRA_LCD)
// 1323 	Language_Load();
// 1324 #endif
// 1325 
// 1326     AT24CXX_Read((uint16_t)EPR_HOME_Y_BEFORE_X,&mksCfg.home_y_before_x,1);
        MOVS     R2,#+1
        ADDW     R1,R5,#+751
        MOVW     R0,#+1515
          CFI FunCall AT24CXX_Read
        BL       AT24CXX_Read
// 1327 
// 1328 	AT24CXX_Read((uint16_t)EPR_GRID_MAX_POINTS_X,&mksCfg.grid_max_points_x,1);
        MOVS     R2,#+1
        ADD      R1,R5,#+784
        MOVW     R0,#+1545
          CFI FunCall AT24CXX_Read
        BL       AT24CXX_Read
// 1329 	AT24CXX_Read((uint16_t)EPR_GRID_MAX_POINTS_Y,&mksCfg.grid_max_points_y,1);
        MOVS     R2,#+1
        ADDW     R1,R5,#+785
        MOVW     R0,#+1546
          CFI FunCall AT24CXX_Read
        BL       AT24CXX_Read
// 1330 	if(mksCfg.grid_max_points_x > GRID_MAX_POINTS_X_MAX) mksCfg.grid_max_points_x = GRID_MAX_POINTS_X_MAX;
        LDRB     R0,[R6, #+16]
        CMP      R0,#+13
        BLT.N    ??mksLoad_15
        MOVS     R0,#+12
        STRB     R0,[R6, #+16]
// 1331 	if(mksCfg.grid_max_points_y > GRID_MAX_POINTS_Y_MAX) mksCfg.grid_max_points_y = GRID_MAX_POINTS_Y_MAX;
??mksLoad_15:
        LDRB     R0,[R6, #+17]
        CMP      R0,#+13
        BLT.N    ??mksLoad_16
        MOVS     R0,#+12
        STRB     R0,[R6, #+17]
// 1332 	if(MACHINETPYE == DELTA)
??mksLoad_16:
        LDRSH    R0,[R6, #+8]
        CMP      R0,#+2
        BNE.N    ??mksLoad_17
// 1333 		{
// 1334 		if(mksCfg.grid_max_points_x%2 == 0) mksCfg.grid_max_points_x -= 1;//只能为奇数
        LDRB     R0,[R6, #+16]
        LSLS     R1,R0,#+31
        BMI.N    ??mksLoad_18
        SUBS     R0,R0,#+1
        STRB     R0,[R6, #+16]
// 1335 		if(mksCfg.grid_max_points_y%2 == 0) mksCfg.grid_max_points_y -= 1;
??mksLoad_18:
        LDRB     R0,[R6, #+17]
        LSLS     R1,R0,#+31
        BMI.N    ??mksLoad_19
        SUBS     R0,R0,#+1
        STRB     R0,[R6, #+17]
// 1336 		if(mksCfg.grid_max_points_x <3)	mksCfg.grid_max_points_x = 3;	// 不小于3点
??mksLoad_19:
        LDRB     R0,[R6, #+16]
        CMP      R0,#+3
        BGE.N    ??mksLoad_20
        MOVS     R0,#+3
        STRB     R0,[R6, #+16]
// 1337 		if(mksCfg.grid_max_points_y <3)	mksCfg.grid_max_points_y = 3;	
??mksLoad_20:
        LDRB     R0,[R6, #+17]
        CMP      R0,#+3
        BGE.N    ??mksLoad_17
        MOVS     R0,#+3
        STRB     R0,[R6, #+17]
// 1338 		}
// 1339 	//#error "GRID_MAX_POINTS_X and GRID_MAX_POINTS_Y must be less than 10 for MBL."
// 1340 	if(MESH_BED_LEVELING == MESH_BED_LEVELING)
// 1341 		{
// 1342 		if(mksCfg.grid_max_points_x > 9)	mksCfg.grid_max_points_x = 9;
??mksLoad_17:
        LDRB     R0,[R6, #+16]
        CMP      R0,#+10
        BLT.N    ??mksLoad_21
        MOVS     R0,#+9
        STRB     R0,[R6, #+16]
// 1343 		if(mksCfg.grid_max_points_y > 9)	mksCfg.grid_max_points_y = 9;
??mksLoad_21:
        LDRB     R0,[R6, #+17]
        CMP      R0,#+10
        BLT.N    ??mksLoad_22
        MOVS     R0,#+9
        STRB     R0,[R6, #+17]
// 1344 		}
// 1345 
// 1346 #if ENABLED(ULTRA_LCD)      
// 1347 	total_probe_points  = (GRID_MAX_POINTS_X) * (GRID_MAX_POINTS_Y);
// 1348 #endif        
// 1349 	AT24CXX_Read((uint16_t)EPR_MESH_INSET,&mksCfg.mesh_inst,1);
??mksLoad_22:
        MOVS     R2,#+1
        ADD      R1,R5,#+840
        MOVW     R0,#+1597
          CFI FunCall AT24CXX_Read
        BL       AT24CXX_Read
// 1350 	
// 1351 	mbl.meshInit();
          CFI FunCall _ZN17mesh_bed_leveling8meshInitEv
        BL       _ZN17mesh_bed_leveling8meshInitEv
// 1352 
// 1353 
// 1354 #if ENABLED(AUTO_BED_LEVELING_UBL)
// 1355 	ubl.state.active = false;
// 1356 	ubl.state.z_offset = 0.0;
// 1357 	ubl.state.eeprom_storage_slot = -1;
// 1358 #endif
// 1359 
// 1360 
// 1361 
// 1362     epr_read_data((int)EPR_DELTA_SMOOTH_ROD_OFFSET, (uint8_t*)&mksCfg.delta_smooth_rod_offset, sizeof(mksCfg.delta_smooth_rod_offset));
        MOVS     R2,#+4
        ADD      R1,R5,#+756
        MOVW     R0,#+1517
          CFI FunCall epr_read_data
        BL       epr_read_data
// 1363     epr_read_data((int)EPR_DELTA_EFFECTOR_OFFSET, (uint8_t*)&mksCfg.delta_effector_offset, sizeof(mksCfg.delta_effector_offset));
        MOVS     R2,#+4
        ADD      R1,R5,#+760
        MOVW     R0,#+1521
          CFI FunCall epr_read_data
        BL       epr_read_data
// 1364     epr_read_data((int)EPR_DELTA_CARRIAGE_OFFSET, (uint8_t*)&mksCfg.delta_carriage_offset, sizeof(mksCfg.delta_carriage_offset));
        MOVS     R2,#+4
        ADD      R1,R5,#+764
        MOVW     R0,#+1525
          CFI FunCall epr_read_data
        BL       epr_read_data
// 1365     epr_read_data((int)EPR_DELTA_HEIGHT, (uint8_t*)&mksCfg.delta_height, sizeof(mksCfg.delta_height));
        MOVS     R2,#+4
        MOV      R1,R6
        MOVW     R0,#+1529
          CFI FunCall epr_read_data
        BL       epr_read_data
// 1366     delta_height = mksCfg.delta_height;
        LDR      R0,[R5, #+768]
        LDR.W    R1,??DataTable253_33
        STR      R0,[R1, #+0]
// 1367     epr_read_data((int)EPR_DELTA_PRINTABLE_RADIUS, (uint8_t*)&mksCfg.delta_printable_radius, sizeof(mksCfg.delta_printable_radius));
        MOVS     R2,#+4
        ADD      R1,R5,#+772
        MOVW     R0,#+1533
          CFI FunCall epr_read_data
        BL       epr_read_data
// 1368 
// 1369 #if defined(MKS_ROBIN_LITE)
// 1370     epr_read_data((int)EPR_CURRENT_VREF_XY, (uint8_t*)&mksCfg.current_vref_xy, sizeof(mksCfg.current_vref_xy)); 
// 1371     TIM3->CCR3 = mksCfg.current_vref_xy < 1000 ? mksCfg.current_vref_xy*0.364:364;      //A4988,RS=0.2欧，XY限制最大电流为1A.
// 1372     
// 1373     epr_read_data((int)EPR_CURRENT_VREF_Z, (uint8_t*)&mksCfg.current_vref_z, sizeof(mksCfg.current_vref_z)); 
// 1374     TIM3->CCR2 = mksCfg.current_vref_z < 1000 ? mksCfg.current_vref_z*0.364:364;      //A4988,RS=0.2欧，Z限制最大电流为1A.
// 1375 	
// 1376     epr_read_data((int)EPR_CURRENT_VREF_E, (uint8_t*)&mksCfg.current_vref_e, sizeof(mksCfg.current_vref_e)); 
// 1377     TIM3->CCR1 = mksCfg.current_vref_e < 1000 ? mksCfg.current_vref_e*0.364:364;      //A4988,RS=0.2欧，E限制最大电流为1A.
// 1378 #endif
// 1379 
// 1380 	epr_read_data((int)EPR_Z_CLEARANCE_DEPLOY_PROBE, (uint8_t*)&mksCfg.z_clearance_deploy_probe, sizeof(mksCfg.z_clearance_deploy_probe));			if(mksCfg.z_clearance_deploy_probe <= 0.0)		mksCfg.z_clearance_deploy_probe   = 0.0001;
        MOVS     R2,#+4
        ADD      R1,R5,#+788
        MOVW     R0,#+1547
          CFI FunCall epr_read_data
        BL       epr_read_data
        LDR      R0,[R6, #+20]
        MOVS     R1,#+0
          CFI FunCall __aeabi_cfcmple
        BL       __aeabi_cfcmple
        BHI.N    ??mksLoad_23
        LDR.W    R0,??DataTable253_34  ;; 0x38d1b717
        STR      R0,[R6, #+20]
// 1381 	epr_read_data((int)EPR_Z_CLEARANCE_BETWEEN_PROBES, (uint8_t*)&mksCfg.z_clearance_between_probes, sizeof(mksCfg.z_clearance_between_probes));	if(mksCfg.z_clearance_between_probes <= 0.0)	mksCfg.z_clearance_between_probes = 0.0001;
??mksLoad_23:
        MOVS     R2,#+4
        ADD      R1,R5,#+792
        MOVW     R0,#+1551
          CFI FunCall epr_read_data
        BL       epr_read_data
        LDR      R0,[R6, #+24]
        MOVS     R1,#+0
          CFI FunCall __aeabi_cfcmple
        BL       __aeabi_cfcmple
        BHI.N    ??mksLoad_24
        LDR.W    R0,??DataTable253_34  ;; 0x38d1b717
        STR      R0,[R6, #+24]
// 1382 
// 1383 	epr_read_data((int)EPR_X_PROBE_OFFSET_FROM_EXTRUDER, (uint8_t*)&mksCfg.x_probe_offset_from_extruder, sizeof(mksCfg.x_probe_offset_from_extruder));	
??mksLoad_24:
        MOVS     R2,#+4
        ADD      R1,R5,#+796
        MOVW     R0,#+1555
          CFI FunCall epr_read_data
        BL       epr_read_data
// 1384 	epr_read_data((int)EPR_Y_PROBE_OFFSET_FROM_EXTRUDER, (uint8_t*)&mksCfg.y_probe_offset_from_extruder, sizeof(mksCfg.y_probe_offset_from_extruder));	
        MOVS     R2,#+4
        ADD      R1,R5,#+800
        MOVW     R0,#+1559
          CFI FunCall epr_read_data
        BL       epr_read_data
// 1385 
// 1386 	epr_read_data((int)EPR_XY_PROBE_SPEED, (uint8_t*)&mksCfg.xy_probe_speed, sizeof(mksCfg.xy_probe_speed));	
        MOVS     R2,#+4
        ADD      R1,R5,#+804
        MOVW     R0,#+1563
          CFI FunCall epr_read_data
        BL       epr_read_data
// 1387 	epr_read_data((int)EPR_Z_PROBE_SPEED_FAST, (uint8_t*)&mksCfg.z_probe_speed_fast, sizeof(mksCfg.z_probe_speed_fast));	
        MOVS     R2,#+4
        ADD      R1,R5,#+808
        MOVW     R0,#+1567
          CFI FunCall epr_read_data
        BL       epr_read_data
// 1388 	epr_read_data((int)EPR_Z_PROBE_SPEED_SLOW, (uint8_t*)&mksCfg.z_probe_speed_slow, sizeof(mksCfg.z_probe_speed_slow));	
        MOVS     R2,#+4
        ADD      R1,R5,#+812
        MOVW     R0,#+1571
          CFI FunCall epr_read_data
        BL       epr_read_data
// 1389 
// 1390 	xy_probe_feedrate_mm_s = MMM_TO_MMS(XY_PROBE_SPEED);
        LDR      R0,[R6, #+36]
        LDR.W    R1,??DataTable253_16  ;; 0x42700000
          CFI FunCall __aeabi_fdiv
        BL       __aeabi_fdiv
        LDR.W    R1,??DataTable253_28
        STR      R0,[R1, #+0]
// 1391 
// 1392 #if ENABLED(ULTRA_LCD)
// 1393 	manual_feedrate_mm_m[0] = 3000;
// 1394 	manual_feedrate_mm_m[1] = 3000;
// 1395 	manual_feedrate_mm_m[3] = 60;
// 1396 
// 1397 	if(MACHINETPYE == DELTA)
// 1398 		manual_feedrate_mm_m[2] = 3000;
// 1399 	else
// 1400 		manual_feedrate_mm_m[2] = 240;
// 1401 #endif
// 1402 
// 1403 	AT24CXX_Read((uint16_t)EPR_USE_XMIN_PLUG,&mksCfg.use_xmin_plug,1);
        MOVS     R2,#+1
        ADD      R1,R5,#+816
        MOVW     R0,#+1575
          CFI FunCall AT24CXX_Read
        BL       AT24CXX_Read
// 1404 	AT24CXX_Read((uint16_t)EPR_USE_YMIN_PLUG,&mksCfg.use_ymin_plug,1);
        MOVS     R2,#+1
        ADDW     R1,R5,#+817
        MOV      R0,#+1576
          CFI FunCall AT24CXX_Read
        BL       AT24CXX_Read
// 1405 	AT24CXX_Read((uint16_t)EPR_USE_ZMIN_PLUG,&mksCfg.use_zmin_plug,1);
        MOVS     R2,#+1
        ADDW     R1,R5,#+818
        MOVW     R0,#+1577
          CFI FunCall AT24CXX_Read
        BL       AT24CXX_Read
// 1406 	AT24CXX_Read((uint16_t)EPR_USE_XMAX_PLUG,&mksCfg.use_xmax_plug,1);
        MOVS     R2,#+1
        ADDW     R1,R5,#+819
        MOVW     R0,#+1578
          CFI FunCall AT24CXX_Read
        BL       AT24CXX_Read
// 1407 	AT24CXX_Read((uint16_t)EPR_USE_YMAX_PLUG,&mksCfg.use_ymax_plug,1);
        MOVS     R2,#+1
        ADD      R1,R5,#+820
        MOVW     R0,#+1579
          CFI FunCall AT24CXX_Read
        BL       AT24CXX_Read
// 1408 	AT24CXX_Read((uint16_t)EPR_USE_ZMAX_PLUG,&mksCfg.use_zmax_plug,1);
        MOVS     R2,#+1
        ADDW     R1,R5,#+821
        MOVW     R0,#+1580
          CFI FunCall AT24CXX_Read
        BL       AT24CXX_Read
// 1409 
// 1410 
// 1411 	epr_read_data((int)EPR_LEFT_PROBE_BED_POSITION, (uint8_t*)&mksCfg.left_probe_bed_position, sizeof(mksCfg.left_probe_bed_position));	
        MOVS     R2,#+4
        ADD      R1,R5,#+824
        MOVW     R0,#+1581
          CFI FunCall epr_read_data
        BL       epr_read_data
// 1412 	epr_read_data((int)EPR_RIGHT_PROBE_BED_POSITION, (uint8_t*)&mksCfg.right_probe_bed_position, sizeof(mksCfg.right_probe_bed_position));	
        MOVS     R2,#+4
        ADD      R1,R5,#+828
        MOVW     R0,#+1585
          CFI FunCall epr_read_data
        BL       epr_read_data
// 1413 	epr_read_data((int)EPR_FRONT_PROBE_BED_POSITION, (uint8_t*)&mksCfg.front_probe_bed_position, sizeof(mksCfg.front_probe_bed_position));	
        MOVS     R2,#+4
        ADD      R1,R5,#+832
        MOVW     R0,#+1589
          CFI FunCall epr_read_data
        BL       epr_read_data
// 1414 	epr_read_data((int)EPR_BACK_PROBE_BED_POSITION, (uint8_t*)&mksCfg.back_probe_bed_position, sizeof(mksCfg.back_probe_bed_position));	
        MOVS     R2,#+4
        ADD      R1,R5,#+836
        MOVW     R0,#+1593
          CFI FunCall epr_read_data
        BL       epr_read_data
// 1415 	if(mksCfg.left_probe_bed_position > mksCfg.right_probe_bed_position)	
        LDR      R0,[R6, #+60]
        LDR      R1,[R6, #+56]
          CFI FunCall __aeabi_cfcmple
        BL       __aeabi_cfcmple
        BCS.N    ??mksLoad_25
// 1416 		mksSwap(&mksCfg.left_probe_bed_position,&mksCfg.right_probe_bed_position);
        ADD      R1,R5,#+828
        ADD      R0,R5,#+824
          CFI FunCall _Z7mksSwapPfS_
        BL       _Z7mksSwapPfS_
// 1417 	if(mksCfg.front_probe_bed_position > mksCfg.back_probe_bed_position)	
??mksLoad_25:
        LDR      R0,[R6, #+68]
        LDR      R1,[R6, #+64]
          CFI FunCall __aeabi_cfcmple
        BL       __aeabi_cfcmple
        BCS.N    ??mksLoad_26
// 1418 		mksSwap(&mksCfg.front_probe_bed_position,&mksCfg.back_probe_bed_position);
        ADD      R1,R5,#+836
        ADD      R0,R5,#+832
          CFI FunCall _Z7mksSwapPfS_
        BL       _Z7mksSwapPfS_
// 1419 
// 1420 		if(MACHINETPYE == DELTA)
??mksLoad_26:
        LDR      R10,[R5, #+696]
        LDR.W    R9,??DataTable253_30
        LDRSH    R0,[R6, #+8]
        CMP      R0,#+2
        BNE.N    ??mksLoad_27
// 1421 			{
// 1422 			MIN_PROBE_X = X_MIN_POS;
        STR      R10,[R9, #+0]
// 1423 			MAX_PROBE_X = X_MAX_POS;
        LDR      R0,[R4, #+12]
        STR      R0,[R9, #+4]
// 1424 			MIN_PROBE_Y = Y_MIN_POS;
        LDR      R0,[R4, #+4]
        STR      R0,[R9, #+8]
// 1425 			MAX_PROBE_Y = Y_MAX_POS;
        LDR      R0,[R4, #+16]
        STR      R0,[R9, #+12]
        B.N      ??mksLoad_28
// 1426 			}
// 1427 		else
// 1428 			{
// 1429 			MIN_PROBE_X = max(X_MIN_POS, X_MIN_POS + X_PROBE_OFFSET_FROM_EXTRUDER);
??mksLoad_27:
        LDR      R1,[R6, #+28]
        MOV      R0,R10
          CFI FunCall __aeabi_fadd
        BL       __aeabi_fadd
        MOV      R1,R10
          CFI FunCall __aeabi_cfcmple
        BL       __aeabi_cfcmple
        BCC.N    ??mksLoad_29
        MOV      R10,R0
??mksLoad_29:
        STR      R10,[R9, #+0]
// 1430 			MAX_PROBE_X = min(X_MAX_POS, X_MAX_POS + X_PROBE_OFFSET_FROM_EXTRUDER);
        LDR      R10,[R4, #+12]
        LDR      R1,[R6, #+28]
        MOV      R0,R10
          CFI FunCall __aeabi_fadd
        BL       __aeabi_fadd
        MOV      R1,R0
        MOV      R0,R10
          CFI FunCall __aeabi_cfcmple
        BL       __aeabi_cfcmple
        BCC.N    ??mksLoad_30
        MOV      R10,R1
??mksLoad_30:
        STR      R10,[R9, #+4]
// 1431 			MIN_PROBE_Y = max(Y_MIN_POS, Y_MIN_POS + Y_PROBE_OFFSET_FROM_EXTRUDER);
        LDR      R10,[R4, #+4]
        LDR      R1,[R6, #+32]
        MOV      R0,R10
          CFI FunCall __aeabi_fadd
        BL       __aeabi_fadd
        MOV      R1,R10
          CFI FunCall __aeabi_cfcmple
        BL       __aeabi_cfcmple
        BCC.N    ??mksLoad_31
        MOV      R10,R0
??mksLoad_31:
        STR      R10,[R9, #+8]
// 1432 			MAX_PROBE_Y = min(Y_MAX_POS, Y_MAX_POS + Y_PROBE_OFFSET_FROM_EXTRUDER);
        LDR      R4,[R4, #+16]
        LDR      R1,[R6, #+32]
        MOV      R0,R4
          CFI FunCall __aeabi_fadd
        BL       __aeabi_fadd
        MOV      R1,R0
        MOV      R0,R4
          CFI FunCall __aeabi_cfcmple
        BL       __aeabi_cfcmple
        BCC.N    ??mksLoad_32
        MOV      R4,R1
??mksLoad_32:
        STR      R4,[R9, #+12]
// 1433 			}
// 1434 		if(mksCfg.left_probe_bed_position < MIN_PROBE_X)	mksCfg.left_probe_bed_position = MIN_PROBE_X + 10;
??mksLoad_28:
        LDR      R4,[R9, #+0]
        LDR      R0,[R6, #+56]
        MOV      R1,R4
          CFI FunCall __aeabi_cfcmple
        BL       __aeabi_cfcmple
        BCS.N    ??mksLoad_33
        LDR.N    R1,??DataTable253_35  ;; 0x41200000
        MOV      R0,R4
          CFI FunCall __aeabi_fadd
        BL       __aeabi_fadd
        STR      R0,[R6, #+56]
// 1435 		if(mksCfg.right_probe_bed_position > MAX_PROBE_X)	mksCfg.left_probe_bed_position = MAX_PROBE_X - 10;
??mksLoad_33:
        LDR      R0,[R9, #+4]
        LDR      R1,[R6, #+60]
          CFI FunCall __aeabi_cfcmple
        BL       __aeabi_cfcmple
        BCS.N    ??mksLoad_34
        LDR.N    R1,??DataTable253_36  ;; 0xc1200000
          CFI FunCall __aeabi_fadd
        BL       __aeabi_fadd
        STR      R0,[R6, #+56]
// 1436 		if(mksCfg.front_probe_bed_position < MIN_PROBE_Y)	mksCfg.left_probe_bed_position = MAX_PROBE_Y + 10;
??mksLoad_34:
        LDR      R0,[R6, #+64]
        LDR      R1,[R9, #+8]
          CFI FunCall __aeabi_cfcmple
        BL       __aeabi_cfcmple
        BCS.N    ??mksLoad_35
        LDR      R0,[R9, #+12]
        LDR.N    R1,??DataTable253_35  ;; 0x41200000
          CFI FunCall __aeabi_fadd
        BL       __aeabi_fadd
        STR      R0,[R6, #+56]
// 1437 		if(mksCfg.back_probe_bed_position > MAX_PROBE_Y)	mksCfg.left_probe_bed_position = MAX_PROBE_Y - 10;
??mksLoad_35:
        LDR      R0,[R9, #+12]
        LDR      R1,[R6, #+68]
          CFI FunCall __aeabi_cfcmple
        BL       __aeabi_cfcmple
        BCS.N    ??mksLoad_36
        LDR.N    R1,??DataTable253_36  ;; 0xc1200000
          CFI FunCall __aeabi_fadd
        BL       __aeabi_fadd
        STR      R0,[R6, #+56]
// 1438 
// 1439     
// 1440 	if(MACHINETPYE&IS_CORE)
??mksLoad_36:
        LDRSH    R0,[R6, #+8]
        MOVS     R1,#+252
        TST      R0,R1
        BEQ.N    ??mksLoad_37
// 1441 		{
// 1442 		if(MACHINETPYE & CORE_IS_XY)
        MOVS     R1,#+12
        TST      R0,R1
        BEQ.N    ??mksLoad_38
// 1443 			{
// 1444 			CORE_AXIS_1 = A_AXIS;
        MOVS     R0,#+0
        STRB     R0,[R9, #+16]
// 1445 			CORE_AXIS_2 = B_AXIS;
        MOVS     R0,#+1
        STRB     R0,[R9, #+17]
// 1446 			NORMAL_AXIS = Z_AXIS;
        MOVS     R0,#+2
        STRB     R0,[R9, #+18]
        B.N      ??mksLoad_37
// 1447 			}
// 1448 		else if(MACHINETPYE & CORE_IS_XZ)
??mksLoad_38:
        MOVS     R1,#+48
        TST      R0,R1
        BEQ.N    ??mksLoad_39
// 1449 			{
// 1450 			CORE_AXIS_1 = A_AXIS;
        MOVS     R0,#+0
        STRB     R0,[R9, #+16]
// 1451 			NORMAL_AXIS = Y_AXIS;
        MOVS     R0,#+1
        STRB     R0,[R9, #+18]
// 1452 			CORE_AXIS_2 = C_AXIS;
        MOVS     R0,#+2
        STRB     R0,[R9, #+17]
        B.N      ??mksLoad_37
// 1453 			}
// 1454 		else if(MACHINETPYE & CORE_IS_YZ)
??mksLoad_39:
        MOVS     R1,#+192
        TST      R0,R1
        BEQ.N    ??mksLoad_37
// 1455 			{
// 1456 			NORMAL_AXIS = X_AXIS;
        MOVS     R0,#+0
        STRB     R0,[R9, #+18]
// 1457 			CORE_AXIS_1 = B_AXIS;
        MOVS     R0,#+1
        STRB     R0,[R9, #+16]
// 1458 			CORE_AXIS_2 = C_AXIS;
        MOVS     R0,#+2
        STRB     R0,[R9, #+17]
// 1459 			}
// 1460 		}
// 1461 
// 1462 	
// 1463 
// 1464 	AT24CXX_Read((uint16_t)EPR_Z_MIN_PROBE_PIN_MODE,&mksCfg.z_min_probe_pin_mode,1);
??mksLoad_37:
        MOVS     R2,#+1
        ADDW     R1,R5,#+841
        MOVW     R0,#+1598
          CFI FunCall AT24CXX_Read
        BL       AT24CXX_Read
// 1465 
// 1466 	epr_read_data((int)EPR_ABL_PROBE_PT_1_X, (uint8_t*)&mksCfg.abl_probe_pt1_x, sizeof(mksCfg.abl_probe_pt1_x)); 
        MOVS     R2,#+4
        ADD      R1,R5,#+844
        MOVW     R0,#+1599
          CFI FunCall epr_read_data
        BL       epr_read_data
// 1467 	epr_read_data((int)EPR_ABL_PROBE_PT_1_Y, (uint8_t*)&mksCfg.abl_probe_pt1_y, sizeof(mksCfg.abl_probe_pt1_y)); 
        MOVS     R2,#+4
        ADD      R1,R5,#+848
        MOVW     R0,#+1603
          CFI FunCall epr_read_data
        BL       epr_read_data
// 1468 	epr_read_data((int)EPR_ABL_PROBE_PT_2_X, (uint8_t*)&mksCfg.abl_probe_pt2_x, sizeof(mksCfg.abl_probe_pt2_x)); 
        MOVS     R2,#+4
        ADD      R1,R5,#+852
        MOVW     R0,#+1607
          CFI FunCall epr_read_data
        BL       epr_read_data
// 1469 	epr_read_data((int)EPR_ABL_PROBE_PT_2_Y, (uint8_t*)&mksCfg.abl_probe_pt2_y, sizeof(mksCfg.abl_probe_pt2_y)); 
        MOVS     R2,#+4
        ADD      R1,R5,#+856
        MOVW     R0,#+1611
          CFI FunCall epr_read_data
        BL       epr_read_data
// 1470 	epr_read_data((int)EPR_ABL_PROBE_PT_3_X, (uint8_t*)&mksCfg.abl_probe_pt3_x, sizeof(mksCfg.abl_probe_pt3_x)); 
        MOVS     R2,#+4
        ADD      R1,R5,#+860
        MOVW     R0,#+1615
          CFI FunCall epr_read_data
        BL       epr_read_data
// 1471 	epr_read_data((int)EPR_ABL_PROBE_PT_3_Y, (uint8_t*)&mksCfg.abl_probe_pt3_y, sizeof(mksCfg.abl_probe_pt3_y)); 
        MOVS     R2,#+4
        ADD      R1,R5,#+864
        MOVW     R0,#+1619
          CFI FunCall epr_read_data
        BL       epr_read_data
// 1472 
// 1473 	planner.init();
        LDR.N    R0,??DataTable253_31
          CFI FunCall _ZN7Planner4initEv
        BL       _ZN7Planner4initEv
// 1474 
// 1475 
// 1476 	epr_read_data((int)EPR_UBL_MESH_INSET, (uint8_t*)&mksCfg.ubl_mesh_inset, sizeof(mksCfg.ubl_mesh_inset)); 
        MOVS     R2,#+2
        ADD      R1,R5,#+868
        MOVW     R0,#+1623
          CFI FunCall epr_read_data
        BL       epr_read_data
// 1477 	epr_read_data((int)EPR_UBL_PROBE_PT_1_X, (uint8_t*)&mksCfg.ubl_probe_pt_1_x, sizeof(mksCfg.ubl_probe_pt_1_x)); 
        MOVS     R2,#+4
        ADD      R1,R5,#+872
        MOVW     R0,#+1625
          CFI FunCall epr_read_data
        BL       epr_read_data
// 1478 	epr_read_data((int)EPR_UBL_PROBE_PT_1_Y, (uint8_t*)&mksCfg.ubl_probe_pt_1_y, sizeof(mksCfg.ubl_probe_pt_1_y)); 
        MOVS     R2,#+4
        ADD      R1,R5,#+876
        MOVW     R0,#+1629
          CFI FunCall epr_read_data
        BL       epr_read_data
// 1479 	epr_read_data((int)EPR_UBL_PROBE_PT_2_X, (uint8_t*)&mksCfg.ubl_probe_pt_2_x, sizeof(mksCfg.ubl_probe_pt_2_x)); 
        MOVS     R2,#+4
        ADD      R1,R5,#+880
        MOVW     R0,#+1633
          CFI FunCall epr_read_data
        BL       epr_read_data
// 1480 	epr_read_data((int)EPR_UBL_PROBE_PT_2_Y, (uint8_t*)&mksCfg.ubl_probe_pt_2_y, sizeof(mksCfg.ubl_probe_pt_2_y)); 
        MOVS     R2,#+4
        ADD      R1,R5,#+884
        MOVW     R0,#+1637
          CFI FunCall epr_read_data
        BL       epr_read_data
// 1481 	epr_read_data((int)EPR_UBL_PROBE_PT_3_X, (uint8_t*)&mksCfg.ubl_probe_pt_3_x, sizeof(mksCfg.ubl_probe_pt_3_x)); 
        MOVS     R2,#+4
        ADD      R1,R5,#+888
        MOVW     R0,#+1641
          CFI FunCall epr_read_data
        BL       epr_read_data
// 1482 	epr_read_data((int)EPR_UBL_PROBE_PT_3_Y, (uint8_t*)&mksCfg.ubl_probe_pt_3_y, sizeof(mksCfg.ubl_probe_pt_3_y)); 
        MOVS     R2,#+4
        ADD      R1,R5,#+892
        MOVW     R0,#+1645
          CFI FunCall epr_read_data
        BL       epr_read_data
// 1483 
// 1484 	ubl.mesh_index_to_xypos_init();
          CFI FunCall _ZN20unified_bed_leveling24mesh_index_to_xypos_initEv
        BL       _ZN20unified_bed_leveling24mesh_index_to_xypos_initEv
// 1485 
// 1486 	AT24CXX_Read((uint16_t)EPR_FIL_RUNOUT_INVERTING,&mksCfg.fil_runout_inverting,1);
        MOVS     R2,#+1
        ADD      R1,R5,#+896
        MOVW     R0,#+1649
          CFI FunCall AT24CXX_Read
        BL       AT24CXX_Read
// 1487 
// 1488 	epr_read_data((int)EPR_FILAMENT_CHANGE_X_POS, (uint8_t*)&mksCfg.filament_change_x_pos, sizeof(mksCfg.filament_change_x_pos)); 
        MOVS     R2,#+4
        ADD      R1,R5,#+900
        MOVW     R0,#+1650
          CFI FunCall epr_read_data
        BL       epr_read_data
// 1489 	epr_read_data((int)EPR_FILAMENT_CHANGE_Y_POS, (uint8_t*)&mksCfg.filament_change_y_pos, sizeof(mksCfg.filament_change_y_pos)); 
        MOVS     R2,#+4
        ADD      R1,R5,#+904
        MOVW     R0,#+1654
          CFI FunCall epr_read_data
        BL       epr_read_data
// 1490 	epr_read_data((int)EPR_FILAMENT_CHANGE_Z_ADD, (uint8_t*)&mksCfg.filament_change_z_add, sizeof(mksCfg.filament_change_z_add)); 
        MOVS     R2,#+4
        ADD      R1,R5,#+908
        MOVW     R0,#+1658
          CFI FunCall epr_read_data
        BL       epr_read_data
// 1491 
// 1492 
// 1493 //THERMAL_PROTECTION_PERIOD
// 1494 	epr_read_data((int)EPR_THERMAL_PROTECTION_PERIOD, (uint8_t*)&mksCfg.thermal_protection_period, sizeof(mksCfg.thermal_protection_period)); 
        MOVS     R2,#+2
        ADD      R1,R5,#+912
        MOVW     R0,#+1662
          CFI FunCall epr_read_data
        BL       epr_read_data
// 1495 	epr_read_data((int)EPR_THERMAL_PROTECTION_HYSTERESIS, (uint8_t*)&mksCfg.thermal_protection_hysteresis, sizeof(mksCfg.thermal_protection_hysteresis)); 
        MOVS     R2,#+1
        ADDW     R1,R5,#+914
        MOV      R0,#+1664
          CFI FunCall epr_read_data
        BL       epr_read_data
// 1496 	epr_read_data((int)EPR_WATCH_TEMP_PERIOD, (uint8_t*)&mksCfg.watch_temp_period, sizeof(mksCfg.watch_temp_period)); 
        MOVS     R2,#+2
        ADD      R1,R5,#+916
        MOVW     R0,#+1665
          CFI FunCall epr_read_data
        BL       epr_read_data
// 1497 	epr_read_data((int)EPR_WATCH_TEMP_INCREASE, (uint8_t*)&mksCfg.watch_temp_increase, sizeof(mksCfg.watch_temp_increase)); 
        MOVS     R2,#+1
        ADDW     R1,R5,#+918
        MOVW     R0,#+1667
          CFI FunCall epr_read_data
        BL       epr_read_data
// 1498 
// 1499 //THERMAL_PROTECTION_BED_PERIOD
// 1500 	epr_read_data((int)EPR_THERMAL_PROTECTION_BED_PERIOD, (uint8_t*)&mksCfg.thermal_protection_bed_period, sizeof(mksCfg.thermal_protection_bed_period)); 
        MOVS     R2,#+2
        ADD      R1,R5,#+920
        MOVW     R0,#+1668
          CFI FunCall epr_read_data
        BL       epr_read_data
// 1501 	epr_read_data((int)EPR_THERMAL_PROTECTION_BED_HYSTERESIS, (uint8_t*)&mksCfg.thermal_protection_bed_hysteresis, sizeof(mksCfg.thermal_protection_bed_hysteresis)); 
        MOVS     R2,#+1
        ADDW     R1,R5,#+922
        MOVW     R0,#+1670
          CFI FunCall epr_read_data
        BL       epr_read_data
// 1502 	epr_read_data((int)EPR_WATCH_BED_TEMP_PERIOD, (uint8_t*)&mksCfg.watch_bed_temp_period, sizeof(mksCfg.watch_bed_temp_period)); 
        MOVS     R2,#+2
        ADD      R1,R5,#+924
        MOVW     R0,#+1671
          CFI FunCall epr_read_data
        BL       epr_read_data
// 1503 	epr_read_data((int)EPR_WATCH_BED_TEMP_INCREASE, (uint8_t*)&mksCfg.watch_bed_temp_increase, sizeof(mksCfg.watch_bed_temp_increase)); 
        MOVS     R2,#+1
        ADDW     R1,R5,#+926
        MOVW     R0,#+1673
          CFI FunCall epr_read_data
        BL       epr_read_data
// 1504 
// 1505 	//HOTEND_OFFSET_X
// 1506 	epr_read_data((int)EPR_HOTEND_OFFSET_X, (uint8_t*)&mksCfg.hotnd_offset_x, sizeof(mksCfg.hotnd_offset_x)); 
        MOVS     R2,#+4
        ADD      R1,R5,#+936
        MOVW     R0,#+1681
          CFI FunCall epr_read_data
        BL       epr_read_data
// 1507 	epr_read_data((int)EPR_HOTEND_OFFSET_Y, (uint8_t*)&mksCfg.hotnd_offset_y, sizeof(mksCfg.hotnd_offset_y)); 
        MOVS     R2,#+4
        ADD      R1,R5,#+940
        MOVW     R0,#+1685
          CFI FunCall epr_read_data
        BL       epr_read_data
// 1508 
// 1509 	//BLTOUCH
// 1510 	AT24CXX_Read((uint16_t)EPR_MKSTOUCH,&mksCfg.mkstouch,1);
        MOVS     R2,#+1
        ADD      R1,R5,#+944
        MOVW     R0,#+1689
          CFI FunCall AT24CXX_Read
        BL       AT24CXX_Read
// 1511 	if(mksCfg.mkstouch ==1 && mksCfg.bed_leveling_method != NULL_BED_LEVELING)
        LDRB     R0,[R8, #+14]
        CMP      R0,#+1
        BNE.N    ??mksLoad_40
        LDRB     R0,[R7, #+7]
        CMP      R0,#+1
        BEQ.N    ??mksLoad_40
// 1512 	{
// 1513 		mksCfg.z_min_probe_endstop_inverting = 0;
        MOVS     R0,#+0
        STRB     R0,[R7, #+4]
        LDRB     R0,[R5, #+841]
        CMP      R0,#+1
        BNE.N    ??mksLoad_41
// 1514 		if(mksCfg.z_min_probe_pin_mode == 1)	//ZMIN
// 1515 			mksCfg.z_min_endstop_inverting = 0;
        MOVS     R0,#+0
        STRB     R0,[R5, #+745]
        B.N      ??mksLoad_40
// 1516 		else if(mksCfg.z_min_probe_pin_mode == 2)	//ZMAX	
??mksLoad_41:
        CMP      R0,#+2
        BNE.N    ??mksLoad_40
// 1517 			mksCfg.z_max_endstop_inverting = 0;
        MOVS     R0,#+0
        STRB     R0,[R7, #+3]
// 1518 	}
// 1519 
// 1520     AT24CXX_Read((uint16_t)EPR_Z2_ENABLE,&mksCfg.z2_enable,1);
??mksLoad_40:
        MOVS     R2,#+1
        ADDW     R1,R5,#+945
        MOVW     R0,#+1828
          CFI FunCall AT24CXX_Read
        BL       AT24CXX_Read
// 1521     AT24CXX_Read((uint16_t)EPR_Z2_ENDSTOP_ENABLE,&mksCfg.z2_endstops_enable,1);
        MOVS     R2,#+1
        ADDW     R1,R5,#+946
        MOVW     R0,#+1829
          CFI FunCall AT24CXX_Read
        BL       AT24CXX_Read
// 1522     AT24CXX_Read((uint16_t)EPR_Z2_ENDSTOP,&mksCfg.z2_endstop,1);
        MOVS     R2,#+1
        ADDW     R1,R5,#+947
        MOVW     R0,#+1830
          CFI FunCall AT24CXX_Read
        BL       AT24CXX_Read
// 1523 
// 1524     AT24CXX_Read((uint16_t)EPR_X_ENABLE_ON,&mksCfg.x_enable_on,1);
        MOVS     R2,#+1
        ADD      R1,R5,#+948
        MOVW     R0,#+1831
          CFI FunCall AT24CXX_Read
        BL       AT24CXX_Read
// 1525     AT24CXX_Read((uint16_t)EPR_Y_ENABLE_ON,&mksCfg.y_enable_on,1);
        MOVS     R2,#+1
        ADDW     R1,R5,#+949
        MOV      R0,#+1832
          CFI FunCall AT24CXX_Read
        BL       AT24CXX_Read
// 1526     AT24CXX_Read((uint16_t)EPR_Z_ENABLE_ON,&mksCfg.z_enable_on,1);
        MOVS     R2,#+1
        ADDW     R1,R5,#+950
        MOVW     R0,#+1833
          CFI FunCall AT24CXX_Read
        BL       AT24CXX_Read
// 1527     AT24CXX_Read((uint16_t)EPR_E_ENABLE_ON,&mksCfg.e_enable_on,1);
        MOVS     R2,#+1
        ADDW     R1,R5,#+951
        MOVW     R0,#+1834
          CFI FunCall AT24CXX_Read
        BL       AT24CXX_Read
// 1528     
// 1529 	mkstft_ui_load();
          CFI FunCall mkstft_ui_load
        BL       mkstft_ui_load
// 1530 	
// 1531 }
        POP      {R0,R1,R4-R10,PC}  ;; return
          CFI EndBlock cfiBlock23

        SECTION `.text`:CODE:NOROOT(2)
        SECTION_TYPE SHT_PROGBITS, 0
        DATA
??DataTable253:
        DC32     Serial3

        SECTION `.text`:CODE:NOROOT(2)
        SECTION_TYPE SHT_PROGBITS, 0
        DATA
??DataTable253_1:
        DC32     home_dir_P

        SECTION `.text`:CODE:NOROOT(2)
        SECTION_TYPE SHT_PROGBITS, 0
        DATA
??DataTable253_2:
        DC32     soft_endstop_min

        SECTION `.text`:CODE:NOROOT(2)
        SECTION_TYPE SHT_PROGBITS, 0
        DATA
??DataTable253_3:
        DC32     base_min_pos_P

        SECTION `.text`:CODE:NOROOT(2)
        SECTION_TYPE SHT_PROGBITS, 0
        DATA
??DataTable253_4:
        DC32     soft_endstop_max

        SECTION `.text`:CODE:NOROOT(2)
        SECTION_TYPE SHT_PROGBITS, 0
        DATA
??DataTable253_5:
        DC32     0x43520000

        SECTION `.text`:CODE:NOROOT(2)
        SECTION_TYPE SHT_PROGBITS, 0
        DATA
??DataTable253_6:
        DC32     base_max_pos_P

        SECTION `.text`:CODE:NOROOT(2)
        SECTION_TYPE SHT_PROGBITS, 0
        DATA
??DataTable253_7:
        DC32     0x43340000

        SECTION `.text`:CODE:NOROOT(2)
        SECTION_TYPE SHT_PROGBITS, 0
        DATA
??DataTable253_8:
        DC32     max_length_P

        SECTION `.text`:CODE:NOROOT(2)
        SECTION_TYPE SHT_PROGBITS, 0
        DATA
??DataTable253_9:
        DC32     base_home_pos_P

        SECTION `.text`:CODE:NOROOT(2)
        SECTION_TYPE SHT_PROGBITS, 0
        DATA
??DataTable253_10:
        DC32     home_bump_mm_P

        SECTION `.text`:CODE:NOROOT(2)
        SECTION_TYPE SHT_PROGBITS, 0
        DATA
??DataTable253_11:
        DC32     0x40a00000

        SECTION `.text`:CODE:NOROOT(2)
        SECTION_TYPE SHT_PROGBITS, 0
        DATA
??DataTable253_12:
        DC32     0x45160000

        SECTION `.text`:CODE:NOROOT(2)
        SECTION_TYPE SHT_PROGBITS, 0
        DATA
??DataTable253_13:
        DC32     0x44160000

        SECTION `.text`:CODE:NOROOT(2)
        SECTION_TYPE SHT_PROGBITS, 0
        DATA
??DataTable253_14:
        DC32     homing_feedrate_mm_s

        SECTION `.text`:CODE:NOROOT(2)
        SECTION_TYPE SHT_PROGBITS, 0
        DATA
??DataTable253_15:
        DC32     0x42200000

        SECTION `.text`:CODE:NOROOT(2)
        SECTION_TYPE SHT_PROGBITS, 0
        DATA
??DataTable253_16:
        DC32     0x42700000

        SECTION `.text`:CODE:NOROOT(2)
        SECTION_TYPE SHT_PROGBITS, 0
        DATA
??DataTable253_17:
        DC32     0x432a0000

        SECTION `.text`:CODE:NOROOT(2)
        SECTION_TYPE SHT_PROGBITS, 0
        DATA
??DataTable253_18:
        DC32     _ZN11Temperature16extrude_min_tempE

        SECTION `.text`:CODE:NOROOT(2)
        SECTION_TYPE SHT_PROGBITS, 0
        DATA
??DataTable253_19:
        DC32     0x43100000

        SECTION `.text`:CODE:NOROOT(2)
        SECTION_TYPE SHT_PROGBITS, 0
        DATA
??DataTable253_20:
        DC32     0x41c80000

        SECTION `.text`:CODE:NOROOT(2)
        SECTION_TYPE SHT_PROGBITS, 0
        DATA
??DataTable253_21:
        DC32     0x41880000

        SECTION `.text`:CODE:NOROOT(2)
        SECTION_TYPE SHT_PROGBITS, 0
        DATA
??DataTable253_22:
        DC32     0x42f00000

        SECTION `.text`:CODE:NOROOT(2)
        SECTION_TYPE SHT_PROGBITS, 0
        DATA
??DataTable253_23:
        DC32     0x42fe0000

        SECTION `.text`:CODE:NOROOT(2)
        SECTION_TYPE SHT_PROGBITS, 0
        DATA
??DataTable253_24:
        DC32     0x41700000

        SECTION `.text`:CODE:NOROOT(2)
        SECTION_TYPE SHT_PROGBITS, 0
        DATA
??DataTable253_25:
        DC32     0x457a0000

        SECTION `.text`:CODE:NOROOT(2)
        SECTION_TYPE SHT_PROGBITS, 0
        DATA
??DataTable253_26:
        DC32     0x45bb8000

        SECTION `.text`:CODE:NOROOT(2)
        SECTION_TYPE SHT_PROGBITS, 0
        DATA
??DataTable253_27:
        DC32     0x453b8000

        SECTION `.text`:CODE:NOROOT(2)
        SECTION_TYPE SHT_PROGBITS, 0
        DATA
??DataTable253_28:
        DC32     xy_probe_feedrate_mm_s

        SECTION `.text`:CODE:NOROOT(2)
        SECTION_TYPE SHT_PROGBITS, 0
        DATA
??DataTable253_29:
        DC32     0x41a00000

        SECTION `.text`:CODE:NOROOT(2)
        SECTION_TYPE SHT_PROGBITS, 0
        DATA
??DataTable253_30:
        DC32     mksTmp

        SECTION `.text`:CODE:NOROOT(2)
        SECTION_TYPE SHT_PROGBITS, 0
        DATA
??DataTable253_31:
        DC32     planner

        SECTION `.text`:CODE:NOROOT(2)
        SECTION_TYPE SHT_PROGBITS, 0
        DATA
??DataTable253_32:
        DC32     gCfgItems

        SECTION `.text`:CODE:NOROOT(2)
        SECTION_TYPE SHT_PROGBITS, 0
        DATA
??DataTable253_33:
        DC32     delta_height

        SECTION `.text`:CODE:NOROOT(2)
        SECTION_TYPE SHT_PROGBITS, 0
        DATA
??DataTable253_34:
        DC32     0x38d1b717

        SECTION `.text`:CODE:NOROOT(2)
        SECTION_TYPE SHT_PROGBITS, 0
        DATA
??DataTable253_35:
        DC32     0x41200000

        SECTION `.text`:CODE:NOROOT(2)
        SECTION_TYPE SHT_PROGBITS, 0
        DATA
??DataTable253_36:
        DC32     0xc1200000

        SECTION `.iar_vfe_header`:DATA:NOALLOC:NOROOT(2)
        SECTION_TYPE SHT_PROGBITS, 0
        DATA
        DC32 0

        SECTION __DLIB_PERTHREAD:DATA:REORDER:NOROOT(0)
        SECTION_TYPE SHT_PROGBITS, 0

        SECTION __DLIB_PERTHREAD_init:DATA:REORDER:NOROOT(0)
        SECTION_TYPE SHT_PROGBITS, 0

        SECTION `.rodata`:CONST:REORDER:NOROOT(0)
        SECTION_GROUP _ZTI5Print
// __absolute char const <Typeinfo for Print>
_ZTI5Print:
        DATA
        DC8 0

        SECTION `.rodata`:CONST:NOROOT(2)
        DATA
`?<Constant "robin_nano35_cfg.txt">`:
        DC8 "robin_nano35_cfg.txt"
        DC8 0, 0, 0

        SECTION `.rodata`:CONST:NOROOT(2)
        DATA
`?<Constant "robin_nano35_cfg.CUR">`:
        DC8 "robin_nano35_cfg.CUR"
        DC8 0, 0, 0

        SECTION `.rodata`:CONST:NOROOT(2)
        DATA
`?<Constant {'\\000'}>`:
        DC8 0, 0, 0, 0, 0, 0, 0, 0, 0, 0, 0, 0, 0, 0, 0, 0, 0
        DC8 0, 0, 0, 0, 0, 0, 0, 0, 0, 0, 0, 0, 0, 0, 0

        SECTION `.rodata`:CONST:NOROOT(2)
        DATA
`?<Constant {'\\000'}>_1`:
        DC8 0, 0, 0, 0, 0, 0, 0, 0, 0, 0, 0, 0, 0, 0, 0, 0, 0
        DC8 0, 0, 0, 0, 0, 0, 0, 0, 0, 0, 0, 0, 0, 0, 0

        SECTION `.rodata`:CONST:NOROOT(2)
        DATA
`?<Constant {'\\000'}>_2`:
        DC8 0, 0, 0, 0, 0, 0, 0, 0, 0, 0, 0, 0, 0, 0, 0, 0, 0
        DC8 0, 0, 0, 0, 0, 0, 0, 0, 0, 0, 0, 0, 0, 0, 0

        SECTION `.rodata`:CONST:NOROOT(2)
        DATA
`?<Constant ".\\n">`:
        DC8 ".\012"
        DC8 0

        SECTION `.rodata`:CONST:NOROOT(2)
        DATA
`?<Constant ">ERASE_EEPROM">`:
        DC8 ">ERASE_EEPROM"
        DC8 0, 0

        SECTION `.rodata`:CONST:NOROOT(2)
        DATA
`?<Constant ">DEFAULT_X_STEPS_PER_...">`:
        DC8 ">DEFAULT_X_STEPS_PER_UNIT"
        DC8 0, 0

        SECTION `.rodata`:CONST:NOROOT(2)
        DATA
`?<Constant ">DEFAULT_Y_STEPS_PER_...">`:
        DC8 ">DEFAULT_Y_STEPS_PER_UNIT"
        DC8 0, 0

        SECTION `.rodata`:CONST:NOROOT(2)
        DATA
`?<Constant ">DEFAULT_Z_STEPS_PER_...">`:
        DC8 ">DEFAULT_Z_STEPS_PER_UNIT"
        DC8 0, 0

        SECTION `.rodata`:CONST:NOROOT(2)
        DATA
`?<Constant ">DEFAULT_E0_STEPS_PER...">`:
        DC8 ">DEFAULT_E0_STEPS_PER_UNIT"
        DC8 0

        SECTION `.rodata`:CONST:NOROOT(2)
        DATA
`?<Constant ">DEFAULT_E1_STEPS_PER...">`:
        DC8 ">DEFAULT_E1_STEPS_PER_UNIT"
        DC8 0

        SECTION `.rodata`:CONST:NOROOT(2)
        DATA
`?<Constant ">DEFAULT_X_MAX_FEEDRATE">`:
        DC8 ">DEFAULT_X_MAX_FEEDRATE"

        SECTION `.rodata`:CONST:NOROOT(2)
        DATA
`?<Constant ">DEFAULT_Y_MAX_FEEDRATE">`:
        DC8 ">DEFAULT_Y_MAX_FEEDRATE"

        SECTION `.rodata`:CONST:NOROOT(2)
        DATA
`?<Constant ">DEFAULT_Z_MAX_FEEDRATE">`:
        DC8 ">DEFAULT_Z_MAX_FEEDRATE"

        SECTION `.rodata`:CONST:NOROOT(2)
        DATA
`?<Constant ">DEFAULT_E0_MAX_FEEDRATE">`:
        DC8 ">DEFAULT_E0_MAX_FEEDRATE"
        DC8 0, 0, 0

        SECTION `.rodata`:CONST:NOROOT(2)
        DATA
`?<Constant ">DEFAULT_E1_MAX_FEEDRATE">`:
        DC8 ">DEFAULT_E1_MAX_FEEDRATE"
        DC8 0, 0, 0

        SECTION `.rodata`:CONST:NOROOT(2)
        DATA
`?<Constant ">DEFAULT_X_MAX_ACCELE...">`:
        DC8 ">DEFAULT_X_MAX_ACCELERATION"

        SECTION `.rodata`:CONST:NOROOT(2)
        DATA
`?<Constant ">DEFAULT_Y_MAX_ACCELE...">`:
        DC8 ">DEFAULT_Y_MAX_ACCELERATION"

        SECTION `.rodata`:CONST:NOROOT(2)
        DATA
`?<Constant ">DEFAULT_Z_MAX_ACCELE...">`:
        DC8 ">DEFAULT_Z_MAX_ACCELERATION"

        SECTION `.rodata`:CONST:NOROOT(2)
        DATA
`?<Constant ">DEFAULT_E0_MAX_ACCEL...">`:
        DC8 ">DEFAULT_E0_MAX_ACCELERATION"
        DC8 0, 0, 0

        SECTION `.rodata`:CONST:NOROOT(2)
        DATA
`?<Constant ">DEFAULT_E1_MAX_ACCEL...">`:
        DC8 ">DEFAULT_E1_MAX_ACCELERATION"
        DC8 0, 0, 0

        SECTION `.rodata`:CONST:NOROOT(2)
        DATA
`?<Constant ">DEFAULT_ACCELERATION">`:
        DC8 ">DEFAULT_ACCELERATION"
        DC8 0, 0

        SECTION `.rodata`:CONST:NOROOT(2)
        DATA
`?<Constant ">DEFAULT_RETRACT_ACCE...">`:
        DC8 ">DEFAULT_RETRACT_ACCELERATION"
        DC8 0, 0

        SECTION `.rodata`:CONST:NOROOT(2)
        DATA
`?<Constant ">DEFAULT_TRAVEL_ACCEL...">`:
        DC8 ">DEFAULT_TRAVEL_ACCELERATION"
        DC8 0, 0, 0

        SECTION `.rodata`:CONST:NOROOT(2)
        DATA
`?<Constant ">DEFAULT_MINIMUMFEEDRATE">`:
        DC8 ">DEFAULT_MINIMUMFEEDRATE"
        DC8 0, 0, 0

        SECTION `.rodata`:CONST:NOROOT(2)
        DATA
`?<Constant ">DEFAULT_MINSEGMENTTIME">`:
        DC8 ">DEFAULT_MINSEGMENTTIME"

        SECTION `.rodata`:CONST:NOROOT(2)
        DATA
`?<Constant ">DEFAULT_MINTRAVELFEE...">`:
        DC8 ">DEFAULT_MINTRAVELFEEDRATE"
        DC8 0

        SECTION `.rodata`:CONST:NOROOT(2)
        DATA
`?<Constant ">DEFAULT_XJERK">`:
        DC8 ">DEFAULT_XJERK"
        DC8 0

        SECTION `.rodata`:CONST:NOROOT(2)
        DATA
`?<Constant ">DEFAULT_YJERK">`:
        DC8 ">DEFAULT_YJERK"
        DC8 0

        SECTION `.rodata`:CONST:NOROOT(2)
        DATA
`?<Constant ">DEFAULT_ZJERK">`:
        DC8 ">DEFAULT_ZJERK"
        DC8 0

        SECTION `.rodata`:CONST:NOROOT(2)
        DATA
`?<Constant ">DEFAULT_EJERK">`:
        DC8 ">DEFAULT_EJERK"
        DC8 0

        SECTION `.rodata`:CONST:NOROOT(2)
        DATA
`?<Constant ">DEFAULT_Kp">`:
        DC8 ">DEFAULT_Kp"

        SECTION `.rodata`:CONST:NOROOT(2)
        DATA
`?<Constant ">DEFAULT_Ki">`:
        DC8 ">DEFAULT_Ki"

        SECTION `.rodata`:CONST:NOROOT(2)
        DATA
`?<Constant ">DEFAULT_Kd">`:
        DC8 ">DEFAULT_Kd"

        SECTION `.rodata`:CONST:NOROOT(2)
        DATA
`?<Constant ">CFG_WIFI_MODE">`:
        DC8 ">CFG_WIFI_MODE"
        DC8 0

        SECTION `.rodata`:CONST:NOROOT(2)
        DATA
`?<Constant ">CFG_WIFI_AP_NAME">`:
        DC8 ">CFG_WIFI_AP_NAME"
        DC8 0, 0

        SECTION `.rodata`:CONST:NOROOT(2)
        DATA
`?<Constant ">CFG_WIFI_KEY_CODE">`:
        DC8 ">CFG_WIFI_KEY_CODE"
        DC8 0

        SECTION `.rodata`:CONST:NOROOT(2)
        DATA
`?<Constant ">CFG_CLOUD_ENABLE">`:
        DC8 ">CFG_CLOUD_ENABLE"
        DC8 0, 0

        SECTION `.rodata`:CONST:NOROOT(2)
        DATA
`?<Constant ">CFG_WIFI_CLOUD_HOST">`:
        DC8 ">CFG_WIFI_CLOUD_HOST"
        DC8 0, 0, 0

        SECTION `.rodata`:CONST:NOROOT(2)
        DATA
`?<Constant ">CFG_CLOUD_PORT">`:
        DC8 ">CFG_CLOUD_PORT"

        SECTION `.rodata`:CONST:NOROOT(1)
        DATA
`?<Constant "0">`:
        DC8 "0"

        SECTION `.rodata`:CONST:NOROOT(2)
        DATA
`?<Constant "99999">`:
        DC8 "99999"
        DC8 0, 0

        SECTION `.rodata`:CONST:NOROOT(2)
        DATA
`?<Constant ">DEFAULT_bedKp">`:
        DC8 ">DEFAULT_bedKp"
        DC8 0

        SECTION `.rodata`:CONST:NOROOT(2)
        DATA
`?<Constant ">DEFAULT_bedKi">`:
        DC8 ">DEFAULT_bedKi"
        DC8 0

        SECTION `.rodata`:CONST:NOROOT(2)
        DATA
`?<Constant ">DEFAULT_bedKd">`:
        DC8 ">DEFAULT_bedKd"
        DC8 0

        SECTION `.rodata`:CONST:NOROOT(2)
        DATA
`?<Constant ">Z_PROBE_OFFSET_FROM_...">`:
        DC8 ">Z_PROBE_OFFSET_FROM_EXTRUDER"
        DC8 0, 0

        SECTION `.rodata`:CONST:NOROOT(2)
        DATA
`?<Constant ">DELTA_RADIUS">`:
        DC8 ">DELTA_RADIUS"
        DC8 0, 0

        SECTION `.rodata`:CONST:NOROOT(2)
        DATA
`?<Constant ">DELTA_DIAGONAL_ROD">`:
        DC8 ">DELTA_DIAGONAL_ROD"

        SECTION `.rodata`:CONST:NOROOT(2)
        DATA
`?<Constant ">DELTA_SEGMENTS_PER_S...">`:
        DC8 ">DELTA_SEGMENTS_PER_SECOND"
        DC8 0

        SECTION `.rodata`:CONST:NOROOT(2)
        DATA
`?<Constant ">DELTA_CALIBRATION_RA...">`:
        DC8 ">DELTA_CALIBRATION_RADIUS"
        DC8 0, 0

        SECTION `.rodata`:CONST:NOROOT(2)
        DATA
`?<Constant ">INVERT_X_DIR">`:
        DC8 ">INVERT_X_DIR"
        DC8 0, 0

        SECTION `.rodata`:CONST:NOROOT(2)
        DATA
`?<Constant ">INVERT_Y_DIR">`:
        DC8 ">INVERT_Y_DIR"
        DC8 0, 0

        SECTION `.rodata`:CONST:NOROOT(2)
        DATA
`?<Constant ">INVERT_Z_DIR">`:
        DC8 ">INVERT_Z_DIR"
        DC8 0, 0

        SECTION `.rodata`:CONST:NOROOT(2)
        DATA
`?<Constant ">INVERT_E0_DIR">`:
        DC8 ">INVERT_E0_DIR"
        DC8 0

        SECTION `.rodata`:CONST:NOROOT(2)
        DATA
`?<Constant ">INVERT_E1_DIR">`:
        DC8 ">INVERT_E1_DIR"
        DC8 0

        SECTION `.rodata`:CONST:NOROOT(2)
        DATA
`?<Constant ">X_HOME_DIR">`:
        DC8 ">X_HOME_DIR"

        SECTION `.rodata`:CONST:NOROOT(2)
        DATA
`?<Constant ">Y_HOME_DIR">`:
        DC8 ">Y_HOME_DIR"

        SECTION `.rodata`:CONST:NOROOT(2)
        DATA
`?<Constant ">Z_HOME_DIR">`:
        DC8 ">Z_HOME_DIR"

        SECTION `.rodata`:CONST:NOROOT(2)
        DATA
`?<Constant ">X_MIN_POS">`:
        DC8 ">X_MIN_POS"
        DC8 0

        SECTION `.rodata`:CONST:NOROOT(2)
        DATA
`?<Constant ">Y_MIN_POS">`:
        DC8 ">Y_MIN_POS"
        DC8 0

        SECTION `.rodata`:CONST:NOROOT(2)
        DATA
`?<Constant ">Z_MIN_POS">`:
        DC8 ">Z_MIN_POS"
        DC8 0

        SECTION `.rodata`:CONST:NOROOT(2)
        DATA
`?<Constant ">X_MAX_POS">`:
        DC8 ">X_MAX_POS"
        DC8 0

        SECTION `.rodata`:CONST:NOROOT(2)
        DATA
`?<Constant ">Y_MAX_POS">`:
        DC8 ">Y_MAX_POS"
        DC8 0

        SECTION `.rodata`:CONST:NOROOT(2)
        DATA
`?<Constant ">Z_MAX_POS">`:
        DC8 ">Z_MAX_POS"
        DC8 0

        SECTION `.rodata`:CONST:NOROOT(2)
        DATA
`?<Constant ">MIN_SOFTWARE_ENDSTOPS">`:
        DC8 ">MIN_SOFTWARE_ENDSTOPS"
        DC8 0

        SECTION `.rodata`:CONST:NOROOT(2)
        DATA
`?<Constant ">MAX_SOFTWARE_ENDSTOPS">`:
        DC8 ">MAX_SOFTWARE_ENDSTOPS"
        DC8 0

        SECTION `.rodata`:CONST:NOROOT(2)
        DATA
`?<Constant ">HOMING_FEEDRATE_XY">`:
        DC8 ">HOMING_FEEDRATE_XY"

        SECTION `.rodata`:CONST:NOROOT(2)
        DATA
`?<Constant ">HEATER_1_MINTEMP">`:
        DC8 ">HEATER_1_MINTEMP"
        DC8 0, 0

        SECTION `.rodata`:CONST:NOROOT(2)
        DATA
`?<Constant ">Z_MIN_ENDSTOP_INVERTING">`:
        DC8 ">Z_MIN_ENDSTOP_INVERTING"
        DC8 0, 0, 0

        SECTION `.rodata`:CONST:NOROOT(2)
        DATA
`?<Constant ">Y_MAX_ENDSTOP_INVERTING">`:
        DC8 ">Y_MAX_ENDSTOP_INVERTING"
        DC8 0, 0, 0

        SECTION `.rodata`:CONST:NOROOT(2)
        DATA
`?<Constant ">LCD_LANGUAGE">`:
        DC8 ">LCD_LANGUAGE"
        DC8 0, 0

        SECTION `.rodata`:CONST:NOROOT(2)
        DATA
`?<Constant ">BED_LEVELING_METHOD">`:
        DC8 ">BED_LEVELING_METHOD"
        DC8 0, 0, 0

        SECTION `.rodata`:CONST:NOROOT(2)
        DATA
`?<Constant ">DELTA_CARRIAGE_OFFSET">`:
        DC8 ">DELTA_CARRIAGE_OFFSET"
        DC8 0

        SECTION `.rodata`:CONST:NOROOT(2)
        DATA
`?<Constant ">Z_CLEARANCE_BETWEEN_...">`:
        DC8 ">Z_CLEARANCE_BETWEEN_PROBES"

        SECTION `.rodata`:CONST:NOROOT(2)
        DATA
`?<Constant ">Y_PROBE_OFFSET_FROM_...">`:
        DC8 ">Y_PROBE_OFFSET_FROM_EXTRUDER"
        DC8 0, 0

        SECTION `.rodata`:CONST:NOROOT(2)
        DATA
`?<Constant ">USE_XMIN_PLUG">`:
        DC8 ">USE_XMIN_PLUG"
        DC8 0

        SECTION `.rodata`:CONST:NOROOT(2)
        DATA
`?<Constant ">FRONT_PROBE_BED_POSI...">`:
        DC8 ">FRONT_PROBE_BED_POSITION"
        DC8 0, 0

        SECTION `.rodata`:CONST:NOROOT(2)
        DATA
`?<Constant ">MESH_INSET">`:
        DC8 ">MESH_INSET"

        SECTION `.rodata`:CONST:NOROOT(2)
        DATA
`?<Constant ">ABL_PROBE_PT_1_Y">`:
        DC8 ">ABL_PROBE_PT_1_Y"
        DC8 0, 0

        SECTION `.rodata`:CONST:NOROOT(2)
        DATA
`?<Constant ">UBL_MESH_INSET">`:
        DC8 ">UBL_MESH_INSET"

        SECTION `.rodata`:CONST:NOROOT(2)
        DATA
`?<Constant ">UBL_PROBE_PT_3_X">`:
        DC8 ">UBL_PROBE_PT_3_X"
        DC8 0, 0

        SECTION `.rodata`:CONST:NOROOT(2)
        DATA
`?<Constant ">FILAMENT_CHANGE_Y_POS">`:
        DC8 ">FILAMENT_CHANGE_Y_POS"
        DC8 0

        SECTION `.rodata`:CONST:NOROOT(2)
        DATA
`?<Constant ">THERMAL_PROTECTION_H...">`:
        DC8 ">THERMAL_PROTECTION_HYSTERESIS"
        DC8 0

        SECTION `.rodata`:CONST:NOROOT(2)
        DATA
`?<Constant ">THERMAL_PROTECTION_B...">`:
        DC8 ">THERMAL_PROTECTION_BED_PERIOD"
        DC8 0

        SECTION `.rodata`:CONST:NOROOT(2)
        DATA
`?<Constant ">WATCH_BED_TEMP_PERIOD">`:
        DC8 ">WATCH_BED_TEMP_PERIOD"
        DC8 0

        SECTION `.rodata`:CONST:NOROOT(2)
        DATA
`?<Constant ">cfg_hardware_test_en...">`:
        DC8 ">cfg_hardware_test_enable"
        DC8 0, 0

        SECTION `.rodata`:CONST:NOROOT(2)
        DATA
`?<Constant ">BLTOUCH">`:
        DC8 ">BLTOUCH"
        DC8 0, 0, 0

        SECTION `.rodata`:CONST:NOROOT(2)
        DATA
`?<Constant ">cfg_language_type">`:
        DC8 ">cfg_language_type"
        DC8 0

        SECTION `.rodata`:CONST:NOROOT(2)
        DATA
`?<Constant ">cfg_state_bkcolor">`:
        DC8 ">cfg_state_bkcolor"
        DC8 0

        SECTION `.rodata`:CONST:NOROOT(2)
        DATA
`?<Constant ">cfg_filename_textcolor">`:
        DC8 ">cfg_filename_textcolor"

        SECTION `.rodata`:CONST:NOROOT(2)
        DATA
`?<Constant ">cfg_state_btn_textcolor">`:
        DC8 ">cfg_state_btn_textcolor"
        DC8 0, 0, 0

        SECTION `.rodata`:CONST:NOROOT(2)
        DATA
`?<Constant ">cfg_sel_btn_bkcolor">`:
        DC8 ">cfg_sel_btn_bkcolor"
        DC8 0, 0, 0

        SECTION `.rodata`:CONST:NOROOT(2)
        DATA
`?<Constant ">cfg_dialog_btn_textc...">`:
        DC8 ">cfg_dialog_btn_textcolor"
        DC8 0, 0

        SECTION `.rodata`:CONST:NOROOT(2)
        DATA
`?<Constant ">cfg_filament_det0_tr...">`:
        DC8 ">cfg_filament_det0_trigger_level"
        DC8 0, 0, 0

        SECTION `.rodata`:CONST:NOROOT(2)
        DATA
`?<Constant ">cfg_mask_det_function">`:
        DC8 ">cfg_mask_det_function"
        DC8 0

        SECTION `.rodata`:CONST:NOROOT(2)
        DATA
`?<Constant ">cfg_filament_load_speed">`:
        DC8 ">cfg_filament_load_speed"
        DC8 0, 0, 0

        SECTION `.rodata`:CONST:NOROOT(2)
        DATA
`?<Constant ">cfg_filament_unload_...">`:
        DC8 ">cfg_filament_unload_length"

        SECTION `.rodata`:CONST:NOROOT(2)
        DATA
`?<Constant ">cfg_filament_unload_...">_2`:
        DC8 ">cfg_filament_unload_limit_temperature"
        DC8 0

        SECTION `.rodata`:CONST:NOROOT(2)
        DATA
`?<Constant ">moreitem_button2_cmd:">`:
        DC8 ">moreitem_button2_cmd:"
        DC8 0

        SECTION `.rodata`:CONST:NOROOT(2)
        DATA
`?<Constant ">moreitem_button3_cmd:">`:
        DC8 ">moreitem_button3_cmd:"
        DC8 0

        SECTION `.rodata`:CONST:NOROOT(2)
        DATA
`?<Constant ">moreitem_button5_cmd:">`:
        DC8 ">moreitem_button5_cmd:"
        DC8 0

        SECTION `.rodata`:CONST:NOROOT(2)
        DATA
`?<Constant ">moreitem_button7_cmd:">`:
        DC8 ">moreitem_button7_cmd:"
        DC8 0

        SECTION `.rodata`:CONST:NOROOT(2)
        DATA
`?<Constant ">morefunc4_cmd:">`:
        DC8 ">morefunc4_cmd:"

        SECTION `.rodata`:CONST:NOROOT(2)
        DATA
`?<Constant ">cfg_screen_display_mode">`:
        DC8 ">cfg_screen_display_mode"
        DC8 0, 0, 0

        SECTION `.rodata`:CONST:NOROOT(2)
        DATA
`?<Constant ">cfg_leveling_mode">`:
        DC8 ">cfg_leveling_mode"
        DC8 0

        SECTION `.rodata`:CONST:NOROOT(2)
        DATA
`?<Constant ">PULSE_DELAY">`:
        DC8 ">PULSE_DELAY"
        DC8 0, 0, 0

        END
// 1532 
// 1533 
// 1534 
// 
//  1 584 bytes in section .bss
//  1 264 bytes in section .data
//  2 343 bytes in section .rodata
// 12 290 bytes in section .text
// 
// 12 212 bytes of CODE  memory (+ 78 bytes shared)
//  2 342 bytes of CONST memory (+  1 byte  shared)
//  2 848 bytes of DATA  memory
//
//Errors: none
//Warnings: 54
