///////////////////////////////////////////////////////////////////////////////
//
// IAR ANSI C/C++ Compiler V7.10.1.6676/W32 for ARM       13/Apr/2020  09:25:11
// Copyright 1999-2014 IAR Systems AB.
//
//    Cpu mode     =  thumb
//    Endian       =  little
//    Source file  =  
//        D:\MKS-Robin-Nano-Firmware-v2.x.x\MKS-Robin-Nano-Firmware\Src\pic.c
//    Command line =  
//        D:\MKS-Robin-Nano-Firmware-v2.x.x\MKS-Robin-Nano-Firmware\Src\pic.c
//        -D USE_HAL_DRIVER -D STM32F103xE -D STM32F10X_HD -D USE_HAL_LIB -D
//        MKS_ROBIN_NANO -D TFT35 -lC
//        D:\MKS-Robin-Nano-Firmware-v2.x.x\MKS-Robin-Nano-Firmware\EWARM\mksRobinNano/List\
//        -lA
//        D:\MKS-Robin-Nano-Firmware-v2.x.x\MKS-Robin-Nano-Firmware\EWARM\mksRobinNano/List\
//        --diag_suppress Pa050 -o
//        D:\MKS-Robin-Nano-Firmware-v2.x.x\MKS-Robin-Nano-Firmware\EWARM\mksRobinNano/Obj\
//        --debug --endian=little --cpu=Cortex-M3 -e --char_is_signed
//        --fpu=None --dlib_config "C:\Program Files (x86)\IAR Systems\Embedded
//        Workbench 7.0\arm\INC\c\DLib_Config_Full.h" -I
//        D:\MKS-Robin-Nano-Firmware-v2.x.x\MKS-Robin-Nano-Firmware\EWARM/../Inc\
//        -I
//        D:\MKS-Robin-Nano-Firmware-v2.x.x\MKS-Robin-Nano-Firmware\EWARM/../Src\
//        -I
//        D:\MKS-Robin-Nano-Firmware-v2.x.x\MKS-Robin-Nano-Firmware\EWARM/../Drivers/STM32F1xx_HAL_Driver/Inc\
//        -I
//        D:\MKS-Robin-Nano-Firmware-v2.x.x\MKS-Robin-Nano-Firmware\EWARM/../Drivers/STM32F1xx_HAL_Driver/Inc/Legacy\
//        -I
//        D:\MKS-Robin-Nano-Firmware-v2.x.x\MKS-Robin-Nano-Firmware\EWARM/../Middlewares/Third_Party/FatFs/src/drivers\
//        -I
//        D:\MKS-Robin-Nano-Firmware-v2.x.x\MKS-Robin-Nano-Firmware\EWARM/../Middlewares/ST/STM32_USB_Host_Library/Core/Inc\
//        -I
//        D:\MKS-Robin-Nano-Firmware-v2.x.x\MKS-Robin-Nano-Firmware\EWARM/../Middlewares/ST/STM32_USB_Host_Library/Class/MSC/Inc\
//        -I
//        D:\MKS-Robin-Nano-Firmware-v2.x.x\MKS-Robin-Nano-Firmware\EWARM/../Drivers/CMSIS/Device/ST/STM32F1xx/Include\
//        -I
//        D:\MKS-Robin-Nano-Firmware-v2.x.x\MKS-Robin-Nano-Firmware\EWARM/../Middlewares/Third_Party/FatFs/src\
//        -I
//        D:\MKS-Robin-Nano-Firmware-v2.x.x\MKS-Robin-Nano-Firmware\EWARM/../Middlewares/Third_Party/Marlin\
//        -I
//        D:\MKS-Robin-Nano-Firmware-v2.x.x\MKS-Robin-Nano-Firmware\EWARM/../Drivers/CMSIS/Include\
//        -I
//        D:\MKS-Robin-Nano-Firmware-v2.x.x\MKS-Robin-Nano-Firmware\EWARM/../Drivers/BSP/variant\
//        -I
//        D:\MKS-Robin-Nano-Firmware-v2.x.x\MKS-Robin-Nano-Firmware\EWARM/../Drivers/BSP/Components/at24cxx\
//        -I
//        D:\MKS-Robin-Nano-Firmware-v2.x.x\MKS-Robin-Nano-Firmware\EWARM/../Drivers/BSP/Components/w25qxx\
//        -I
//        D:\MKS-Robin-Nano-Firmware-v2.x.x\MKS-Robin-Nano-Firmware\EWARM/../Drivers/BSP/Components/lcd\
//        -I
//        D:\MKS-Robin-Nano-Firmware-v2.x.x\MKS-Robin-Nano-Firmware\EWARM/../Drivers/STM32F10x_StdPeriph_Driver/inc\
//        -I
//        D:\MKS-Robin-Nano-Firmware-v2.x.x\MKS-Robin-Nano-Firmware\EWARM/../Drivers/libstmf4/include\
//        -I
//        D:\MKS-Robin-Nano-Firmware-v2.x.x\MKS-Robin-Nano-Firmware\EWARM/../Middlewares/arduino/stm32/cores/arduino\
//        -I
//        D:\MKS-Robin-Nano-Firmware-v2.x.x\MKS-Robin-Nano-Firmware\EWARM/../User/ui\
//        -I
//        D:\MKS-Robin-Nano-Firmware-v2.x.x\MKS-Robin-Nano-Firmware\EWARM/../User/ui/Multi_language\
//        -I
//        D:\MKS-Robin-Nano-Firmware-v2.x.x\MKS-Robin-Nano-Firmware\EWARM/../User/ui/QRENCODE\
//        -I
//        D:\MKS-Robin-Nano-Firmware-v2.x.x\MKS-Robin-Nano-Firmware\EWARM\..\Middlewares\GUI\
//        -Oh --use_c++_inline -I "C:\Program Files (x86)\IAR Systems\Embedded
//        Workbench 7.0\arm\CMSIS\Include\"
//    List file    =  
//        D:\MKS-Robin-Nano-Firmware-v2.x.x\MKS-Robin-Nano-Firmware\EWARM\mksRobinNano/List\pic.s
//
///////////////////////////////////////////////////////////////////////////////

        RTMODEL "__SystemLibrary", "DLib"
        RTMODEL "__dlib_file_descriptor", "1"
        AAPCS BASE,INTERWORK
        PRESERVE8
        REQUIRE8

        #define SHT_PROGBITS 0x1

        EXTERN GUI_BitmapMethodsM565
        EXTERN f_close
        EXTERN f_lseek
        EXTERN f_open
        EXTERN f_read
        EXTERN gCfgItems
        EXTERN memset
        EXTERN strstr

        PUBLIC TEST_FIL
        PUBLIC ascii2dec_test
        PUBLIC bmp_public_buf
        PUBLIC bmp_struct
        PUBLIC bmp_struct10x17
        PUBLIC bmp_struct144X40
        PUBLIC bmp_struct26X26
        PUBLIC bmp_struct68X40
        PUBLIC bmp_struct68X90
        PUBLIC bmp_struct70X28
        PUBLIC bmp_struct70X40
        PUBLIC bmp_struct90X30
        PUBLIC bmp_struct90X40
        PUBLIC bmp_struct_100
        PUBLIC bmp_struct_117x25
        PUBLIC bmp_struct_141x60
        PUBLIC bmp_struct_150
        PUBLIC bmp_struct_50
        PUBLIC bmp_struct_50x50
        PUBLIC bmp_struct_92
        PUBLIC drawicon_preview
        PUBLIC have_pre_pic
        PUBLIC pre_sread_cnt2
        
          CFI Names cfiNames0
          CFI StackFrame CFA R13 DATA
          CFI Resource R0:32, R1:32, R2:32, R3:32, R4:32, R5:32, R6:32, R7:32
          CFI Resource R8:32, R9:32, R10:32, R11:32, R12:32, R13:32, R14:32
          CFI EndNames cfiNames0
        
          CFI Common cfiCommon0 Using cfiNames0
          CFI CodeAlign 2
          CFI DataAlign 4
          CFI ReturnAddress R14 CODE
          CFI CFA R13+0
          CFI R0 Undefined
          CFI R1 Undefined
          CFI R2 Undefined
          CFI R3 Undefined
          CFI R4 SameValue
          CFI R5 SameValue
          CFI R6 SameValue
          CFI R7 SameValue
          CFI R8 SameValue
          CFI R9 SameValue
          CFI R10 SameValue
          CFI R11 SameValue
          CFI R12 Undefined
          CFI R14 SameValue
          CFI EndCommon cfiCommon0
        
// D:\MKS-Robin-Nano-Firmware-v2.x.x\MKS-Robin-Nano-Firmware\Src\pic.c
//    1 //#include "draw_ui.h"
//    2 #include "gui.h"
//    3 #include "pic.h"
//    4 #include "ff.h"
//    5 #include "mks_cfg.h"
//    6 
//    7 
//    8 
//    9 #ifndef NULL
//   10 #define NULL    0
//   11 #endif
//   12 
//   13 #if 0
//   14 unsigned char bmp_public_buf[16 * 1024] = {0};
//   15 
//   16 GUI_BITMAP bmp_struct = {
//   17   117,
//   18   140,
//   19   160, /* BytesPerLine */
//   20   16, /* BitsPerPixel */
//   21   (unsigned char *)bmp_public_buf,  /* Pointer to picture data */
//   22   NULL  /* Pointer to palette */
//   23  ,GUI_DRAW_BMPM565
//   24 };
//   25 #if 0
//   26 GUI_BITMAP bmp_struct_92 = {
//   27   117,
//   28   92,
//   29   160, /* BytesPerLine */
//   30   16, /* BitsPerPixel */
//   31   (unsigned char *)bmp_public_buf,  /* Pointer to picture data */
//   32   NULL  /* Pointer to palette */
//   33  ,GUI_DRAW_BMPM565
//   34 };
//   35 GUI_BITMAP bmp_struct_50 = {
//   36   45,
//   37   45,
//   38   160, /* BytesPerLine */
//   39   16, /* BitsPerPixel */
//   40   (unsigned char *)bmp_public_buf,  /* Pointer to picture data */
//   41   NULL  /* Pointer to palette */
//   42  ,GUI_DRAW_BMPM565
//   43 };
//   44 
//   45 GUI_BITMAP bmp_struct_100 = {
//   46   100,
//   47   100,
//   48   160, /* BytesPerLine */
//   49   16, /* BitsPerPixel */
//   50   (unsigned char *)bmp_public_buf,  /* Pointer to picture data */
//   51   NULL  /* Pointer to palette */
//   52  ,GUI_DRAW_BMPM565
//   53 };
//   54 
//   55 GUI_BITMAP bmp_struct_150 = {
//   56   150,
//   57   80,
//   58   160, /* BytesPerLine */
//   59   16, /* BitsPerPixel */
//   60   (unsigned char *)bmp_public_buf,  /* Pointer to picture data */
//   61   NULL  /* Pointer to palette */
//   62  ,GUI_DRAW_BMPM565
//   63 };
//   64 #endif
//   65 //FIL TEST_FIL;
//   66 #else
//   67 unsigned char bmp_public_buf[8 * 1024] = {0};
//   68 

        SECTION `.data`:DATA:REORDER:NOROOT(2)
//   69 GUI_BITMAP bmp_struct = {
bmp_struct:
        DATA
        DC16 117, 35, 160, 16
        DC32 bmp_public_buf, 0H, GUI_BitmapMethodsM565
//   70   117,
//   71   35,
//   72   160, /* BytesPerLine */
//   73   16, /* BitsPerPixel */
//   74   (unsigned char *)bmp_public_buf,  /* Pointer to picture data */
//   75   NULL  /* Pointer to palette */
//   76  ,GUI_DRAW_BMPM565
//   77 };
//   78 

        SECTION `.data`:DATA:REORDER:NOROOT(2)
//   79 GUI_BITMAP bmp_struct10x17 = {
bmp_struct10x17:
        DATA
        DC16 10, 17, 160, 16
        DC32 bmp_public_buf, 0H, GUI_BitmapMethodsM565
//   80   10,
//   81   17,
//   82   160, /* BytesPerLine */
//   83   16, /* BitsPerPixel */
//   84   (unsigned char *)bmp_public_buf,  /* Pointer to picture data */
//   85   NULL  /* Pointer to palette */
//   86  ,GUI_DRAW_BMPM565
//   87 };
//   88 

        SECTION `.data`:DATA:REORDER:NOROOT(2)
//   89 GUI_BITMAP bmp_struct70X40 = {
bmp_struct70X40:
        DATA
        DC16 70, 40, 160, 16
        DC32 bmp_public_buf, 0H, GUI_BitmapMethodsM565
//   90   70,
//   91   40,
//   92   160, /* BytesPerLine */
//   93   16, /* BitsPerPixel */
//   94   (unsigned char *)bmp_public_buf,  /* Pointer to picture data */
//   95   NULL  /* Pointer to palette */
//   96  ,GUI_DRAW_BMPM565
//   97 };

        SECTION `.data`:DATA:REORDER:NOROOT(2)
//   98 GUI_BITMAP bmp_struct90X30 = {
bmp_struct90X30:
        DATA
        DC16 90, 30, 160, 16
        DC32 bmp_public_buf, 0H, GUI_BitmapMethodsM565
//   99   90,
//  100   30,
//  101   160, /* BytesPerLine */
//  102   16, /* BitsPerPixel */
//  103   (unsigned char *)bmp_public_buf,  /* Pointer to picture data */
//  104   NULL  /* Pointer to palette */
//  105  ,GUI_DRAW_BMPM565
//  106 };
//  107 

        SECTION `.data`:DATA:REORDER:NOROOT(2)
//  108 GUI_BITMAP bmp_struct70X28 = {
bmp_struct70X28:
        DATA
        DC16 70, 28, 160, 16
        DC32 bmp_public_buf, 0H, GUI_BitmapMethodsM565
//  109   70,
//  110   28,
//  111   160, /* BytesPerLine */
//  112   16, /* BitsPerPixel */
//  113   (unsigned char *)bmp_public_buf,  /* Pointer to picture data */
//  114   NULL  /* Pointer to palette */
//  115  ,GUI_DRAW_BMPM565
//  116 };
//  117 

        SECTION `.data`:DATA:REORDER:NOROOT(2)
//  118 GUI_BITMAP bmp_struct90X40 = {
bmp_struct90X40:
        DATA
        DC16 90, 40, 160, 16
        DC32 bmp_public_buf, 0H, GUI_BitmapMethodsM565
//  119   90,
//  120   40,
//  121   160, /* BytesPerLine */
//  122   16, /* BitsPerPixel */
//  123   (unsigned char *)bmp_public_buf,  /* Pointer to picture data */
//  124   NULL  /* Pointer to palette */
//  125  ,GUI_DRAW_BMPM565
//  126 };

        SECTION `.data`:DATA:REORDER:NOROOT(2)
//  127 GUI_BITMAP bmp_struct68X40 = {
bmp_struct68X40:
        DATA
        DC16 68, 40, 160, 16
        DC32 bmp_public_buf, 0H, GUI_BitmapMethodsM565
//  128   68,
//  129   40,
//  130   160, /* BytesPerLine */
//  131   16, /* BitsPerPixel */
//  132   (unsigned char *)bmp_public_buf,  /* Pointer to picture data */
//  133   NULL  /* Pointer to palette */
//  134  ,GUI_DRAW_BMPM565
//  135 };

        SECTION `.data`:DATA:REORDER:NOROOT(2)
//  136 GUI_BITMAP bmp_struct68X90 = {
bmp_struct68X90:
        DATA
        DC16 68, 20, 160, 16
        DC32 bmp_public_buf, 0H, GUI_BitmapMethodsM565
//  137   68,
//  138   20,
//  139   160, /* BytesPerLine */
//  140   16, /* BitsPerPixel */
//  141   (unsigned char *)bmp_public_buf,  /* Pointer to picture data */
//  142   NULL  /* Pointer to palette */
//  143  ,GUI_DRAW_BMPM565
//  144 };
//  145 

        SECTION `.data`:DATA:REORDER:NOROOT(2)
//  146 GUI_BITMAP bmp_struct144X40 = {
bmp_struct144X40:
        DATA
        DC16 144, 10, 160, 16
        DC32 bmp_public_buf, 0H, GUI_BitmapMethodsM565
//  147   144,
//  148   10,
//  149   160, /* BytesPerLine */
//  150   16, /* BitsPerPixel */
//  151   (unsigned char *)bmp_public_buf,  /* Pointer to picture data */
//  152   NULL  /* Pointer to palette */
//  153  ,GUI_DRAW_BMPM565
//  154 };
//  155 

        SECTION `.data`:DATA:REORDER:NOROOT(2)
//  156 GUI_BITMAP bmp_struct26X26 = {
bmp_struct26X26:
        DATA
        DC16 26, 26, 160, 16
        DC32 bmp_public_buf, 0H, GUI_BitmapMethodsM565
//  157   26,
//  158   26,
//  159   160, /* BytesPerLine */
//  160   16, /* BitsPerPixel */
//  161   (unsigned char *)bmp_public_buf,  /* Pointer to picture data */
//  162   NULL  /* Pointer to palette */
//  163  ,GUI_DRAW_BMPM565
//  164 };
//  165 

        SECTION `.data`:DATA:REORDER:NOROOT(2)
//  166 GUI_BITMAP bmp_struct_92 = {
bmp_struct_92:
        DATA
        DC16 117, 23, 160, 16
        DC32 bmp_public_buf, 0H, GUI_BitmapMethodsM565
//  167   117,
//  168   23,
//  169   160, /* BytesPerLine */
//  170   16, /* BitsPerPixel */
//  171   (unsigned char *)bmp_public_buf,  /* Pointer to picture data */
//  172   NULL  /* Pointer to palette */
//  173  ,GUI_DRAW_BMPM565
//  174 };
//  175 #if 1

        SECTION `.data`:DATA:REORDER:NOROOT(2)
//  176 GUI_BITMAP bmp_struct_50 = {
bmp_struct_50:
        DATA
        DC16 45, 45, 160, 16
        DC32 bmp_public_buf, 0H, GUI_BitmapMethodsM565
//  177   45,
//  178   45,
//  179   160, /* BytesPerLine */
//  180   16, /* BitsPerPixel */
//  181   (unsigned char *)bmp_public_buf,  /* Pointer to picture data */
//  182   NULL  /* Pointer to palette */
//  183  ,GUI_DRAW_BMPM565
//  184 };
//  185 

        SECTION `.data`:DATA:REORDER:NOROOT(2)
//  186 GUI_BITMAP bmp_struct_100 = {
bmp_struct_100:
        DATA
        DC16 100, 25, 160, 16
        DC32 bmp_public_buf, 0H, GUI_BitmapMethodsM565
//  187   100,
//  188   25,
//  189   160, /* BytesPerLine */
//  190   16, /* BitsPerPixel */
//  191   (unsigned char *)bmp_public_buf,  /* Pointer to picture data */
//  192   NULL  /* Pointer to palette */
//  193  ,GUI_DRAW_BMPM565
//  194 };
//  195 

        SECTION `.data`:DATA:REORDER:NOROOT(2)
//  196 GUI_BITMAP bmp_struct_150 = {
bmp_struct_150:
        DATA
        DC16 150, 20, 160, 16
        DC32 bmp_public_buf, 0H, GUI_BitmapMethodsM565
//  197   150,
//  198   20,
//  199   160, /* BytesPerLine */
//  200   16, /* BitsPerPixel */
//  201   (unsigned char *)bmp_public_buf,  /* Pointer to picture data */
//  202   NULL  /* Pointer to palette */
//  203  ,GUI_DRAW_BMPM565
//  204 };

        SECTION `.data`:DATA:REORDER:NOROOT(2)
//  205 GUI_BITMAP bmp_struct_117x25 = {
bmp_struct_117x25:
        DATA
        DC16 50, 50, 160, 16
        DC32 bmp_public_buf, 0H, GUI_BitmapMethodsM565
//  206   50,
//  207   50,
//  208   160, /* BytesPerLine */
//  209   16, /* BitsPerPixel */
//  210   (unsigned char *)bmp_public_buf,  /* Pointer to picture data */
//  211   NULL  /* Pointer to palette */
//  212  ,GUI_DRAW_BMPM565
//  213 };

        SECTION `.data`:DATA:REORDER:NOROOT(2)
//  214 GUI_BITMAP bmp_struct_50x50 = {
bmp_struct_50x50:
        DATA
        DC16 50, 50, 160, 16
        DC32 bmp_public_buf, 0H, GUI_BitmapMethodsM565
//  215   50,
//  216   50,
//  217   160, /* BytesPerLine */
//  218   16, /* BitsPerPixel */
//  219   (unsigned char *)bmp_public_buf,  /* Pointer to picture data */
//  220   NULL  /* Pointer to palette */
//  221  ,GUI_DRAW_BMPM565
//  222 };

        SECTION `.data`:DATA:REORDER:NOROOT(2)
//  223 GUI_BITMAP bmp_struct_141x60 = {
bmp_struct_141x60:
        DATA
        DC16 140, 15, 160, 16
        DC32 bmp_public_buf, 0H, GUI_BitmapMethodsM565

        SECTION `.bss`:DATA:REORDER:NOROOT(2)
bmp_public_buf:
        DS8 8192
//  224   140,
//  225   15,
//  226   160, /* BytesPerLine */
//  227   16, /* BitsPerPixel */
//  228   (unsigned char *)bmp_public_buf,  /* Pointer to picture data */
//  229   NULL  /* Pointer to palette */
//  230  ,GUI_DRAW_BMPM565
//  231 };
//  232 #endif
//  233 FIL TEST_FIL;
TEST_FIL:
        DS8 556
//  234 
//  235 #endif

        SECTION `.text`:CODE:NOROOT(1)
          CFI Block cfiBlock0 Using cfiCommon0
          CFI Function ascii2dec_test
          CFI NoCalls
        THUMB
//  236 int ascii2dec_test(char *ascii)
//  237 {
//  238 #if 1
//  239 	int result = 0;
//  240 
//  241 	if(ascii == 0)
ascii2dec_test:
        CBZ.N    R0,??ascii2dec_test_0
//  242 		return 0;
//  243 
//  244 	if(*(ascii) >= '0' && *(ascii) <= '9')
        LDRSB    R0,[R0, #+0]
        SUB      R2,R0,#+48
        CMP      R2,#+10
        BCS.N    ??ascii2dec_test_1
//  245 		result = *(ascii) - '0';
        SUBS     R0,R0,#+48
//  246 	else if(*(ascii) >= 'a' && *(ascii) <= 'f')
//  247 		result = *(ascii) - 'a' + 0x0a;
//  248 	else if(*(ascii) >= 'A' && *(ascii) <= 'F')
//  249 		result = *(ascii) - 'A' + 0x0a;
//  250 	else
//  251 		return 0;
//  252 		
//  253 
//  254 	return result;
        BX       LR               ;; return
??ascii2dec_test_1:
        SUB      R2,R0,#+97
        CMP      R2,#+6
        BCS.N    ??ascii2dec_test_2
        SUBS     R0,R0,#+87
        BX       LR
??ascii2dec_test_2:
        SUB      R1,R0,#+65
        CMP      R1,#+6
        BCS.N    ??ascii2dec_test_0
        SUBS     R0,R0,#+55
        BX       LR
??ascii2dec_test_0:
        MOVS     R0,#+0
        BX       LR
          CFI EndBlock cfiBlock0
//  255 	#endif
//  256 }

        SECTION `.text`:CODE:NOROOT(1)
          CFI Block cfiBlock1 Using cfiCommon0
          CFI Function have_pre_pic
        THUMB
//  257 uint8_t have_pre_pic(char *path)
//  258 {
have_pre_pic:
        PUSH     {R3-R5,LR}
          CFI R14 Frame(CFA, -4)
          CFI R5 Frame(CFA, -8)
          CFI R4 Frame(CFA, -12)
          CFI CFA R13+16
//  259 #if 1
//  260 	char re;
//  261 	UINT read;
//  262 	int *ps1;
//  263 	
//  264 	re = f_open(&TEST_FIL,path, FA_OPEN_EXISTING | FA_READ);
//  265 	
//  266 	if(re == FR_OK)
        LDR.N    R4,??DataTable1
        ADD      R5,R4,#+8192
        MOV      R1,R0
        MOVS     R2,#+1
        MOV      R0,R5
          CFI FunCall f_open
        BL       f_open
        CBNZ.N   R0,??have_pre_pic_0
//  267 	{
//  268 		f_read(&TEST_FIL,&bmp_public_buf[0],1024,&read);
        ADD      R3,SP,#+0
        MOV      R2,#+1024
        MOV      R1,R4
        MOV      R0,R5
          CFI FunCall f_read
        BL       f_read
//  269 		ps1 = (uint32_t *)strstr(bmp_public_buf,";simage:");
//  270 		if(ps1)
        ADR.W    R1,`?<Constant ";simage:">`
        MOV      R0,R4
          CFI FunCall strstr
        BL       strstr
        CBZ.N    R0,??have_pre_pic_0
//  271 		{
//  272 				f_close(&TEST_FIL);
        MOV      R0,R5
          CFI FunCall f_close
        BL       f_close
//  273 				return 1;			
        MOVS     R0,#+1
        POP      {R1,R4,R5,PC}
//  274 		}
//  275 		else
//  276 		{
//  277 				f_close(&TEST_FIL);
//  278 				return 0;			
//  279 		}
//  280 	}
//  281 
//  282 	f_close(&TEST_FIL);
??have_pre_pic_0:
        MOV      R0,R5
          CFI FunCall f_close
        BL       f_close
//  283 	return 0;
        MOVS     R0,#+0
        POP      {R1,R4,R5,PC}    ;; return
          CFI EndBlock cfiBlock1
//  284 	#endif
//  285 }

        SECTION `.text`:CODE:NOROOT(2)
        SECTION_TYPE SHT_PROGBITS, 0
        DATA
??DataTable1:
        DC32     bmp_public_buf
//  286 
//  287 #if 1
//  288 /*****************************************************/
//  289 //path:文件路径
//  290 //xsize,ysize:显示预览图片大小;
//  291 //sel:
//  292 //		0:文件目录预览；
//  293 //		1:打印文件预览
//  294 //pic_flg:
//  295 //		1:只获取图片标志符";simage:";
//  296 //		0:获取图片数据。

        SECTION `.bss`:DATA:REORDER:NOROOT(2)
//  297 int pre_sread_cnt2;
pre_sread_cnt2:
        DS8 4

        SECTION `.text`:CODE:NOROOT(2)
          CFI Block cfiBlock2 Using cfiCommon0
          CFI Function drawicon_preview
        THUMB
//  298 uint8_t drawicon_preview(char *path,int xsize_small,int ysize_small,uint8_t part)
//  299 {
drawicon_preview:
        PUSH     {R2-R11,LR}
          CFI R14 Frame(CFA, -4)
          CFI R11 Frame(CFA, -8)
          CFI R10 Frame(CFA, -12)
          CFI R9 Frame(CFA, -16)
          CFI R8 Frame(CFA, -20)
          CFI R7 Frame(CFA, -24)
          CFI R6 Frame(CFA, -28)
          CFI R5 Frame(CFA, -32)
          CFI R4 Frame(CFA, -36)
          CFI CFA R13+44
        SUB      SP,SP,#+212
          CFI CFA R13+256
        MOV      R1,R0
//  300 #if 1
//  301 	uint16_t *p_index;
//  302 	int i=0,j=0,k=0,h=0;
//  303 	char re;
//  304 	UINT read;
//  305 	char temp_test[200];
//  306 	int row_1=0;
        LDR.N    R0,??drawicon_preview_0
        STR      R0,[SP, #+4]
        MOVS     R4,#+0
        LDRB     R0,[SP, #+216]
        MOVS     R5,#+0
        CMP      R0,#+0
        BNE.W    ??drawicon_preview_1
//  307   uint32_t *ps3,*ps4; 
//  308 	int pre_sread_cnt;
//  309 	if(part ==0)
//  310 	{
//  311 		re = f_open(&TEST_FIL,path, FA_OPEN_EXISTING | FA_READ);//huaping.gcode
//  312 
//  313 		if(re == FR_OK)
        LDR      R0,[SP, #+4]
        MOVS     R2,#+1
          CFI FunCall f_open
        BL       f_open
        CMP      R0,#+0
        BNE.W    ??drawicon_preview_2
//  314 		{
//  315 			memset(bmp_public_buf,0,sizeof(bmp_public_buf));
        MOV      R2,#+8192
        MOVS     R1,#+0
        LDR.N    R0,??drawicon_preview_0+0x4
          CFI FunCall memset
        BL       memset
//  316 			//ps3 = (uint32_t *)&bmp_public_buf[0];
//  317 			f_read(&TEST_FIL,&bmp_public_buf[0],1024,&read);
        LDR      R0,[SP, #+4]
        LDR.N    R1,??drawicon_preview_0+0x4
        ADD      R3,SP,#+8
        MOV      R2,#+1024
          CFI FunCall f_read
        BL       f_read
//  318 			ps4 = (uint32_t *)strstr((uint8_t *)bmp_public_buf,";simage:");
        ADR.W    R1,`?<Constant ";simage:">`
        LDR.N    R0,??drawicon_preview_0+0x4
          CFI FunCall strstr
        BL       strstr
//  319 			if(ps4)
        CMP      R0,#+0
        BEQ.N    ??drawicon_preview_2
//  320 			{
//  321 					pre_sread_cnt = (uint32_t)ps4-(uint32_t)((uint32_t *)(&bmp_public_buf[0]));
//  322 					pre_sread_cnt2=pre_sread_cnt;
        LDR.N    R1,??drawicon_preview_3
        LDR.N    R2,??drawicon_preview_0+0x4
        SUBS     R0,R0,R2
        STR      R0,[R1, #+0]
//  323 					f_lseek(&TEST_FIL,pre_sread_cnt+8);
        ADD      R1,R0,#+8
        LDR      R0,[SP, #+4]
          CFI FunCall f_lseek
        BL       f_lseek
        LDR.W    R8,??drawicon_preview_3+0x4
        MOVS     R7,#+100
//  324 					
//  325 					while(1)
//  326 					{
//  327 						f_read(&TEST_FIL,&temp_test,200,&read);
??drawicon_preview_4:
        LDR      R0,[SP, #+4]
        ADD      R3,SP,#+8
        MOVS     R2,#+200
        ADD      R1,SP,#+12
          CFI FunCall f_read
        BL       f_read
//  328 						for(i=0;i<200;)
        MOVS     R0,#+200
        MULS     R0,R0,R5
        MLA      R3,R7,R4,R0
        LDR.N    R6,??drawicon_preview_0+0x4
        MOVS     R1,#+0
        ADD      R2,SP,#+12
        ADD      R3,R3,R6
//  329 						{
//  330 							bmp_public_buf[row_1*200+100*k+j] = (char)(ascii2dec_test(&temp_test[i])<<4|ascii2dec_test(&temp_test[i+1]));
??drawicon_preview_5:
        LDRSB    R12,[R2, #+0]
        SUB      R6,R12,#+48
        CMP      R6,#+10
        IT       CC 
        SUBCC    R12,R12,#+48
        BCC.N    ??drawicon_preview_6
        SUB      R6,R12,#+97
        CMP      R6,#+6
        IT       CC 
        SUBCC    R12,R12,#+87
        BCC.N    ??drawicon_preview_6
        SUB      R6,R12,#+65
        CMP      R6,#+6
        ITE      CC 
        SUBCC    R12,R12,#+55
        MOVCS    R12,#+0
??drawicon_preview_6:
        ADDS     R6,R2,#+1
        LDRSB    LR,[R6, #+0]
        SUB      R6,LR,#+48
        CMP      R6,#+10
        IT       CC 
        SUBCC    LR,LR,#+48
        BCC.N    ??drawicon_preview_7
        SUB      R6,LR,#+97
        CMP      R6,#+6
        IT       CC 
        SUBCC    LR,LR,#+87
        BCC.N    ??drawicon_preview_7
        SUB      R6,LR,#+65
        CMP      R6,#+6
        ITE      CC 
        SUBCC    LR,LR,#+55
        MOVCS    LR,#+0
??drawicon_preview_7:
        ORR      R6,LR,R12, LSL #+4
//  331 							j++;
//  332 							i+=2;
        ADDS     R1,R1,#+2
        ADDS     R2,R2,#+2
        STRB     R6,[R3], #+1
//  333 						}
        CMP      R1,#+200
        BLT.N    ??drawicon_preview_5
//  334 						k++;
        ADDS     R4,R4,#+1
//  335 						j=0;
//  336 						if(k*100>=200)
        MUL      R1,R7,R4
        CMP      R1,#+200
        BLT.N    ??drawicon_preview_8
//  337 						{
//  338 							for(h=0;h<200;)
        LDR.N    R2,??drawicon_preview_0+0x4
        MOVS     R1,#+0
        ADDS     R0,R0,R2
//  339 							{
//  340 								p_index = (uint16_t *)(&bmp_public_buf[row_1*200+h]); 
//  341 								if(*p_index == 0x0000)*p_index=gCfgItems.preview_bk_color;
??drawicon_preview_9:
        LDRH     R2,[R0, #+0]
        CBNZ.N   R2,??drawicon_preview_10
        LDRH     R2,[R8, #+704]
        STRH     R2,[R0, #+0]
//  342 								h+=2;
??drawicon_preview_10:
        ADDS     R2,R0,#+2
        ADDS     R1,R1,#+2
        LDRH     R3,[R2, #+0]
        CBNZ.N   R3,??drawicon_preview_11
        LDRH     R3,[R8, #+704]
        STRH     R3,[R2, #+0]
??drawicon_preview_11:
        ADDS     R1,R1,#+2
        ADDS     R0,R0,#+4
//  343 							}
        CMP      R1,#+200
        BLT.N    ??drawicon_preview_9
//  344 							k=0;
//  345 							row_1++;
//  346 							f_read(&TEST_FIL,&temp_test,9,&read);
        LDR      R0,[SP, #+4]
        MOVS     R4,#+0
        ADDS     R5,R5,#+1
        ADD      R3,SP,#+8
        MOVS     R2,#+9
        ADD      R1,SP,#+12
          CFI FunCall f_read
        BL       f_read
//  347 						}
//  348 						if(row_1>=(ysize_small))
??drawicon_preview_8:
        LDR      R0,[SP, #+212]
        CMP      R5,R0
        BLT.N    ??drawicon_preview_4
        B.N      ??drawicon_preview_12
        Nop      
        DATA
??drawicon_preview_0:
        DC32     bmp_public_buf+0x2000
        DC32     bmp_public_buf
        THUMB
//  349 						{
//  350 							break;
//  351 						}
//  352 					}		
//  353 					//f_close(&TEST_FIL);
//  354 					return 1;
//  355 			}
//  356 		}
//  357 		f_close(&TEST_FIL);
??drawicon_preview_2:
        LDR      R0,[SP, #+4]
          CFI FunCall f_close
        BL       f_close
//  358 		return 0;
        MOVS     R0,#+0
        B.N      ?Subroutine0
//  359 	}
??drawicon_preview_1:
        LDR.N    R0,??drawicon_preview_3
        LDRB     R1,[SP, #+216]
        LDR      R0,[R0, #+0]
        MOVW     R2,#+10225
        MLA      R0,R2,R1,R0
        ADD      R1,R0,#+8
        LDR      R0,[SP, #+4]
//  360 	else
//  361 	{
//  362 		//memset(bmp_public_buf,0,(xsize_small*ysize_small*2));
//  363 		f_lseek(&TEST_FIL,pre_sread_cnt2+8+part*(40900>>2));
          CFI FunCall f_lseek
        BL       f_lseek
        LDR.W    R8,??drawicon_preview_3+0x4
        MOVS     R7,#+100
//  364 					
//  365 		while(1)
//  366 		{
//  367 			f_read(&TEST_FIL,&temp_test,200,&read);
??drawicon_preview_13:
        LDR      R0,[SP, #+4]
        ADD      R3,SP,#+8
        MOVS     R2,#+200
        ADD      R1,SP,#+12
          CFI FunCall f_read
        BL       f_read
//  368 			for(i=0;i<200;)
        MOVS     R0,#+200
        MUL      R9,R0,R5
        MLA      R0,R7,R4,R9
        LDR.N    R1,??drawicon_preview_3+0x8
        ADD      R6,SP,#+12
        ADD      R10,R0,R1
        MOV      R11,R7
//  369 			{
//  370 				bmp_public_buf[row_1*200+100*k+j] = (char)(ascii2dec_test(&temp_test[i])<<4|ascii2dec_test(&temp_test[i+1]));
??drawicon_preview_14:
        MOV      R0,R6
          CFI FunCall ascii2dec_test
        BL       ascii2dec_test
        STR      R0,[SP, #+0]
        ADDS     R0,R6,#+1
          CFI FunCall ascii2dec_test
        BL       ascii2dec_test
        LDR      R1,[SP, #+0]
        ORR      R0,R0,R1, LSL #+4
//  371 				j++;
//  372 				i+=2;
        ADDS     R6,R6,#+2
        STRB     R0,[R10], #+1
        SUBS     R11,R11,#+1
//  373 			}
        BNE.N    ??drawicon_preview_14
//  374 			k++;
        ADDS     R4,R4,#+1
//  375 			j=0;
//  376 			if(k*100>=200)
        MUL      R0,R7,R4
        CMP      R0,#+200
        BLT.N    ??drawicon_preview_15
//  377 			{
//  378 				for(h=0;h<200;)
        LDR.N    R0,??drawicon_preview_3+0x8
        B.N      ??drawicon_preview_16
        DATA
??drawicon_preview_3:
        DC32     pre_sread_cnt2
        DC32     gCfgItems
        DC32     bmp_public_buf
        THUMB
??drawicon_preview_16:
        MOVS     R1,#+0
        ADD      R0,R9,R0
//  379 				{
//  380 					p_index = (uint16_t *)(&bmp_public_buf[row_1*200+h]); 
//  381 					if(*p_index == 0x0000)*p_index=gCfgItems.preview_bk_color;
??drawicon_preview_17:
        LDRH     R2,[R0, #+0]
        CBNZ.N   R2,??drawicon_preview_18
        LDRH     R2,[R8, #+704]
        STRH     R2,[R0, #+0]
//  382 					h+=2;
??drawicon_preview_18:
        ADDS     R2,R0,#+2
        ADDS     R1,R1,#+2
        LDRH     R3,[R2, #+0]
        CBNZ.N   R3,??drawicon_preview_19
        LDRH     R3,[R8, #+704]
        STRH     R3,[R2, #+0]
??drawicon_preview_19:
        ADDS     R1,R1,#+2
        ADDS     R0,R0,#+4
//  383 				}
        CMP      R1,#+200
        BLT.N    ??drawicon_preview_17
//  384 				k=0;
//  385 				row_1++;
//  386 				f_read(&TEST_FIL,&temp_test,9,&read);
        LDR      R0,[SP, #+4]
        MOVS     R4,#+0
        ADDS     R5,R5,#+1
        ADD      R3,SP,#+8
        MOVS     R2,#+9
        ADD      R1,SP,#+12
          CFI FunCall f_read
        BL       f_read
//  387 			}
//  388 			if(row_1 >= ysize_small)
??drawicon_preview_15:
        LDR      R0,[SP, #+212]
        CMP      R5,R0
        BLT.N    ??drawicon_preview_13
//  389 			{
//  390 				break;
//  391 			}
//  392 		}		
//  393 		if(part == 3)f_close(&TEST_FIL);
        LDRB     R0,[SP, #+216]
        CMP      R0,#+3
        ITT      EQ 
        LDREQ    R0,[SP, #+4]
          CFI FunCall f_close
        BLEQ     f_close
//  394 		return 1;
??drawicon_preview_12:
        MOVS     R0,#+1
          CFI EndBlock cfiBlock2
        REQUIRE ?Subroutine0
        ;; // Fall through to label ?Subroutine0
//  395 	}
//  396 #endif
//  397 }

        SECTION `.text`:CODE:NOROOT(1)
          CFI Block cfiBlock3 Using cfiCommon0
          CFI NoFunction
          CFI NoCalls drawicon_preview
          CFI CFA R13+256
          CFI R4 Frame(CFA, -36)
          CFI R5 Frame(CFA, -32)
          CFI R6 Frame(CFA, -28)
          CFI R7 Frame(CFA, -24)
          CFI R8 Frame(CFA, -20)
          CFI R9 Frame(CFA, -16)
          CFI R10 Frame(CFA, -12)
          CFI R11 Frame(CFA, -8)
          CFI R14 Frame(CFA, -4)
        THUMB
?Subroutine0:
        ADD      SP,SP,#+220
          CFI CFA R13+36
        POP      {R4-R11,PC}      ;; return
          CFI EndBlock cfiBlock3

        SECTION `.text`:CODE:NOROOT(2)
        SECTION_TYPE SHT_PROGBITS, 0
        DATA
`?<Constant ";simage:">`:
        DC8 ";simage:"
        DC8 0, 0, 0

        SECTION `.iar_vfe_header`:DATA:NOALLOC:NOROOT(2)
        SECTION_TYPE SHT_PROGBITS, 0
        DATA
        DC32 0

        SECTION __DLIB_PERTHREAD:DATA:REORDER:NOROOT(0)
        SECTION_TYPE SHT_PROGBITS, 0

        SECTION __DLIB_PERTHREAD_init:DATA:REORDER:NOROOT(0)
        SECTION_TYPE SHT_PROGBITS, 0

        END
//  398 #endif
//  399 
//  400 #if VERSION_WITH_PIC	
//  401 #if 0
//  402 /*
//  403 const unsigned char gImage_logo[76800] = { 
//  404 0X10,0X10,0X10,0X10,0X10,0X10,0X10,0X10,0X10,0X10,0X10,0X10,0X10,0X10,0X10,0X10,
//  405 0X10,0X10,0X10,0X10,0X10,0X10,0X10,0X10,0X10,0X10,0X10,0X10,0X10,0X10,0X10,0X10,
//  406 0X10,0X10,0X10,0X10,0X10,0X10,0X10,0X10,0X10,0X10,0X10,0X10,0X10,0X10,0X10,0X10,
//  407 0X10,0X10,0X10,0X10,0X10,0X10,0X10,0X10,0X10,0X10,0X10,0X10,0X10,0X10,0X10,0X10,
//  408 0X10,0X10,0X10,0X10,0X10,0X10,0X10,0X10,0X10,0X10,0X10,0X10,0X10,0X10,0X10,0X10,
//  409 0X10,0X10,0X10,0X10,0X10,0X10,0X10,0X10,0X10,0X10,0X10,0X10,0X10,0X10,0X10,0X10,
//  410 0X10,0X10,0X10,0X10,0X10,0X10,0X10,0X10,0X10,0X10,0X10,0X10,0X10,0X10,0X10,0X10,
//  411 0X10,0X10,0X10,0X10,0X10,0X10,0X10,0X10,0X10,0X10,0X10,0X10,0X10,0X10,0X10,0X10,
//  412 0X10,0X10,0X10,0X10,0X10,0X10,0X10,0X10,0X10,0X10,0X10,0X10,0X10,0X10,0X10,0X10,
//  413 0X10,0X10,0X10,0X10,0X10,0X10,0X10,0X10,0X10,0X10,0X10,0X10,0X10,0X10,0X10,0X10,
//  414 0X10,0X10,0X10,0X10,0X10,0X10,0X10,0X10,0X10,0X10,0X10,0X10,0X10,0X10,0X10,0X10,
//  415 0X10,0X10,0X10,0X10,0X10,0X10,0X10,0X10,0X10,0X10,0X10,0X10,0X10,0X10,0X10,0X10,
//  416 0X10,0X10,0X10,0X10,0X10,0X10,0X10,0X10,0X10,0X10,0X10,0X10,0X10,0X10,0X10,0X10,
//  417 0X10,0X10,0X10,0X10,0X10,0X10,0X10,0X10,0X10,0X10,0X10,0X10,0X10,0X10,0X10,0X10,
//  418 0X10,0X10,0X10,0X10,0X10,0X10,0X10,0X10,0X10,0X10,0X10,0X10,0X10,0X10,0X10,0X10,
//  419 0X10,0X10,0X10,0X10,0X10,0X10,0X10,0X10,0X10,0X10,0X10,0X10,0X10,0X10,0X10,0X10,
//  420 0X10,0X10,0X10,0X10,0X10,0X10,0X10,0X10,0X10,0X10,0X10,0X10,0X10,0X10,0X10,0X10,
//  421 0X10,0X10,0X10,0X10,0X10,0X10,0X10,0X10,0X10,0X10,0X10,0X10,0X10,0X10,0X10,0X10,
//  422 0X10,0X10,0X10,0X10,0X10,0X10,0X10,0X10,0X10,0X10,0X10,0X10,0X10,0X10,0X10,0X10,
//  423 0X10,0X10,0X10,0X10,0X10,0X10,0X10,0X10,0X10,0X10,0X10,0X10,0X10,0X10,0X10,0X10,
//  424 0X10,0X10,0X10,0X10,0X10,0X10,0X10,0X10,0X10,0X10,0X10,0X10,0X10,0X10,0X10,0X10,
//  425 0X10,0X10,0X10,0X10,0X10,0X10,0X10,0X10,0X10,0X10,0X10,0X10,0X10,0X10,0X10,0X10,
//  426 0X10,0X10,0X10,0X10,0X10,0X10,0X10,0X10,0X10,0X10,0X10,0X10,0X10,0X10,0X10,0X10,
//  427 0X10,0X10,0X10,0X10,0X10,0X10,0X10,0X10,0X10,0X10,0X10,0X10,0X10,0X10,0X10,0X10,
//  428 0X10,0X10,0X10,0X10,0X10,0X10,0X10,0X10,0X10,0X10,0X10,0X10,0X10,0X10,0X10,0X10,
//  429 0X10,0X10,0X10,0X10,0X10,0X10,0X10,0X10,0X10,0X10,0X10,0X10,0X10,0X10,0X10,0X10,
//  430 0X10,0X10,0X10,0X10,0X10,0X10,0X10,0X10,0X10,0X10,0X10,0X10,0X10,0X10,0X10,0X10,
//  431 0X10,0X10,0X10,0X10,0X10,0X10,0X10,0X10,0X10,0X10,0X10,0X10,0X10,0X10,0X10,0X10,
//  432 0X10,0X10,0X10,0X10,0X10,0X10,0X10,0X10,0X10,0X10,0X10,0X10,0X10,0X10,0X10,0X10,
//  433 0X10,0X10,0X10,0X10,0X10,0X10,0X10,0X10,0X10,0X10,0X10,0X10,0X10,0X10,0X10,0X10,
//  434 0X10,0X10,0X10,0X10,0X10,0X10,0X10,0X10,0X10,0X10,0X10,0X10,0X10,0X10,0X10,0X10,
//  435 0X10,0X10,0X10,0X10,0X10,0X10,0X10,0X10,0X10,0X10,0X10,0X10,0X10,0X10,0X10,0X10,
//  436 0X10,0X10,0X10,0X10,0X10,0X10,0X10,0X10,0X10,0X10,0X10,0X10,0X10,0X10,0X10,0X10,
//  437 0X10,0X10,0X10,0X10,0X10,0X10,0X10,0X10,0X10,0X10,0X10,0X10,0X10,0X10,0X10,0X10,
//  438 0X10,0X10,0X10,0X10,0X10,0X10,0X10,0X10,0X10,0X10,0X10,0X10,0X10,0X10,0X10,0X10,
//  439 0X10,0X10,0X10,0X10,0X10,0X10,0X10,0X10,0X10,0X10,0X10,0X10,0X10,0X10,0X10,0X10,
//  440 0X10,0X10,0X10,0X10,0X10,0X10,0X10,0X10,0X10,0X10,0X10,0X10,0X10,0X10,0X10,0X10,
//  441 0X10,0X10,0X10,0X10,0X10,0X10,0X10,0X10,0X10,0X10,0X10,0X10,0X10,0X10,0X10,0X10,
//  442 0X10,0X10,0X10,0X10,0X10,0X10,0X10,0X10,0X10,0X10,0X10,0X10,0X10,0X10,0X10,0X10,
//  443 0X10,0X10,0X10,0X10,0X10,0X10,0X10,0X10,0X10,0X10,0X10,0X10,0X10,0X10,0X10,0X10,
//  444 0X10,0X10,0X10,0X10,0X10,0X10,0X10,0X10,0X10,0X10,0X10,0X10,0X10,0X10,0X10,0X10,
//  445 0X10,0X10,0X10,0X10,0X10,0X10,0X10,0X10,0X10,0X10,0X10,0X10,0X10,0X10,0X10,0X10,
//  446 0X10,0X10,0X10,0X10,0X10,0X10,0X10,0X10,0X10,0X10,0X10,0X10,0X10,0X10,0X10,0X10,
//  447 0X10,0X10,0X10,0X10,0X10,0X10,0X10,0X10,0X10,0X10,0X10,0X10,0X10,0X10,0X10,0X10,
//  448 0X10,0X10,0X10,0X10,0X10,0X10,0X10,0X10,0X10,0X10,0X10,0X10,0X10,0X10,0X10,0X10,
//  449 0X10,0X10,0X10,0X10,0X10,0X10,0X10,0X10,0X10,0X10,0X10,0X10,0X10,0X10,0X10,0X10,
//  450 0X10,0X10,0X10,0X10,0X10,0X10,0X10,0X10,0X10,0X10,0X10,0X10,0X10,0X10,0X10,0X10,
//  451 0X10,0X10,0X10,0X10,0X10,0X10,0X10,0X10,0X10,0X10,0X10,0X10,0X10,0X10,0X10,0X10,
//  452 0X10,0X10,0X10,0X10,0X10,0X10,0X10,0X10,0X10,0X10,0X10,0X10,0X10,0X10,0X10,0X10,
//  453 0X10,0X10,0X10,0X10,0X10,0X10,0X10,0X10,0X10,0X10,0X10,0X10,0X10,0X10,0X10,0X10,
//  454 0X10,0X10,0X10,0X10,0X10,0X10,0X10,0X10,0X10,0X10,0X10,0X10,0X10,0X10,0X10,0X10,
//  455 0X10,0X10,0X10,0X10,0X10,0X10,0X10,0X10,0X10,0X10,0X10,0X10,0X10,0X10,0X10,0X10,
//  456 0X10,0X10,0X10,0X10,0X10,0X10,0X10,0X10,0X10,0X10,0X10,0X10,0X10,0X10,0X10,0X10,
//  457 0X10,0X10,0X10,0X10,0X10,0X10,0X10,0X10,0X10,0X10,0X10,0X10,0X10,0X10,0X10,0X10,
//  458 0X10,0X10,0X10,0X10,0X10,0X10,0X10,0X10,0X10,0X10,0X10,0X10,0X10,0X10,0X10,0X10,
//  459 0X10,0X10,0X10,0X10,0X10,0X10,0X10,0X10,0X10,0X10,0X10,0X10,0X10,0X10,0X10,0X10,
//  460 0X10,0X10,0X10,0X10,0X10,0X10,0X10,0X10,0X10,0X10,0X10,0X10,0X10,0X10,0X10,0X10,
//  461 0X10,0X10,0X10,0X10,0X10,0X10,0X10,0X10,0X10,0X10,0X10,0X10,0X10,0X10,0X10,0X10,
//  462 0X10,0X10,0X10,0X10,0X10,0X10,0X10,0X10,0X10,0X10,0X10,0X10,0X10,0X10,0X10,0X10,
//  463 0X10,0X10,0X10,0X10,0X10,0X10,0X10,0X10,0X10,0X10,0X10,0X10,0X10,0X10,0X10,0X10,
//  464 0X10,0X10,0X10,0X10,0X10,0X10,0X10,0X10,0X10,0X10,0X10,0X10,0X10,0X10,0X10,0X10,
//  465 0X10,0X10,0X10,0X10,0X10,0X10,0X10,0X10,0X10,0X10,0X10,0X10,0X10,0X10,0X10,0X10,
//  466 0X10,0X10,0X10,0X10,0X10,0X10,0X10,0X10,0X10,0X10,0X10,0X10,0X10,0X10,0X10,0X10,
//  467 0X10,0X10,0X10,0X10,0X10,0X10,0X10,0X10,0X10,0X10,0X10,0X10,0X10,0X10,0X10,0X10,
//  468 0X10,0X10,0X10,0X10,0X10,0X10,0X10,0X10,0X10,0X10,0X10,0X10,0X10,0X10,0X10,0X10,
//  469 0X10,0X10,0X10,0X10,0X10,0X10,0X10,0X10,0X10,0X10,0X10,0X10,0X10,0X10,0X10,0X10,
//  470 0X10,0X10,0X10,0X10,0X10,0X10,0X10,0X10,0X10,0X10,0X10,0X10,0X10,0X10,0X10,0X10,
//  471 0X10,0X10,0X10,0X10,0X10,0X10,0X10,0X10,0X10,0X10,0X10,0X10,0X10,0X10,0X10,0X10,
//  472 0X10,0X10,0X10,0X10,0X10,0X10,0X10,0X10,0X10,0X10,0X10,0X10,0X10,0X10,0X10,0X10,
//  473 0X10,0X10,0X10,0X10,0X10,0X10,0X10,0X10,0X10,0X10,0X10,0X10,0X10,0X10,0X10,0X10,
//  474 0X10,0X10,0X10,0X10,0X10,0X10,0X10,0X10,0X10,0X10,0X10,0X10,0X10,0X10,0X10,0X10,
//  475 0X10,0X10,0X10,0X10,0X10,0X10,0X10,0X10,0X10,0X10,0X10,0X10,0X10,0X10,0X10,0X10,
//  476 0X10,0X10,0X10,0X10,0X10,0X10,0X10,0X10,0X10,0X10,0X10,0X10,0X10,0X10,0X10,0X10,
//  477 0X10,0X10,0X10,0X10,0X10,0X10,0X10,0X10,0X10,0X10,0X10,0X10,0X10,0X10,0X10,0X10,
//  478 0X10,0X10,0X10,0X10,0X10,0X10,0X10,0X10,0X10,0X10,0X10,0X10,0X10,0X10,0X10,0X10,
//  479 0X10,0X10,0X10,0X10,0X10,0X10,0X10,0X10,0X10,0X10,0X10,0X10,0X10,0X10,0X10,0X10,
//  480 0X10,0X10,0X10,0X10,0X10,0X10,0X10,0X10,0X10,0X10,0X10,0X10,0X10,0X10,0X10,0X10,
//  481 0X10,0X10,0X10,0X10,0X10,0X10,0X10,0X10,0X10,0X10,0X10,0X10,0X10,0X10,0X10,0X10,
//  482 0X10,0X10,0X10,0X10,0X10,0X10,0X10,0X10,0X10,0X10,0X10,0X10,0X10,0X10,0X10,0X10,
//  483 0X10,0X10,0X10,0X10,0X10,0X10,0X10,0X10,0X10,0X10,0X10,0X10,0X10,0X10,0X10,0X10,
//  484 0X10,0X10,0X10,0X10,0X10,0X10,0X10,0X10,0X10,0X10,0X10,0X10,0X10,0X10,0X10,0X10,
//  485 0X10,0X10,0X10,0X10,0X10,0X10,0X10,0X10,0X10,0X10,0X10,0X10,0X10,0X10,0X10,0X10,
//  486 0X10,0X10,0X10,0X10,0X10,0X10,0X10,0X10,0X10,0X10,0X10,0X10,0X10,0X10,0X10,0X10,
//  487 0X10,0X10,0X10,0X10,0X10,0X10,0X10,0X10,0X10,0X10,0X10,0X10,0X10,0X10,0X10,0X10,
//  488 0X10,0X10,0X10,0X10,0X10,0X10,0X10,0X10,0X10,0X10,0X10,0X10,0X10,0X10,0X10,0X10,
//  489 0X10,0X10,0X10,0X10,0X10,0X10,0X10,0X10,0X10,0X10,0X10,0X10,0X10,0X10,0X10,0X10,
//  490 0X10,0X10,0X10,0X10,0X10,0X10,0X10,0X10,0X10,0X10,0X10,0X10,0X10,0X10,0X10,0X10,
//  491 0X10,0X10,0X10,0X10,0X10,0X10,0X10,0X10,0X10,0X10,0X10,0X10,0X10,0X10,0X10,0X10,
//  492 0X10,0X10,0X10,0X10,0X10,0X10,0X10,0X10,0X10,0X10,0X10,0X10,0X10,0X10,0X10,0X10,
//  493 0X10,0X10,0X10,0X10,0X10,0X10,0X10,0X10,0X10,0X10,0X10,0X10,0X10,0X10,0X10,0X10,
//  494 0X10,0X10,0X10,0X10,0X10,0X10,0X10,0X10,0X10,0X10,0X10,0X10,0X10,0X10,0X10,0X10,
//  495 0X10,0X10,0X10,0X10,0X10,0X10,0X10,0X10,0X10,0X10,0X10,0X10,0X10,0X10,0X10,0X10,
//  496 0X10,0X10,0X10,0X10,0X10,0X10,0X10,0X10,0X10,0X10,0X10,0X10,0X10,0X10,0X10,0X10,
//  497 0X10,0X10,0X10,0X10,0X10,0X10,0X10,0X10,0X10,0X10,0X10,0X10,0X10,0X10,0X10,0X10,
//  498 0X10,0X10,0X10,0X10,0X10,0X10,0X10,0X10,0X10,0X10,0X10,0X10,0X10,0X10,0X10,0X10,
//  499 0X10,0X10,0X10,0X10,0X10,0X10,0X10,0X10,0X10,0X10,0X10,0X10,0X10,0X10,0X10,0X10,
//  500 0X10,0X10,0X10,0X10,0X10,0X10,0X10,0X10,0X10,0X10,0X10,0X10,0X10,0X10,0X10,0X10,
//  501 0X10,0X10,0X10,0X10,0X10,0X10,0X10,0X10,0X10,0X10,0X10,0X10,0X10,0X10,0X10,0X10,
//  502 0X10,0X10,0X10,0X10,0X10,0X10,0X10,0X10,0X10,0X10,0X10,0X10,0X10,0X10,0X10,0X10,
//  503 0X10,0X10,0X10,0X10,0X10,0X10,0X10,0X10,0X10,0X10,0X10,0X10,0X10,0X10,0X10,0X10,
//  504 0X10,0X10,0X10,0X10,0X10,0X10,0X10,0X10,0X10,0X10,0X10,0X10,0X10,0X10,0X10,0X10,
//  505 0X10,0X10,0X10,0X10,0X10,0X10,0X10,0X10,0X10,0X10,0X10,0X10,0X10,0X10,0X10,0X10,
//  506 0X10,0X10,0X10,0X10,0X10,0X10,0X10,0X10,0X10,0X10,0X10,0X10,0X10,0X10,0X10,0X10,
//  507 0X10,0X10,0X10,0X10,0X10,0X10,0X10,0X10,0X10,0X10,0X10,0X10,0X10,0X10,0X10,0X10,
//  508 0X10,0X10,0X10,0X10,0X10,0X10,0X10,0X10,0X10,0X10,0X10,0X10,0X10,0X10,0X10,0X10,
//  509 0X10,0X10,0X10,0X10,0X10,0X10,0X10,0X10,0X10,0X10,0X10,0X10,0X10,0X10,0X10,0X10,
//  510 0X10,0X10,0X10,0X10,0X10,0X10,0X10,0X10,0X10,0X10,0X10,0X10,0X10,0X10,0X10,0X10,
//  511 0X10,0X10,0X10,0X10,0X10,0X10,0X10,0X10,0X10,0X10,0X10,0X10,0X10,0X10,0X10,0X10,
//  512 0X10,0X10,0X10,0X10,0X10,0X10,0X10,0X10,0X10,0X10,0X10,0X10,0X10,0X10,0X10,0X10,
//  513 0X10,0X10,0X10,0X10,0X10,0X10,0X10,0X10,0X10,0X10,0X10,0X10,0X10,0X10,0X10,0X10,
//  514 0X10,0X10,0X10,0X10,0X10,0X10,0X10,0X10,0X10,0X10,0X10,0X10,0X10,0X10,0X10,0X10,
//  515 0X10,0X10,0X10,0X10,0X10,0X10,0X10,0X10,0X10,0X10,0X10,0X10,0X10,0X10,0X10,0X10,
//  516 0X10,0X10,0X10,0X10,0X10,0X10,0X10,0X10,0X10,0X10,0X10,0X10,0X10,0X10,0X10,0X10,
//  517 0X10,0X10,0X10,0X10,0X10,0X10,0X10,0X10,0X10,0X10,0X10,0X10,0X10,0X10,0X10,0X10,
//  518 0X10,0X10,0X10,0X10,0X10,0X10,0X10,0X10,0X10,0X10,0X10,0X10,0X10,0X10,0X10,0X10,
//  519 0X10,0X10,0X10,0X10,0X10,0X10,0X10,0X10,0X10,0X10,0X10,0X10,0X10,0X10,0X10,0X10,
//  520 0X10,0X10,0X10,0X10,0X10,0X10,0X10,0X10,0X10,0X10,0X10,0X10,0X10,0X10,0X10,0X10,
//  521 0X10,0X10,0X10,0X10,0X10,0X10,0X10,0X10,0X10,0X10,0X10,0X10,0X10,0X10,0X10,0X10,
//  522 0X10,0X10,0X10,0X10,0X10,0X10,0X10,0X10,0X10,0X10,0X10,0X10,0X10,0X10,0X10,0X10,
//  523 0X10,0X10,0X10,0X10,0X10,0X10,0X10,0X10,0X10,0X10,0X10,0X10,0X10,0X10,0X10,0X10,
//  524 0X10,0X10,0X10,0X10,0X10,0X10,0X10,0X10,0X10,0X10,0X10,0X10,0X10,0X10,0X10,0X10,
//  525 0X10,0X10,0X10,0X10,0X10,0X10,0X10,0X10,0X10,0X10,0X10,0X10,0X10,0X10,0X10,0X10,
//  526 0X10,0X10,0X10,0X10,0X10,0X10,0X10,0X10,0X10,0X10,0X10,0X10,0X10,0X10,0X10,0X10,
//  527 0X10,0X10,0X10,0X10,0X10,0X10,0X10,0X10,0X10,0X10,0X10,0X10,0X10,0X10,0X10,0X10,
//  528 0X10,0X10,0X10,0X10,0X10,0X10,0X10,0X10,0X10,0X10,0X10,0X10,0X10,0X10,0X10,0X10,
//  529 0X10,0X10,0X10,0X10,0X10,0X10,0X10,0X10,0X10,0X10,0X10,0X10,0X10,0X10,0X10,0X10,
//  530 0X10,0X10,0X10,0X10,0X10,0X10,0X10,0X10,0X10,0X10,0X10,0X10,0X10,0X10,0X10,0X10,
//  531 0X10,0X10,0X10,0X10,0X10,0X10,0X10,0X10,0X10,0X10,0X10,0X10,0X10,0X10,0X10,0X10,
//  532 0X10,0X10,0X10,0X10,0X10,0X10,0X10,0X10,0X10,0X10,0X10,0X10,0X10,0X10,0X10,0X10,
//  533 0X10,0X10,0X10,0X10,0X10,0X10,0X10,0X10,0X10,0X10,0X10,0X10,0X10,0X10,0X10,0X10,
//  534 0X10,0X10,0X10,0X10,0X10,0X10,0X10,0X10,0X10,0X10,0X10,0X10,0X10,0X10,0X10,0X10,
//  535 0X10,0X10,0X10,0X10,0X10,0X10,0X10,0X10,0X10,0X10,0X10,0X10,0X10,0X10,0X10,0X10,
//  536 0X10,0X10,0X10,0X10,0X10,0X10,0X10,0X10,0X10,0X10,0X10,0X10,0X10,0X10,0X10,0X10,
//  537 0X10,0X10,0X10,0X10,0X10,0X10,0X10,0X10,0X10,0X10,0X10,0X10,0X10,0X10,0X10,0X10,
//  538 0X10,0X10,0X10,0X10,0X10,0X10,0X10,0X10,0X10,0X10,0X10,0X10,0X10,0X10,0X10,0X10,
//  539 0X10,0X10,0X10,0X10,0X10,0X10,0X10,0X10,0X10,0X10,0X10,0X10,0X10,0X10,0X10,0X10,
//  540 0X10,0X10,0X10,0X10,0X10,0X10,0X10,0X10,0X10,0X10,0X10,0X10,0X10,0X10,0X10,0X10,
//  541 0X10,0X10,0X10,0X10,0X10,0X10,0X10,0X10,0X10,0X10,0X10,0X10,0X10,0X10,0X10,0X10,
//  542 0X10,0X10,0X10,0X10,0X10,0X10,0X10,0X10,0X10,0X10,0X10,0X10,0X10,0X10,0X10,0X10,
//  543 0X10,0X10,0X10,0X10,0X10,0X10,0X10,0X10,0X10,0X10,0X10,0X10,0X10,0X10,0X10,0X10,
//  544 0X10,0X10,0X10,0X10,0X10,0X10,0X10,0X10,0X10,0X10,0X10,0X10,0X10,0X10,0X10,0X10,
//  545 0X10,0X10,0X10,0X10,0X10,0X10,0X10,0X10,0X10,0X10,0X10,0X10,0X10,0X10,0X10,0X10,
//  546 0X10,0X10,0X10,0X10,0X10,0X10,0X10,0X10,0X10,0X10,0X10,0X10,0X10,0X10,0X10,0X10,
//  547 0X10,0X10,0X10,0X10,0X10,0X10,0X10,0X10,0X10,0X10,0X10,0X10,0X10,0X10,0X10,0X10,
//  548 0X10,0X10,0X10,0X10,0X10,0X10,0X10,0X10,0X10,0X10,0X10,0X10,0X10,0X10,0X10,0X10,
//  549 0X10,0X10,0X10,0X10,0X10,0X10,0X10,0X10,0X10,0X10,0X10,0X10,0X10,0X10,0X10,0X10,
//  550 0X10,0X10,0X10,0X10,0X10,0X10,0X10,0X10,0X10,0X10,0X10,0X10,0X10,0X10,0X10,0X10,
//  551 0X10,0X10,0X10,0X10,0X10,0X10,0X10,0X10,0X10,0X10,0X10,0X10,0X10,0X10,0X10,0X10,
//  552 0X10,0X10,0X10,0X10,0X10,0X10,0X10,0X10,0X10,0X10,0X10,0X10,0X10,0X10,0X10,0X10,
//  553 0X10,0X10,0X10,0X10,0X10,0X10,0X10,0X10,0X10,0X10,0X10,0X10,0X10,0X10,0X10,0X10,
//  554 0X10,0X10,0X10,0X10,0X10,0X10,0X10,0X10,0X10,0X10,0X10,0X10,0X10,0X10,0X10,0X10,
//  555 0X10,0X10,0X10,0X10,0X10,0X10,0X10,0X10,0X10,0X10,0X10,0X10,0X10,0X10,0X10,0X10,
//  556 0X10,0X10,0X10,0X10,0X10,0X10,0X10,0X10,0X10,0X10,0X10,0X10,0X10,0X10,0X10,0X10,
//  557 0X10,0X10,0X10,0X10,0X10,0X10,0X10,0X10,0X10,0X10,0X10,0X10,0X10,0X10,0X10,0X10,
//  558 0X10,0X10,0X10,0X10,0X10,0X10,0X10,0X10,0X10,0X10,0X10,0X10,0X10,0X10,0X10,0X10,
//  559 0X10,0X10,0X10,0X10,0X10,0X10,0X10,0X10,0X10,0X10,0X10,0X10,0X10,0X10,0X10,0X10,
//  560 0X10,0X10,0X10,0X10,0X10,0X10,0X10,0X10,0X10,0X10,0X10,0X10,0X10,0X10,0X10,0X10,
//  561 0X10,0X10,0X10,0X10,0X10,0X10,0X10,0X10,0X10,0X10,0X10,0X10,0X10,0X10,0X10,0X10,
//  562 0X10,0X10,0X10,0X10,0X10,0X10,0X10,0X10,0X10,0X10,0X10,0X10,0X10,0X10,0X10,0X10,
//  563 0X10,0X10,0X10,0X10,0X10,0X10,0X10,0X10,0X10,0X10,0X10,0X10,0X10,0X10,0X10,0X10,
//  564 0X10,0X10,0X10,0X10,0X10,0X10,0X10,0X10,0X10,0X10,0X10,0X10,0X10,0X10,0X10,0X10,
//  565 0X10,0X10,0X10,0X10,0X10,0X10,0X10,0X10,0X10,0X10,0X10,0X10,0X10,0X10,0X10,0X10,
//  566 0X10,0X10,0X10,0X10,0X10,0X10,0X10,0X10,0X10,0X10,0X10,0X10,0X10,0X10,0X10,0X10,
//  567 0X10,0X10,0X10,0X10,0X10,0X10,0X10,0X10,0X10,0X10,0X10,0X10,0X10,0X10,0X10,0X10,
//  568 0X10,0X10,0X10,0X10,0X10,0X10,0X10,0X10,0X10,0X10,0X10,0X10,0X10,0X10,0X10,0X10,
//  569 0X10,0X10,0X10,0X10,0X10,0X10,0X10,0X10,0X10,0X10,0X10,0X10,0X10,0X10,0X10,0X10,
//  570 0X10,0X10,0X10,0X10,0X10,0X10,0X10,0X10,0X10,0X10,0X10,0X10,0X10,0X10,0X10,0X10,
//  571 0X10,0X10,0X10,0X10,0X10,0X10,0X10,0X10,0X10,0X10,0X10,0X10,0X10,0X10,0X10,0X10,
//  572 0X10,0X10,0X10,0X10,0X10,0X10,0X10,0X10,0X10,0X10,0X10,0X10,0X10,0X10,0X10,0X10,
//  573 0X10,0X10,0X10,0X10,0X10,0X10,0X10,0X10,0X10,0X10,0X10,0X10,0X10,0X10,0X10,0X10,
//  574 0X10,0X10,0X10,0X10,0X10,0X10,0X10,0X10,0X10,0X10,0X10,0X10,0X10,0X10,0X10,0X10,
//  575 0X10,0X10,0X10,0X10,0X10,0X10,0X10,0X10,0X10,0X10,0X10,0X10,0X10,0X10,0X10,0X10,
//  576 0X10,0X10,0X10,0X10,0X10,0X10,0X10,0X10,0X10,0X10,0X10,0X10,0X10,0X10,0X10,0X10,
//  577 0X10,0X10,0X10,0X10,0X10,0X10,0X10,0X10,0X10,0X10,0X10,0X10,0X10,0X10,0X10,0X10,
//  578 0X10,0X10,0X10,0X10,0X10,0X10,0X10,0X10,0X10,0X10,0X10,0X10,0X10,0X10,0X10,0X10,
//  579 0X10,0X10,0X10,0X10,0X10,0X10,0X10,0X10,0X10,0X10,0X10,0X10,0X10,0X10,0X10,0X10,
//  580 0X10,0X10,0X10,0X10,0X10,0X10,0X10,0X10,0X10,0X10,0X10,0X10,0X10,0X10,0X10,0X10,
//  581 0X10,0X10,0X10,0X10,0X10,0X10,0X10,0X10,0X10,0X10,0X10,0X10,0X10,0X10,0X10,0X10,
//  582 0X10,0X10,0X10,0X10,0X10,0X10,0X10,0X10,0X10,0X10,0X10,0X10,0X10,0X10,0X10,0X10,
//  583 0X10,0X10,0X10,0X10,0X10,0X10,0X10,0X10,0X10,0X10,0X10,0X10,0X10,0X10,0X10,0X10,
//  584 0X10,0X10,0X10,0X10,0X10,0X10,0X10,0X10,0X10,0X10,0X10,0X10,0X10,0X10,0X10,0X10,
//  585 0X10,0X10,0X10,0X10,0X10,0X10,0X10,0X10,0X10,0X10,0X10,0X10,0X10,0X10,0X10,0X10,
//  586 0X10,0X10,0X10,0X10,0X10,0X10,0X10,0X10,0X10,0X10,0X10,0X10,0X10,0X10,0X10,0X10,
//  587 0X10,0X10,0X10,0X10,0X10,0X10,0X10,0X10,0X10,0X10,0X10,0X10,0X10,0X10,0X10,0X10,
//  588 0X10,0X10,0X10,0X10,0X10,0X10,0X10,0X10,0X10,0X10,0X10,0X10,0X10,0X10,0X10,0X10,
//  589 0X10,0X10,0X10,0X10,0X10,0X10,0X10,0X10,0X10,0X10,0X10,0X10,0X10,0X10,0X10,0X10,
//  590 0X10,0X10,0X10,0X10,0X10,0X10,0X10,0X10,0X10,0X10,0X10,0X10,0X10,0X10,0X10,0X10,
//  591 0X10,0X10,0X10,0X10,0X10,0X10,0X10,0X10,0X10,0X10,0X10,0X10,0X10,0X10,0X10,0X10,
//  592 0X10,0X10,0X10,0X10,0X10,0X10,0X10,0X10,0X10,0X10,0X10,0X10,0X10,0X10,0X10,0X10,
//  593 0X10,0X10,0X10,0X10,0X10,0X10,0X10,0X10,0X10,0X10,0X10,0X10,0X10,0X10,0X10,0X10,
//  594 0X10,0X10,0X10,0X10,0X10,0X10,0X10,0X10,0X10,0X10,0X10,0X10,0X10,0X10,0X10,0X10,
//  595 0X10,0X10,0X10,0X10,0X10,0X10,0X10,0X10,0X10,0X10,0X10,0X10,0X10,0X10,0X10,0X10,
//  596 0X10,0X10,0X10,0X10,0X10,0X10,0X10,0X10,0X10,0X10,0X10,0X10,0X10,0X10,0X10,0X10,
//  597 0X10,0X10,0X10,0X10,0X10,0X10,0X10,0X10,0X10,0X10,0X10,0X10,0X10,0X10,0X10,0X10,
//  598 0X10,0X10,0X10,0X10,0X10,0X10,0X10,0X10,0X10,0X10,0X10,0X10,0X10,0X10,0X10,0X10,
//  599 0X10,0X10,0X10,0X10,0X10,0X10,0X10,0X10,0X10,0X10,0X10,0X10,0X10,0X10,0X10,0X10,
//  600 0X10,0X10,0X10,0X10,0X10,0X10,0X10,0X10,0X10,0X10,0X10,0X10,0X10,0X10,0X10,0X10,
//  601 0X10,0X10,0X10,0X10,0X10,0X10,0X10,0X10,0X10,0X10,0X10,0X10,0X10,0X10,0X10,0X10,
//  602 0X10,0X10,0X10,0X10,0X10,0X10,0X10,0X10,0X10,0X10,0X10,0X10,0X10,0X10,0X10,0X10,
//  603 0X10,0X10,0X10,0X10,0X10,0X10,0X10,0X10,0X10,0X10,0X10,0X10,0X10,0X10,0X10,0X10,
//  604 0X10,0X10,0X10,0X10,0X10,0X10,0X10,0X10,0X10,0X10,0X10,0X10,0X10,0X10,0X10,0X10,
//  605 0X10,0X10,0X10,0X10,0X10,0X10,0X10,0X10,0X10,0X10,0X10,0X10,0X10,0X10,0X10,0X10,
//  606 0X10,0X10,0X10,0X10,0X10,0X10,0X10,0X10,0X10,0X10,0X10,0X10,0X10,0X10,0X10,0X10,
//  607 0X10,0X10,0X10,0X10,0X10,0X10,0X10,0X10,0X10,0X10,0X10,0X10,0X10,0X10,0X10,0X10,
//  608 0X10,0X10,0X10,0X10,0X10,0X10,0X10,0X10,0X10,0X10,0X10,0X10,0X10,0X10,0X10,0X10,
//  609 0X10,0X10,0X10,0X10,0X10,0X10,0X10,0X10,0X10,0X10,0X10,0X10,0X10,0X10,0X10,0X10,
//  610 0X10,0X10,0X10,0X10,0X10,0X10,0X10,0X10,0X10,0X10,0X10,0X10,0X10,0X10,0X10,0X10,
//  611 0X10,0X10,0X10,0X10,0X10,0X10,0X10,0X10,0X10,0X10,0X10,0X10,0X10,0X10,0X10,0X10,
//  612 0X10,0X10,0X10,0X10,0X10,0X10,0X10,0X10,0X10,0X10,0X10,0X10,0X10,0X10,0X10,0X10,
//  613 0X10,0X10,0X10,0X10,0X10,0X10,0X10,0X10,0X10,0X10,0X10,0X10,0X10,0X10,0X10,0X10,
//  614 0X10,0X10,0X10,0X10,0X10,0X10,0X10,0X10,0X10,0X10,0X10,0X10,0X10,0X10,0X10,0X10,
//  615 0X10,0X10,0X10,0X10,0X10,0X10,0X10,0X10,0X10,0X10,0X10,0X10,0X10,0X10,0X10,0X10,
//  616 0X10,0X10,0X10,0X10,0X10,0X10,0X10,0X10,0X10,0X10,0X10,0X10,0X10,0X10,0X10,0X10,
//  617 0X10,0X10,0X10,0X10,0X10,0X10,0X10,0X10,0X10,0X10,0X10,0X10,0X10,0X10,0X10,0X10,
//  618 0X10,0X10,0X10,0X10,0X10,0X10,0X10,0X10,0X10,0X10,0X10,0X10,0X10,0X10,0X10,0X10,
//  619 0X10,0X10,0X10,0X10,0X10,0X10,0X10,0X10,0X10,0X10,0X10,0X10,0X10,0X10,0X10,0X10,
//  620 0X10,0X10,0X10,0X10,0X10,0X10,0X10,0X10,0X10,0X10,0X10,0X10,0X10,0X10,0X10,0X10,
//  621 0X10,0X10,0X10,0X10,0X10,0X10,0X10,0X10,0X10,0X10,0X10,0X10,0X10,0X10,0X10,0X10,
//  622 0X10,0X10,0X10,0X10,0X10,0X10,0X10,0X10,0X10,0X10,0X10,0X10,0X10,0X10,0X10,0X10,
//  623 0X10,0X10,0X10,0X10,0X10,0X10,0X10,0X10,0X10,0X10,0X10,0X10,0X10,0X10,0X10,0X10,
//  624 0X10,0X10,0X10,0X10,0X10,0X10,0X10,0X10,0X10,0X10,0X10,0X10,0X10,0X10,0X10,0X10,
//  625 0X10,0X10,0X10,0X10,0X10,0X10,0X10,0X10,0X10,0X10,0X10,0X10,0X10,0X10,0X10,0X10,
//  626 0X10,0X10,0X10,0X10,0X10,0X10,0X10,0X10,0X10,0X10,0X10,0X10,0X10,0X10,0X10,0X10,
//  627 0X10,0X10,0X10,0X10,0X10,0X10,0X10,0X10,0X10,0X10,0X10,0X10,0X10,0X10,0X10,0X10,
//  628 0X10,0X10,0X10,0X10,0X10,0X10,0X10,0X10,0X10,0X10,0X10,0X10,0X10,0X10,0X10,0X10,
//  629 0X10,0X10,0X10,0X10,0X10,0X10,0X10,0X10,0X10,0X10,0X10,0X10,0X10,0X10,0X10,0X10,
//  630 0X10,0X10,0X10,0X10,0X10,0X10,0X10,0X10,0X10,0X10,0X10,0X10,0X10,0X10,0X10,0X10,
//  631 0X10,0X10,0X10,0X10,0X10,0X10,0X10,0X10,0X10,0X10,0X10,0X10,0X10,0X10,0X10,0X10,
//  632 0X10,0X10,0X10,0X10,0X10,0X10,0X10,0X10,0X10,0X10,0X10,0X10,0X10,0X10,0X10,0X10,
//  633 0X10,0X10,0X10,0X10,0X10,0X10,0X10,0X10,0X10,0X10,0X10,0X10,0X10,0X10,0X10,0X10,
//  634 0X10,0X10,0X10,0X10,0X10,0X10,0X10,0X10,0X10,0X10,0X10,0X10,0X10,0X10,0X10,0X10,
//  635 0X10,0X10,0X10,0X10,0X10,0X10,0X10,0X10,0X10,0X10,0X10,0X10,0X10,0X10,0X10,0X10,
//  636 0X10,0X10,0X10,0X10,0X10,0X10,0X10,0X10,0X10,0X10,0X10,0X10,0X10,0X10,0X10,0X10,
//  637 0X10,0X10,0X10,0X10,0X10,0X10,0X10,0X10,0X10,0X10,0X10,0X10,0X10,0X10,0X10,0X10,
//  638 0X10,0X10,0X10,0X10,0X10,0X10,0X10,0X10,0X10,0X10,0X10,0X10,0X10,0X10,0X10,0X10,
//  639 0X10,0X10,0X10,0X10,0X10,0X10,0X10,0X10,0X10,0X10,0X10,0X10,0X10,0X10,0X10,0X10,
//  640 0X10,0X10,0X10,0X10,0X10,0X10,0X10,0X10,0X10,0X10,0X10,0X10,0X10,0X10,0X10,0X10,
//  641 0X10,0X10,0X10,0X10,0X10,0X10,0X10,0X10,0X10,0X10,0X10,0X10,0X10,0X10,0X10,0X10,
//  642 0X10,0X10,0X10,0X10,0X10,0X10,0X10,0X10,0X10,0X10,0X10,0X10,0X10,0X10,0X10,0X10,
//  643 0X10,0X10,0X10,0X10,0X10,0X10,0X10,0X10,0X10,0X10,0X10,0X10,0X10,0X10,0X10,0X10,
//  644 0X10,0X10,0X10,0X10,0X10,0X10,0X10,0X10,0X10,0X10,0X10,0X10,0X10,0X10,0X10,0X10,
//  645 0X10,0X10,0X10,0X10,0X10,0X10,0X10,0X10,0X10,0X10,0X10,0X10,0X10,0X10,0X10,0X10,
//  646 0X10,0X10,0X10,0X10,0X10,0X10,0X10,0X10,0X10,0X10,0X10,0X10,0X10,0X10,0X10,0X10,
//  647 0X10,0X10,0X10,0X10,0X10,0X10,0X10,0X10,0X10,0X10,0X10,0X10,0X10,0X10,0X10,0X10,
//  648 0X10,0X10,0X10,0X10,0X10,0X10,0X10,0X10,0X10,0X10,0X10,0X10,0X10,0X10,0X10,0X10,
//  649 0X10,0X10,0X10,0X10,0X10,0X10,0X10,0X10,0X10,0X10,0X10,0X10,0X10,0X10,0X10,0X10,
//  650 0X10,0X10,0X10,0X10,0X10,0X10,0X10,0X10,0X10,0X10,0X10,0X10,0X10,0X10,0X10,0X10,
//  651 0X10,0X10,0X10,0X10,0X10,0X10,0X10,0X10,0X10,0X10,0X10,0X10,0X10,0X10,0X10,0X10,
//  652 0X10,0X10,0X10,0X10,0X10,0X10,0X10,0X10,0X10,0X10,0X10,0X10,0X10,0X10,0X10,0X10,
//  653 0X10,0X10,0X10,0X10,0X10,0X10,0X10,0X10,0X10,0X10,0X10,0X10,0X10,0X10,0X10,0X10,
//  654 0X10,0X10,0X10,0X10,0X10,0X10,0X10,0X10,0X10,0X10,0X10,0X10,0X10,0X10,0X10,0X10,
//  655 0X10,0X10,0X10,0X10,0X10,0X10,0X10,0X10,0X10,0X10,0X10,0X10,0X10,0X10,0X10,0X10,
//  656 0X10,0X10,0X10,0X10,0X10,0X10,0X10,0X10,0X10,0X10,0X10,0X10,0X10,0X10,0X10,0X10,
//  657 0X10,0X10,0X10,0X10,0X10,0X10,0X10,0X10,0X10,0X10,0X10,0X10,0X10,0X10,0X10,0X10,
//  658 0X10,0X10,0X10,0X10,0X10,0X10,0X10,0X10,0X10,0X10,0X10,0X10,0X10,0X10,0X10,0X10,
//  659 0X10,0X10,0X10,0X10,0X10,0X10,0X10,0X10,0X10,0X10,0X10,0X10,0X10,0X10,0X10,0X10,
//  660 0X10,0X10,0X10,0X10,0X10,0X10,0X10,0X10,0X10,0X10,0X10,0X10,0X10,0X10,0X10,0X10,
//  661 0X10,0X10,0X10,0X10,0X10,0X10,0X10,0X10,0X10,0X10,0X10,0X10,0X10,0X10,0X10,0X10,
//  662 0X10,0X10,0X10,0X10,0X10,0X10,0X10,0X10,0X10,0X10,0X10,0X10,0X10,0X10,0X10,0X10,
//  663 0X10,0X10,0X10,0X10,0X10,0X10,0X10,0X10,0X10,0X10,0X10,0X10,0X10,0X10,0X10,0X10,
//  664 0X10,0X10,0X10,0X10,0X10,0X10,0X10,0X10,0X10,0X10,0X10,0X10,0X10,0X10,0X10,0X10,
//  665 0X10,0X10,0X10,0X10,0X10,0X10,0X10,0X10,0X10,0X10,0X10,0X10,0X10,0X10,0X10,0X10,
//  666 0X10,0X10,0X10,0X10,0X10,0X10,0X10,0X10,0X10,0X10,0X10,0X10,0X10,0X10,0X10,0X10,
//  667 0X10,0X10,0X10,0X10,0X10,0X10,0X10,0X10,0X10,0X10,0X10,0X10,0X10,0X10,0X10,0X10,
//  668 0X10,0X10,0X10,0X10,0X10,0X10,0X10,0X10,0X10,0X10,0X10,0X10,0X10,0X10,0X10,0X10,
//  669 0X10,0X10,0X10,0X10,0X10,0X10,0X10,0X10,0X10,0X10,0X10,0X10,0X10,0X10,0X10,0X10,
//  670 0X10,0X10,0X10,0X10,0X10,0X10,0X10,0X10,0X10,0X10,0X10,0X10,0X10,0X10,0X10,0X10,
//  671 0X10,0X10,0X10,0X10,0X10,0X10,0X10,0X10,0X10,0X10,0X10,0X10,0X10,0X10,0X10,0X10,
//  672 0X10,0X10,0X10,0X10,0X10,0X10,0X10,0X10,0X10,0X10,0X10,0X10,0X10,0X10,0X10,0X10,
//  673 0X10,0X10,0X10,0X10,0X10,0X10,0X10,0X10,0X10,0X10,0X10,0X10,0X10,0X10,0X10,0X10,
//  674 0X10,0X10,0X10,0X10,0X10,0X10,0X10,0X10,0X10,0X10,0X10,0X10,0X10,0X10,0X10,0X10,
//  675 0X10,0X10,0X10,0X10,0X10,0X10,0X10,0X10,0X10,0X10,0X10,0X10,0X10,0X10,0X10,0X10,
//  676 0X10,0X10,0X10,0X10,0X10,0X10,0X10,0X10,0X10,0X10,0X10,0X10,0X10,0X10,0X10,0X10,
//  677 0X10,0X10,0X10,0X10,0X10,0X10,0X10,0X10,0X10,0X10,0X10,0X10,0X10,0X10,0X10,0X10,
//  678 0X10,0X10,0X10,0X10,0X10,0X10,0X10,0X10,0X10,0X10,0X10,0X10,0X10,0X10,0X10,0X10,
//  679 0X10,0X10,0X10,0X10,0X10,0X10,0X10,0X10,0X10,0X10,0X10,0X10,0X10,0X10,0X10,0X10,
//  680 0X10,0X10,0X10,0X10,0X10,0X10,0X10,0X10,0X10,0X10,0X10,0X10,0X10,0X10,0X10,0X10,
//  681 0X10,0X10,0X10,0X10,0X10,0X10,0X10,0X10,0X10,0X10,0X10,0X10,0X10,0X10,0X10,0X10,
//  682 0X10,0X10,0X10,0X10,0X10,0X10,0X10,0X10,0X10,0X10,0X10,0X10,0X10,0X10,0X10,0X10,
//  683 0X10,0X10,0X10,0X10,0X10,0X10,0X10,0X10,0X10,0X10,0X10,0X10,0X10,0X10,0X10,0X10,
//  684 0X10,0X10,0X10,0X10,0X10,0X10,0X10,0X10,0X10,0X10,0X10,0X10,0X10,0X10,0X10,0X10,
//  685 0X10,0X10,0X10,0X10,0X10,0X10,0X10,0X10,0X10,0X10,0X10,0X10,0X10,0X10,0X10,0X10,
//  686 0X10,0X10,0X10,0X10,0X10,0X10,0X10,0X10,0X10,0X10,0X10,0X10,0X10,0X10,0X10,0X10,
//  687 0X10,0X10,0X10,0X10,0X10,0X10,0X10,0X10,0X10,0X10,0X10,0X10,0X10,0X10,0X10,0X10,
//  688 0X10,0X10,0X10,0X10,0X10,0X10,0X10,0X10,0X10,0X10,0X10,0X10,0X10,0X10,0X10,0X10,
//  689 0X10,0X10,0X10,0X10,0X10,0X10,0X10,0X10,0X10,0X10,0X10,0X10,0X10,0X10,0X10,0X10,
//  690 0X10,0X10,0X10,0X10,0X10,0X10,0X10,0X10,0X10,0X10,0X10,0X10,0X10,0X10,0X10,0X10,
//  691 0X10,0X10,0X10,0X10,0X10,0X10,0X10,0X10,0X10,0X10,0X10,0X10,0X10,0X10,0X10,0X10,
//  692 0X10,0X10,0X10,0X10,0X10,0X10,0X10,0X10,0X10,0X10,0X10,0X10,0X10,0X10,0X10,0X10,
//  693 0X10,0X10,0X10,0X10,0X10,0X10,0X10,0X10,0X10,0X10,0X10,0X10,0X10,0X10,0X10,0X10,
//  694 0X10,0X10,0X10,0X10,0X10,0X10,0X10,0X10,0X10,0X10,0X10,0X10,0X10,0X10,0X10,0X10,
//  695 0X10,0X10,0X10,0X10,0X10,0X10,0X10,0X10,0X10,0X10,0X10,0X10,0X10,0X10,0X10,0X10,
//  696 0X10,0X10,0X10,0X10,0X10,0X10,0X10,0X10,0X10,0X10,0X10,0X10,0X10,0X10,0X10,0X10,
//  697 0X10,0X10,0X10,0X10,0X10,0X10,0X10,0X10,0X10,0X10,0X10,0X10,0X10,0X10,0X10,0X10,
//  698 0X10,0X10,0X10,0X10,0X10,0X10,0X10,0X10,0X10,0X10,0X10,0X10,0X10,0X10,0X10,0X10,
//  699 0X10,0X10,0X10,0X10,0X10,0X10,0X10,0X10,0X10,0X10,0X10,0X10,0X10,0X10,0X10,0X10,
//  700 0X10,0X10,0X10,0X10,0X10,0X10,0X10,0X10,0X10,0X10,0X10,0X10,0X10,0X10,0X10,0X10,
//  701 0X10,0X10,0X10,0X10,0X10,0X10,0X10,0X10,0X10,0X10,0X10,0X10,0X10,0X10,0X10,0X10,
//  702 0X10,0X10,0X10,0X10,0X10,0X10,0X10,0X10,0X10,0X10,0X10,0X10,0X10,0X10,0X10,0X10,
//  703 0X10,0X10,0X10,0X10,0X10,0X10,0X10,0X10,0X10,0X10,0X10,0X10,0X10,0X10,0X10,0X10,
//  704 0X10,0X10,0X10,0X10,0X10,0X10,0X10,0X10,0X10,0X10,0X10,0X10,0X10,0X10,0X10,0X10,
//  705 0X10,0X10,0X10,0X10,0X10,0X10,0X10,0X10,0X10,0X10,0X10,0X10,0X10,0X10,0X10,0X10,
//  706 0X10,0X10,0X10,0X10,0X10,0X10,0X10,0X10,0X10,0X10,0X10,0X10,0X10,0X10,0X10,0X10,
//  707 0X10,0X10,0X10,0X10,0X10,0X10,0X10,0X10,0X10,0X10,0X10,0X10,0X10,0X10,0X10,0X10,
//  708 0X10,0X10,0X10,0X10,0X10,0X10,0X10,0X10,0X10,0X10,0X10,0X10,0X10,0X10,0X10,0X10,
//  709 0X10,0X10,0X10,0X10,0X10,0X10,0X10,0X10,0X10,0X10,0X10,0X10,0X10,0X10,0X10,0X10,
//  710 0X10,0X10,0X10,0X10,0X10,0X10,0X10,0X10,0X10,0X10,0X10,0X10,0X10,0X10,0X10,0X10,
//  711 0X10,0X10,0X10,0X10,0X10,0X10,0X10,0X10,0X10,0X10,0X10,0X10,0X10,0X10,0X10,0X10,
//  712 0X10,0X10,0X10,0X10,0X10,0X10,0X10,0X10,0X10,0X10,0X10,0X10,0X10,0X10,0X10,0X10,
//  713 0X10,0X10,0X10,0X10,0X10,0X10,0X10,0X10,0X10,0X10,0X10,0X10,0X10,0X10,0X10,0X10,
//  714 0X10,0X10,0X10,0X10,0X10,0X10,0X10,0X10,0X10,0X10,0X10,0X10,0X10,0X10,0X10,0X10,
//  715 0X10,0X10,0X10,0X10,0X10,0X10,0X10,0X10,0X10,0X10,0X10,0X10,0X10,0X10,0X10,0X10,
//  716 0X10,0X10,0X10,0X10,0X10,0X10,0X10,0X10,0X10,0X10,0X10,0X10,0X10,0X10,0X10,0X10,
//  717 0X10,0X10,0X10,0X10,0X10,0X10,0X10,0X10,0X10,0X10,0X10,0X10,0X10,0X10,0X10,0X10,
//  718 0X10,0X10,0X10,0X10,0X10,0X10,0X10,0X10,0X10,0X10,0X10,0X10,0X10,0X10,0X10,0X10,
//  719 0X10,0X10,0X10,0X10,0X10,0X10,0X10,0X10,0X10,0X10,0X10,0X10,0X10,0X10,0X10,0X10,
//  720 0X10,0X10,0X10,0X10,0X10,0X10,0X10,0X10,0X10,0X10,0X10,0X10,0X10,0X10,0X10,0X10,
//  721 0X10,0X10,0X10,0X10,0X10,0X10,0X10,0X10,0X10,0X10,0X10,0X10,0X10,0X10,0X10,0X10,
//  722 0X10,0X10,0X10,0X10,0X10,0X10,0X10,0X10,0X10,0X10,0X10,0X10,0X10,0X10,0X10,0X10,
//  723 0X10,0X10,0X10,0X10,0X10,0X10,0X10,0X10,0X10,0X10,0X10,0X10,0X10,0X10,0X10,0X10,
//  724 0X10,0X10,0X10,0X10,0X10,0X10,0X10,0X10,0X10,0X10,0X10,0X10,0X10,0X10,0X10,0X10,
//  725 0X10,0X10,0X10,0X10,0X10,0X10,0X10,0X10,0X10,0X10,0X10,0X10,0X10,0X10,0X10,0X10,
//  726 0X10,0X10,0X10,0X10,0X10,0X10,0X10,0X10,0X10,0X10,0X10,0X10,0X10,0X10,0X10,0X10,
//  727 0X10,0X10,0X10,0X10,0X10,0X10,0X10,0X10,0X10,0X10,0X10,0X10,0X10,0X10,0X10,0X10,
//  728 0X10,0X10,0X10,0X10,0X10,0X10,0X10,0X10,0X10,0X10,0X10,0X10,0X10,0X10,0X10,0X10,
//  729 0X10,0X10,0X10,0X10,0X10,0X10,0X10,0X10,0X10,0X10,0X10,0X10,0X10,0X10,0X10,0X10,
//  730 0X10,0X10,0X10,0X10,0X10,0X10,0X10,0X10,0X10,0X10,0X10,0X10,0X10,0X10,0X10,0X10,
//  731 0X10,0X10,0X10,0X10,0X10,0X10,0X10,0X10,0X10,0X10,0X10,0X10,0X10,0X10,0X10,0X10,
//  732 0X10,0X10,0X10,0X10,0X10,0X10,0X10,0X10,0X10,0X10,0X10,0X10,0X10,0X10,0X10,0X10,
//  733 0X10,0X10,0X10,0X10,0X10,0X10,0X10,0X10,0X10,0X10,0X10,0X10,0X10,0X10,0X10,0X10,
//  734 0X10,0X10,0X10,0X10,0X10,0X10,0X10,0X10,0X10,0X10,0X10,0X10,0X10,0X10,0X10,0X10,
//  735 0X10,0X10,0X10,0X10,0X10,0X10,0X10,0X10,0X10,0X10,0X10,0X10,0X10,0X10,0X10,0X10,
//  736 0X10,0X10,0X10,0X10,0X10,0X10,0X10,0X10,0X10,0X10,0X10,0X10,0X10,0X10,0X10,0X10,
//  737 0X10,0X10,0X10,0X10,0X10,0X10,0X10,0X10,0X10,0X10,0X10,0X10,0X10,0X10,0X10,0X10,
//  738 0X10,0X10,0X10,0X10,0X10,0X10,0X10,0X10,0X10,0X10,0X10,0X10,0X10,0X10,0X10,0X10,
//  739 0X10,0X10,0X10,0X10,0X10,0X10,0X10,0X10,0X10,0X10,0X10,0X10,0X10,0X10,0X10,0X10,
//  740 0X10,0X10,0X10,0X10,0X10,0X10,0X10,0X10,0X10,0X10,0X10,0X10,0X10,0X10,0X10,0X10,
//  741 0X10,0X10,0X10,0X10,0X10,0X10,0X10,0X10,0X10,0X10,0X10,0X10,0X10,0X10,0X10,0X10,
//  742 0X10,0X10,0X10,0X10,0X10,0X10,0X10,0X10,0X10,0X10,0X10,0X10,0X10,0X10,0X10,0X10,
//  743 0X10,0X10,0X10,0X10,0X10,0X10,0X10,0X10,0X10,0X10,0X10,0X10,0X10,0X10,0X10,0X10,
//  744 0X10,0X10,0X10,0X10,0X10,0X10,0X10,0X10,0X10,0X10,0X10,0X10,0X10,0X10,0X10,0X10,
//  745 0X10,0X10,0X10,0X10,0X10,0X10,0X10,0X10,0X10,0X10,0X10,0X10,0X10,0X10,0X10,0X10,
//  746 0X10,0X10,0X10,0X10,0X10,0X10,0X10,0X10,0X10,0X10,0X10,0X10,0X10,0X10,0X10,0X10,
//  747 0X10,0X10,0X10,0X10,0X10,0X10,0X10,0X10,0X10,0X10,0X10,0X10,0X10,0X10,0X10,0X10,
//  748 0X10,0X10,0X10,0X10,0X10,0X10,0X10,0X10,0X10,0X10,0X10,0X10,0X10,0X10,0X10,0X10,
//  749 0X10,0X10,0X10,0X10,0X10,0X10,0X10,0X10,0X10,0X10,0X10,0X10,0X10,0X10,0X10,0X10,
//  750 0X10,0X10,0X10,0X10,0X10,0X10,0X10,0X10,0X10,0X10,0X10,0X10,0X10,0X10,0X10,0X10,
//  751 0X10,0X10,0X10,0X10,0X10,0X10,0X10,0X10,0X10,0X10,0X10,0X10,0X10,0X10,0X10,0X10,
//  752 0X10,0X10,0X10,0X10,0X10,0X10,0X10,0X10,0X10,0X10,0X10,0X10,0X10,0X10,0X10,0X10,
//  753 0X10,0X10,0X10,0X10,0X10,0X10,0X10,0X10,0X10,0X10,0X10,0X10,0X10,0X10,0X10,0X10,
//  754 0X10,0X10,0X10,0X10,0X10,0X10,0X10,0X10,0X10,0X10,0X10,0X10,0X10,0X10,0X10,0X10,
//  755 0X10,0X10,0X10,0X10,0X10,0X10,0X10,0X10,0X10,0X10,0X10,0X10,0X10,0X10,0X10,0X10,
//  756 0X10,0X10,0X10,0X10,0X10,0X10,0X10,0X10,0X10,0X10,0X10,0X10,0X10,0X10,0X10,0X10,
//  757 0X10,0X10,0X10,0X10,0X10,0X10,0X10,0X10,0X10,0X10,0X10,0X10,0X10,0X10,0X10,0X10,
//  758 0X10,0X10,0X10,0X10,0X10,0X10,0X10,0X10,0X10,0X10,0X10,0X10,0X10,0X10,0X10,0X10,
//  759 0X10,0X10,0X10,0X10,0X10,0X10,0X10,0X10,0X10,0X10,0X10,0X10,0X10,0X10,0X10,0X10,
//  760 0X10,0X10,0X10,0X10,0X10,0X10,0X10,0X10,0X10,0X10,0X10,0X10,0X10,0X10,0X10,0X10,
//  761 0X10,0X10,0X10,0X10,0X10,0X10,0X10,0X10,0X10,0X10,0X10,0X10,0X10,0X10,0X10,0X10,
//  762 0X10,0X10,0X10,0X10,0X10,0X10,0X10,0X10,0X10,0X10,0X10,0X10,0X10,0X10,0X10,0X10,
//  763 0X10,0X10,0X10,0X10,0X10,0X10,0X10,0X10,0X10,0X10,0X10,0X10,0X10,0X10,0X10,0X10,
//  764 0X10,0X10,0X10,0X10,0X10,0X10,0X10,0X10,0X10,0X10,0X10,0X10,0X10,0X10,0X10,0X10,
//  765 0X10,0X10,0X10,0X10,0X10,0X10,0X10,0X10,0X10,0X10,0X10,0X10,0X10,0X10,0X10,0X10,
//  766 0X10,0X10,0X10,0X10,0X10,0X10,0X10,0X10,0X10,0X10,0X10,0X10,0X10,0X10,0X10,0X10,
//  767 0X10,0X10,0X10,0X10,0X10,0X10,0X10,0X10,0X10,0X10,0X10,0X10,0X10,0X10,0X10,0X10,
//  768 0X10,0X10,0X10,0X10,0X10,0X10,0X10,0X10,0X10,0X10,0X10,0X10,0X10,0X10,0X10,0X10,
//  769 0X10,0X10,0X10,0X10,0X10,0X10,0X10,0X10,0X10,0X10,0X10,0X10,0X10,0X10,0X10,0X10,
//  770 0X10,0X10,0X10,0X10,0X10,0X10,0X10,0X10,0X10,0X10,0X10,0X10,0X10,0X10,0X10,0X10,
//  771 0X10,0X10,0X10,0X10,0X10,0X10,0X10,0X10,0X10,0X10,0X10,0X10,0X10,0X10,0X10,0X10,
//  772 0X10,0X10,0X10,0X10,0X10,0X10,0X10,0X10,0X10,0X10,0X10,0X10,0X10,0X10,0X10,0X10,
//  773 0X10,0X10,0X10,0X10,0X10,0X10,0X10,0X10,0X10,0X10,0X10,0X10,0X10,0X10,0X10,0X10,
//  774 0X10,0X10,0X10,0X10,0X10,0X10,0X10,0X10,0X10,0X10,0X10,0X10,0X10,0X10,0X10,0X10,
//  775 0X10,0X10,0X10,0X10,0X10,0X10,0X10,0X10,0X10,0X10,0X10,0X10,0X10,0X10,0X10,0X10,
//  776 0X10,0X10,0X10,0X10,0X10,0X10,0X10,0X10,0X10,0X10,0X10,0X10,0X10,0X10,0X10,0X10,
//  777 0X10,0X10,0X10,0X10,0X10,0X10,0X10,0X10,0X10,0X10,0X10,0X10,0X10,0X10,0X10,0X10,
//  778 0X10,0X10,0X10,0X10,0X10,0X10,0X10,0X10,0X10,0X10,0X10,0X10,0X10,0X10,0X10,0X10,
//  779 0X10,0X10,0X10,0X10,0X10,0X10,0X10,0X10,0X10,0X10,0X10,0X10,0X10,0X10,0X10,0X10,
//  780 0X10,0X10,0X10,0X10,0X10,0X10,0X10,0X10,0X10,0X10,0X10,0X10,0X10,0X10,0X10,0X10,
//  781 0X10,0X10,0X10,0X10,0X10,0X10,0X10,0X10,0X10,0X10,0X10,0X10,0X10,0X10,0X10,0X10,
//  782 0X10,0X10,0X10,0X10,0X10,0X10,0X10,0X10,0X10,0X10,0X10,0X10,0X10,0X10,0X10,0X10,
//  783 0X10,0X10,0X10,0X10,0X10,0X10,0X10,0X10,0X10,0X10,0X10,0X10,0X10,0X10,0X10,0X10,
//  784 0X10,0X10,0X10,0X10,0X10,0X10,0X10,0X10,0X10,0X10,0X10,0X10,0X10,0X10,0X10,0X10,
//  785 0X10,0X10,0X10,0X10,0X10,0X10,0X10,0X10,0X10,0X10,0X10,0X10,0X10,0X10,0X10,0X10,
//  786 0X10,0X10,0X10,0X10,0X10,0X10,0X10,0X10,0X10,0X10,0X10,0X10,0X10,0X10,0X10,0X10,
//  787 0X10,0X10,0X10,0X10,0X10,0X10,0X10,0X10,0X10,0X10,0X10,0X10,0X10,0X10,0X10,0X10,
//  788 0X10,0X10,0X10,0X10,0X10,0X10,0X10,0X10,0X10,0X10,0X10,0X10,0X10,0X10,0X10,0X10,
//  789 0X10,0X10,0X10,0X10,0X10,0X10,0X10,0X10,0X10,0X10,0X10,0X10,0X10,0X10,0X10,0X10,
//  790 0X10,0X10,0X10,0X10,0X10,0X10,0X10,0X10,0X10,0X10,0X10,0X10,0X10,0X10,0X10,0X10,
//  791 0X10,0X10,0X10,0X10,0X10,0X10,0X10,0X10,0X10,0X10,0X10,0X10,0X10,0X10,0X10,0X10,
//  792 0X10,0X10,0X10,0X10,0X10,0X10,0X10,0X10,0X10,0X10,0X10,0X10,0X10,0X10,0X10,0X10,
//  793 0X10,0X10,0X10,0X10,0X10,0X10,0X10,0X10,0X10,0X10,0X10,0X10,0X10,0X10,0X10,0X10,
//  794 0X10,0X10,0X10,0X10,0X10,0X10,0X10,0X10,0X10,0X10,0X10,0X10,0X10,0X10,0X10,0X10,
//  795 0X10,0X10,0X10,0X10,0X10,0X10,0X10,0X10,0X10,0X10,0X10,0X10,0X10,0X10,0X10,0X10,
//  796 0X10,0X10,0X10,0X10,0X10,0X10,0X10,0X10,0X10,0X10,0X10,0X10,0X10,0X10,0X10,0X10,
//  797 0X10,0X10,0X10,0X10,0X10,0X10,0X10,0X10,0X10,0X10,0X10,0X10,0X10,0X10,0X10,0X10,
//  798 0X10,0X10,0X10,0X10,0X10,0X10,0X10,0X10,0X10,0X10,0X10,0X10,0X10,0X10,0X10,0X10,
//  799 0X10,0X10,0X10,0X10,0X10,0X10,0X10,0X10,0X10,0X10,0X10,0X10,0X10,0X10,0X10,0X10,
//  800 0X10,0X10,0X10,0X10,0X10,0X10,0X10,0X10,0X10,0X10,0X10,0X10,0X10,0X10,0X10,0X10,
//  801 0X10,0X10,0X10,0X10,0X10,0X10,0X10,0X10,0X10,0X10,0X10,0X10,0X10,0X10,0X10,0X10,
//  802 0X10,0X10,0X10,0X10,0X10,0X10,0X10,0X10,0X10,0X10,0X10,0X10,0X10,0X10,0X10,0X10,
//  803 0X10,0X10,0X10,0X10,0X10,0X10,0X10,0X10,0X10,0X10,0X10,0X10,0X10,0X10,0X10,0X10,
//  804 0X10,0X10,0X10,0X10,0X10,0X10,0X10,0X10,0X10,0X10,0X10,0X10,0X10,0X10,0X10,0X10,
//  805 0X10,0X10,0X10,0X10,0X10,0X10,0X10,0X10,0X10,0X10,0X10,0X10,0X10,0X10,0X10,0X10,
//  806 0X10,0X10,0X10,0X10,0X10,0X10,0X10,0X10,0X10,0X10,0X10,0X10,0X10,0X10,0X10,0X10,
//  807 0X10,0X10,0X10,0X10,0X10,0X10,0X10,0X10,0X10,0X10,0X10,0X10,0X10,0X10,0X10,0X10,
//  808 0X10,0X10,0X10,0X10,0X10,0X10,0X10,0X10,0X10,0X10,0X10,0X10,0X10,0X10,0X10,0X10,
//  809 0X10,0X10,0X10,0X10,0X10,0X10,0X10,0X10,0X10,0X10,0X10,0X10,0X10,0X10,0X10,0X10,
//  810 0X10,0X10,0X10,0X10,0X10,0X10,0X10,0X10,0X10,0X10,0X10,0X10,0X10,0X10,0X10,0X10,
//  811 0X10,0X10,0X10,0X10,0X10,0X10,0X10,0X10,0X10,0X10,0X10,0X10,0X10,0X10,0X10,0X10,
//  812 0X10,0X10,0X10,0X10,0X10,0X10,0X10,0X10,0X10,0X10,0X10,0X10,0X10,0X10,0X10,0X10,
//  813 0X10,0X10,0X10,0X10,0X10,0X10,0X10,0X10,0X10,0X10,0X10,0X10,0X10,0X10,0X10,0X10,
//  814 0X10,0X10,0X10,0X10,0X10,0X10,0X10,0X10,0X10,0X10,0X10,0X10,0X10,0X10,0X10,0X10,
//  815 0X10,0X10,0X10,0X10,0X10,0X10,0X10,0X10,0X10,0X10,0X10,0X10,0X10,0X10,0X10,0X10,
//  816 0X10,0X10,0X10,0X10,0X10,0X10,0X10,0X10,0X10,0X10,0X10,0X10,0X10,0X10,0X10,0X10,
//  817 0X10,0X10,0X10,0X10,0X10,0X10,0X10,0X10,0X10,0X10,0X10,0X10,0X10,0X10,0X10,0X10,
//  818 0X10,0X10,0X10,0X10,0X10,0X10,0X10,0X10,0X10,0X10,0X10,0X10,0X10,0X10,0X10,0X10,
//  819 0X10,0X10,0X10,0X10,0X10,0X10,0X10,0X10,0X10,0X10,0X10,0X10,0X10,0X10,0X10,0X10,
//  820 0X10,0X10,0X10,0X10,0X10,0X10,0X10,0X10,0X10,0X10,0X10,0X10,0X10,0X10,0X10,0X10,
//  821 0X10,0X10,0X10,0X10,0X10,0X10,0X10,0X10,0X10,0X10,0X10,0X10,0X10,0X10,0X10,0X10,
//  822 0X10,0X10,0X10,0X10,0X10,0X10,0X10,0X10,0X10,0X10,0X10,0X10,0X10,0X10,0X10,0X10,
//  823 0X10,0X10,0X10,0X10,0X10,0X10,0X10,0X10,0X10,0X10,0X10,0X10,0X10,0X10,0X10,0X10,
//  824 0X10,0X10,0X10,0X10,0X10,0X10,0X10,0X10,0X10,0X10,0X10,0X10,0X10,0X10,0X10,0X10,
//  825 0X10,0X10,0X10,0X10,0X10,0X10,0X10,0X10,0X10,0X10,0X10,0X10,0X10,0X10,0X10,0X10,
//  826 0X10,0X10,0X10,0X10,0X10,0X10,0X10,0X10,0X10,0X10,0X10,0X10,0X10,0X10,0X10,0X10,
//  827 0X10,0X10,0X10,0X10,0X10,0X10,0X10,0X10,0X10,0X10,0X10,0X10,0X10,0X10,0X10,0X10,
//  828 0X10,0X10,0X10,0X10,0X10,0X10,0X10,0X10,0X10,0X10,0X10,0X10,0X10,0X10,0X10,0X10,
//  829 0X10,0X10,0X10,0X10,0X10,0X10,0X10,0X10,0X10,0X10,0X10,0X10,0X10,0X10,0X10,0X10,
//  830 0X10,0X10,0X10,0X10,0X10,0X10,0X10,0X10,0X10,0X10,0X10,0X10,0X10,0X10,0X10,0X10,
//  831 0X10,0X10,0X10,0X10,0X10,0X10,0X10,0X10,0X10,0X10,0X10,0X10,0X10,0X10,0X10,0X10,
//  832 0X10,0X10,0X10,0X10,0X10,0X10,0X10,0X10,0X10,0X10,0X10,0X10,0X10,0X10,0X10,0X10,
//  833 0X10,0X10,0X10,0X10,0X10,0X10,0X10,0X10,0X10,0X10,0X10,0X10,0X10,0X10,0X10,0X10,
//  834 0X10,0X10,0X10,0X10,0X10,0X10,0X10,0X10,0X10,0X10,0X10,0X10,0X10,0X10,0X10,0X10,
//  835 0X10,0X10,0X10,0X10,0X10,0X10,0X10,0X10,0X10,0X10,0X10,0X10,0X10,0X10,0X10,0X10,
//  836 0X10,0X10,0X10,0X10,0X10,0X10,0X10,0X10,0X10,0X10,0X10,0X10,0X10,0X10,0X10,0X10,
//  837 0X10,0X10,0X10,0X10,0X10,0X10,0X10,0X10,0X10,0X10,0X10,0X10,0X10,0X10,0X10,0X10,
//  838 0X10,0X10,0X10,0X10,0X10,0X10,0X10,0X10,0X10,0X10,0X10,0X10,0X10,0X10,0X10,0X10,
//  839 0X10,0X10,0X10,0X10,0X10,0X10,0X10,0X10,0X10,0X10,0X10,0X10,0X10,0X10,0X10,0X10,
//  840 0X10,0X10,0X10,0X10,0X10,0X10,0X10,0X10,0X10,0X10,0X10,0X10,0X10,0X10,0X10,0X10,
//  841 0X10,0X10,0X10,0X10,0X10,0X10,0X10,0X10,0X10,0X10,0X10,0X10,0X10,0X10,0X10,0X10,
//  842 0X10,0X10,0X10,0X10,0X10,0X10,0X10,0X10,0X10,0X10,0X10,0X10,0X10,0X10,0X10,0X10,
//  843 0X10,0X10,0X10,0X10,0X10,0X10,0X10,0X10,0X10,0X10,0X10,0X10,0X10,0X10,0X10,0X10,
//  844 0X10,0X10,0X10,0X10,0X10,0X10,0X10,0X10,0X10,0X10,0X10,0X10,0X10,0X10,0X10,0X10,
//  845 0X10,0X10,0X10,0X10,0X10,0X10,0X10,0X10,0X10,0X10,0X10,0X10,0X10,0X10,0X10,0X10,
//  846 0X10,0X10,0X10,0X10,0X10,0X10,0X10,0X10,0X10,0X10,0X10,0X10,0X10,0X10,0X10,0X10,
//  847 0X10,0X10,0X10,0X10,0X10,0X10,0X10,0X10,0X10,0X10,0X10,0X10,0X10,0X10,0X10,0X10,
//  848 0X10,0X10,0X10,0X10,0X10,0X10,0X10,0X10,0X10,0X10,0X10,0X10,0X10,0X10,0X10,0X10,
//  849 0X10,0X10,0X10,0X10,0X10,0X10,0X10,0X10,0X10,0X10,0X10,0X10,0X10,0X10,0X10,0X10,
//  850 0X10,0X10,0X10,0X10,0X10,0X10,0X10,0X10,0X10,0X10,0X10,0X10,0X10,0X10,0X10,0X10,
//  851 0X10,0X10,0X10,0X10,0X10,0X10,0X10,0X10,0X10,0X10,0X10,0X10,0X10,0X10,0X10,0X10,
//  852 0X10,0X10,0X10,0X10,0X10,0X10,0X10,0X10,0X10,0X10,0X10,0X10,0X10,0X10,0X10,0X10,
//  853 0X10,0X10,0X10,0X10,0X10,0X10,0X10,0X10,0X10,0X10,0X10,0X10,0X10,0X10,0X10,0X10,
//  854 0X10,0X10,0X10,0X10,0X10,0X10,0X10,0X10,0X10,0X10,0X10,0X10,0X10,0X10,0X10,0X10,
//  855 0X10,0X10,0X10,0X10,0X10,0X10,0X10,0X10,0X10,0X10,0X10,0X10,0X10,0X10,0X10,0X10,
//  856 0X10,0X10,0X10,0X10,0X10,0X10,0X10,0X10,0X10,0X10,0X10,0X10,0X10,0X10,0X10,0X10,
//  857 0X10,0X10,0X10,0X10,0X10,0X10,0X10,0X10,0X10,0X10,0X10,0X10,0X10,0X10,0X10,0X10,
//  858 0X10,0X10,0X10,0X10,0X10,0X10,0X10,0X10,0X10,0X10,0X10,0X10,0X10,0X10,0X10,0X10,
//  859 0X10,0X10,0X10,0X10,0X10,0X10,0X10,0X10,0X10,0X10,0X10,0X10,0X10,0X10,0X10,0X10,
//  860 0X10,0X10,0X10,0X10,0X10,0X10,0X10,0X10,0X10,0X10,0X10,0X10,0X10,0X10,0X10,0X10,
//  861 0X10,0X10,0X10,0X10,0X10,0X10,0X10,0X10,0X10,0X10,0X10,0X10,0X10,0X10,0X10,0X10,
//  862 0X10,0X10,0X10,0X10,0X10,0X10,0X10,0X10,0X10,0X10,0X10,0X10,0X10,0X10,0X10,0X10,
//  863 0X10,0X10,0X10,0X10,0X10,0X10,0X10,0X10,0X10,0X10,0X10,0X10,0X10,0X10,0X10,0X10,
//  864 0X10,0X10,0X10,0X10,0X10,0X10,0X10,0X10,0X10,0X10,0X10,0X10,0X10,0X10,0X10,0X10,
//  865 0X10,0X10,0X10,0X10,0X10,0X10,0X10,0X10,0X10,0X10,0X10,0X10,0X10,0X10,0X10,0X10,
//  866 0X10,0X10,0X10,0X10,0X10,0X10,0X10,0X10,0X10,0X10,0X10,0X10,0X10,0X10,0X10,0X10,
//  867 0X10,0X10,0X10,0X10,0X10,0X10,0X10,0X10,0X10,0X10,0X10,0X10,0X10,0X10,0X10,0X10,
//  868 0X10,0X10,0X10,0X10,0X10,0X10,0X10,0X10,0X10,0X10,0X10,0X10,0X10,0X10,0X10,0X10,
//  869 0X10,0X10,0X10,0X10,0X10,0X10,0X10,0X10,0X10,0X10,0X10,0X10,0X10,0X10,0X10,0X10,
//  870 0X10,0X10,0X10,0X10,0X10,0X10,0X10,0X10,0X10,0X10,0X10,0X10,0X10,0X10,0X10,0X10,
//  871 0X10,0X10,0X10,0X10,0X10,0X10,0X10,0X10,0X10,0X10,0X10,0X10,0X10,0X10,0X10,0X10,
//  872 0X10,0X10,0X10,0X10,0X10,0X10,0X10,0X10,0X10,0X10,0X10,0X10,0X10,0X10,0X10,0X10,
//  873 0X10,0X10,0X10,0X10,0X10,0X10,0X10,0X10,0X10,0X10,0X10,0X10,0X10,0X10,0X10,0X10,
//  874 0X10,0X10,0X10,0X10,0X10,0X10,0X10,0X10,0X10,0X10,0X10,0X10,0X10,0X10,0X10,0X10,
//  875 0X10,0X10,0X10,0X10,0X10,0X10,0X10,0X10,0X10,0X10,0X10,0X10,0X10,0X10,0X10,0X10,
//  876 0X10,0X10,0X10,0X10,0X10,0X10,0X10,0X10,0X10,0X10,0X10,0X10,0X10,0X10,0X10,0X10,
//  877 0X10,0X10,0X10,0X10,0X10,0X10,0X10,0X10,0X10,0X10,0X10,0X10,0X10,0X10,0X10,0X10,
//  878 0X10,0X10,0X10,0X10,0X10,0X10,0X10,0X10,0X10,0X10,0X10,0X10,0X10,0X10,0X10,0X10,
//  879 0X10,0X10,0X10,0X10,0X10,0X10,0X10,0X10,0X10,0X10,0X10,0X10,0X10,0X10,0X10,0X10,
//  880 0X10,0X10,0X10,0X10,0X10,0X10,0X10,0X10,0X10,0X10,0X10,0X10,0X10,0X10,0X10,0X10,
//  881 0X10,0X10,0X10,0X10,0X10,0X10,0X10,0X10,0X10,0X10,0X10,0X10,0X10,0X10,0X10,0X10,
//  882 0X10,0X10,0X10,0X10,0X10,0X10,0X10,0X10,0X10,0X10,0X10,0X10,0X10,0X10,0X10,0X10,
//  883 0X10,0X10,0X10,0X10,0X10,0X10,0X10,0X10,0X10,0X10,0X10,0X10,0X10,0X10,0X10,0X10,
//  884 0X10,0X10,0X10,0X10,0X10,0X10,0X10,0X10,0X10,0X10,0X10,0X10,0X10,0X10,0X10,0X10,
//  885 0X10,0X10,0X10,0X10,0X10,0X10,0X10,0X10,0X10,0X10,0X10,0X10,0X10,0X10,0X10,0X10,
//  886 0X10,0X10,0X10,0X10,0X10,0X10,0X10,0X10,0X10,0X10,0X10,0X10,0X10,0X10,0X10,0X10,
//  887 0X10,0X10,0X10,0X10,0X10,0X10,0X10,0X10,0X10,0X10,0X10,0X10,0X10,0X10,0X10,0X10,
//  888 0X10,0X10,0X10,0X10,0X10,0X10,0X10,0X10,0X10,0X10,0X10,0X10,0X10,0X10,0X10,0X10,
//  889 0X10,0X10,0X10,0X10,0X10,0X10,0X10,0X10,0X10,0X10,0X10,0X10,0X10,0X10,0X10,0X10,
//  890 0X10,0X10,0X10,0X10,0X10,0X10,0X10,0X10,0X10,0X10,0X10,0X10,0X10,0X10,0X10,0X10,
//  891 0X10,0X10,0X10,0X10,0X10,0X10,0X10,0X10,0X10,0X10,0X10,0X10,0X10,0X10,0X10,0X10,
//  892 0X10,0X10,0X10,0X10,0X10,0X10,0X10,0X10,0X10,0X10,0X10,0X10,0X10,0X10,0X10,0X10,
//  893 0X10,0X10,0X10,0X10,0X10,0X10,0X10,0X10,0X10,0X10,0X10,0X10,0X10,0X10,0X10,0X10,
//  894 0X10,0X10,0X10,0X10,0X10,0X10,0X10,0X10,0X10,0X10,0X10,0X10,0X10,0X10,0X10,0X10,
//  895 0X10,0X10,0X10,0X10,0X10,0X10,0X10,0X10,0X10,0X10,0X10,0X10,0X10,0X10,0X10,0X10,
//  896 0X10,0X10,0X10,0X10,0X10,0X10,0X10,0X10,0X10,0X10,0X10,0X10,0X10,0X10,0X10,0X10,
//  897 0X10,0X10,0X10,0X10,0X10,0X10,0X10,0X10,0X10,0X10,0X10,0X10,0X10,0X10,0X10,0X10,
//  898 0X10,0X10,0X10,0X10,0X10,0X10,0X10,0X10,0X10,0X10,0X10,0X10,0X10,0X10,0X10,0X10,
//  899 0X10,0X10,0X10,0X10,0X10,0X10,0X10,0X10,0X10,0X10,0X10,0X10,0X10,0X10,0X10,0X10,
//  900 0X10,0X10,0X10,0X10,0X10,0X10,0X10,0X10,0X10,0X10,0X10,0X10,0X10,0X10,0X10,0X10,
//  901 0X10,0X10,0X10,0X10,0X10,0X10,0X10,0X10,0X10,0X10,0X10,0X10,0X10,0X10,0X10,0X10,
//  902 0X10,0X10,0X10,0X10,0X10,0X10,0X10,0X10,0X10,0X10,0X10,0X10,0X10,0X10,0X10,0X10,
//  903 0X10,0X10,0X10,0X10,0X10,0X10,0X10,0X10,0X10,0X10,0X10,0X10,0X10,0X10,0X10,0X10,
//  904 0X10,0X10,0X10,0X10,0X10,0X10,0X10,0X10,0X10,0X10,0X10,0X10,0X10,0X10,0X10,0X10,
//  905 0X10,0X10,0X10,0X10,0X10,0X10,0X10,0X10,0X10,0X10,0X10,0X10,0X10,0X10,0X10,0X10,
//  906 0X10,0X10,0X10,0X10,0X10,0X10,0X10,0X10,0X10,0X10,0X10,0X10,0X10,0X10,0X10,0X10,
//  907 0X10,0X10,0X10,0X10,0X10,0X10,0X10,0X10,0X10,0X10,0X10,0X10,0X10,0X10,0X10,0X10,
//  908 0X10,0X10,0X10,0X10,0X10,0X10,0X10,0X10,0X10,0X10,0X10,0X10,0X10,0X10,0X10,0X10,
//  909 0X10,0X10,0X10,0X10,0X10,0X10,0X10,0X10,0X10,0X10,0X10,0X10,0X10,0X10,0X10,0X10,
//  910 0X10,0X10,0X10,0X10,0X10,0X10,0X10,0X10,0X10,0X10,0X10,0X10,0X10,0X10,0X10,0X10,
//  911 0X10,0X10,0X10,0X10,0X10,0X10,0X10,0X10,0X10,0X10,0X10,0X10,0X10,0X10,0X10,0X10,
//  912 0X10,0X10,0X10,0X10,0X10,0X10,0X10,0X10,0X10,0X10,0X10,0X10,0X10,0X10,0X10,0X10,
//  913 0X10,0X10,0X10,0X10,0X10,0X10,0X10,0X10,0X10,0X10,0X10,0X10,0X10,0X10,0X10,0X10,
//  914 0X10,0X10,0X10,0X10,0X10,0X10,0X10,0X10,0X10,0X10,0X10,0X10,0X10,0X10,0X10,0X10,
//  915 0X10,0X10,0X10,0X10,0X10,0X10,0X10,0X10,0X10,0X10,0X10,0X10,0X10,0X10,0X10,0X10,
//  916 0X10,0X10,0X10,0X10,0X10,0X10,0X10,0X10,0X10,0X10,0X10,0X10,0X10,0X10,0X10,0X10,
//  917 0X10,0X10,0X10,0X10,0X10,0X10,0X10,0X10,0X10,0X10,0X10,0X10,0X10,0X10,0X10,0X10,
//  918 0X10,0X10,0X10,0X10,0X10,0X10,0X10,0X10,0X10,0X10,0X10,0X10,0X10,0X10,0X10,0X10,
//  919 0X10,0X10,0X10,0X10,0X10,0X10,0X10,0X10,0X10,0X10,0X10,0X10,0X10,0X10,0X10,0X10,
//  920 0X10,0X10,0X10,0X10,0X10,0X10,0X10,0X10,0X10,0X10,0X10,0X10,0X10,0X10,0X10,0X10,
//  921 0X10,0X10,0X10,0X10,0X10,0X10,0X10,0X10,0X10,0X10,0X10,0X10,0X10,0X10,0X10,0X10,
//  922 0X10,0X10,0X10,0X10,0X10,0X10,0X10,0X10,0X10,0X10,0X10,0X10,0X10,0X10,0X10,0X10,
//  923 0X10,0X10,0X10,0X10,0X10,0X10,0X10,0X10,0X10,0X10,0X10,0X10,0X10,0X10,0X10,0X10,
//  924 0X10,0X10,0X10,0X10,0X10,0X10,0X10,0X10,0X10,0X10,0X10,0X10,0X10,0X10,0X10,0X10,
//  925 0X10,0X10,0X10,0X10,0X10,0X10,0X10,0X10,0X10,0X10,0X10,0X10,0X10,0X10,0X10,0X10,
//  926 0X10,0X10,0X10,0X10,0X10,0X10,0X10,0X10,0X10,0X10,0X10,0X10,0X10,0X10,0X10,0X10,
//  927 0X10,0X10,0X10,0X10,0X10,0X10,0X10,0X10,0X10,0X10,0X10,0X10,0X10,0X10,0X10,0X10,
//  928 0X10,0X10,0X10,0X10,0X10,0X10,0X10,0X10,0X10,0X10,0X10,0X10,0X10,0X10,0X10,0X10,
//  929 0X10,0X10,0X10,0X10,0X10,0X10,0X10,0X10,0X10,0X10,0X10,0X10,0X10,0X10,0X10,0X10,
//  930 0X10,0X10,0X10,0X10,0X10,0X10,0X10,0X10,0X10,0X10,0X10,0X10,0X10,0X10,0X10,0X10,
//  931 0X10,0X10,0X10,0X10,0X10,0X10,0X10,0X10,0X10,0X10,0X10,0X10,0X10,0X10,0X10,0X10,
//  932 0X10,0X10,0X10,0X10,0X10,0X10,0X10,0X10,0X10,0X10,0X10,0X10,0X10,0X10,0X10,0X10,
//  933 0X10,0X10,0X10,0X10,0X10,0X10,0X10,0X10,0X10,0X10,0X10,0X10,0X10,0X10,0X10,0X10,
//  934 0X10,0X10,0X10,0X10,0X10,0X10,0X10,0X10,0X10,0X10,0X10,0X10,0X10,0X10,0X10,0X10,
//  935 0X10,0X10,0X10,0X10,0X10,0X10,0X10,0X10,0X10,0X10,0X10,0X10,0X10,0X10,0X10,0X10,
//  936 0X10,0X10,0X10,0X10,0X10,0X10,0X10,0X10,0X10,0X10,0X10,0X10,0X10,0X10,0X10,0X10,
//  937 0X10,0X10,0X10,0X10,0X10,0X10,0X10,0X10,0X10,0X10,0X10,0X10,0X10,0X10,0X10,0X10,
//  938 0X10,0X10,0X10,0X10,0X10,0X10,0X10,0X10,0X10,0X10,0X10,0X10,0X10,0X10,0X10,0X10,
//  939 0X10,0X10,0X10,0X10,0X10,0X10,0X10,0X10,0X10,0X10,0X10,0X10,0X10,0X10,0X10,0X10,
//  940 0X10,0X10,0X10,0X10,0X10,0X10,0X10,0X10,0X10,0X10,0X10,0X10,0X10,0X10,0X10,0X10,
//  941 0X10,0X10,0X10,0X10,0X10,0X10,0X10,0X10,0X10,0X10,0X10,0X10,0X10,0X10,0X10,0X10,
//  942 0X10,0X10,0X10,0X10,0X10,0X10,0X10,0X10,0X10,0X10,0X10,0X10,0X10,0X10,0X10,0X10,
//  943 0X10,0X10,0X10,0X10,0X10,0X10,0X10,0X10,0X10,0X10,0X10,0X10,0X10,0X10,0X10,0X10,
//  944 0X10,0X10,0X10,0X10,0X10,0X10,0X10,0X10,0X10,0X10,0X10,0X10,0X10,0X10,0X10,0X10,
//  945 0X10,0X10,0X10,0X10,0X10,0X10,0X10,0X10,0X10,0X10,0X10,0X10,0X10,0X10,0X10,0X10,
//  946 0X10,0X10,0X10,0X10,0X10,0X10,0X10,0X10,0X10,0X10,0X10,0X10,0X10,0X10,0X10,0X10,
//  947 0X10,0X10,0X10,0X10,0X10,0X10,0X10,0X10,0X10,0X10,0X10,0X10,0X10,0X10,0X10,0X10,
//  948 0X10,0X10,0X10,0X10,0X10,0X10,0X10,0X10,0X10,0X10,0X10,0X10,0X10,0X10,0X10,0X10,
//  949 0X10,0X10,0X10,0X10,0X10,0X10,0X10,0X10,0X10,0X10,0X10,0X10,0X10,0X10,0X10,0X10,
//  950 0X10,0X10,0X10,0X10,0X10,0X10,0X10,0X10,0X10,0X10,0X10,0X10,0X10,0X10,0X10,0X10,
//  951 0X10,0X10,0X10,0X10,0X10,0X10,0X10,0X10,0X10,0X10,0X10,0X10,0X10,0X10,0X10,0X10,
//  952 0X10,0X10,0X10,0X10,0X10,0X10,0X10,0X10,0X10,0X10,0X10,0X10,0X10,0X10,0X10,0X10,
//  953 0X10,0X10,0X10,0X10,0X10,0X10,0X10,0X10,0X10,0X10,0X10,0X10,0X10,0X10,0X10,0X10,
//  954 0X10,0X10,0X10,0X10,0X10,0X10,0X10,0X10,0X10,0X10,0X10,0X10,0X10,0X10,0X10,0X10,
//  955 0X10,0X10,0X10,0X10,0X10,0X10,0X10,0X10,0X10,0X10,0X10,0X10,0X10,0X10,0X10,0X10,
//  956 0X10,0X10,0X10,0X10,0X10,0X10,0X10,0X10,0X10,0X10,0X10,0X10,0X10,0X10,0X10,0X10,
//  957 0X10,0X10,0X10,0X10,0X10,0X10,0X10,0X10,0X10,0X10,0X10,0X10,0X10,0X10,0X10,0X10,
//  958 0X10,0X10,0X10,0X10,0X10,0X10,0X10,0X10,0X10,0X10,0X10,0X10,0X10,0X10,0X10,0X10,
//  959 0X10,0X10,0X10,0X10,0X10,0X10,0X10,0X10,0X10,0X10,0X10,0X10,0X10,0X10,0X10,0X10,
//  960 0X10,0X10,0X10,0X10,0X10,0X10,0X10,0X10,0X10,0X10,0X10,0X10,0X10,0X10,0X10,0X10,
//  961 0X10,0X10,0X10,0X10,0X10,0X10,0X10,0X10,0X10,0X10,0X10,0X10,0X10,0X10,0X10,0X10,
//  962 0X10,0X10,0X10,0X10,0X10,0X10,0X10,0X10,0X10,0X10,0X10,0X10,0X10,0X10,0X10,0X10,
//  963 0X10,0X10,0X10,0X10,0X10,0X10,0X10,0X10,0X10,0X10,0X10,0X10,0X10,0X10,0X10,0X10,
//  964 0X10,0X10,0X10,0X10,0X10,0X10,0X10,0X10,0X10,0X10,0X10,0X10,0X10,0X10,0X10,0X10,
//  965 0X10,0X10,0X10,0X10,0X10,0X10,0X10,0X10,0X10,0X10,0X10,0X10,0X10,0X10,0X10,0X10,
//  966 0X10,0X10,0X10,0X10,0X10,0X10,0X10,0X10,0X10,0X10,0X10,0X10,0X10,0X10,0X10,0X10,
//  967 0X10,0X10,0X10,0X10,0X10,0X10,0X10,0X10,0X10,0X10,0X10,0X10,0X10,0X10,0X10,0X10,
//  968 0X10,0X10,0X10,0X10,0X10,0X10,0X10,0X10,0X10,0X10,0X10,0X10,0X10,0X10,0X10,0X10,
//  969 0X10,0X10,0X10,0X10,0X10,0X10,0X10,0X10,0X10,0X10,0X10,0X10,0X10,0X10,0X10,0X10,
//  970 0X10,0X10,0X10,0X10,0X10,0X10,0X10,0X10,0X10,0X10,0X10,0X10,0X10,0X10,0X10,0X10,
//  971 0X10,0X10,0X10,0X10,0X10,0X10,0X10,0X10,0X10,0X10,0X10,0X10,0X10,0X10,0X10,0X10,
//  972 0X10,0X10,0X10,0X10,0X10,0X10,0X10,0X10,0X10,0X10,0X10,0X10,0X10,0X10,0X10,0X10,
//  973 0X10,0X10,0X10,0X10,0X10,0X10,0X10,0X10,0X10,0X10,0X10,0X10,0X10,0X10,0X10,0X10,
//  974 0X10,0X10,0X10,0X10,0X10,0X10,0X10,0X10,0X10,0X10,0X10,0X10,0X10,0X10,0X10,0X10,
//  975 0X10,0X10,0X10,0X10,0X10,0X10,0X10,0X10,0X10,0X10,0X10,0X10,0X10,0X10,0X10,0X10,
//  976 0X10,0X10,0X10,0X10,0X10,0X10,0X10,0X10,0X10,0X10,0X10,0X10,0X10,0X10,0X10,0X10,
//  977 0X10,0X10,0X10,0X10,0X10,0X10,0X10,0X10,0X10,0X10,0X10,0X10,0X10,0X10,0X10,0X10,
//  978 0X10,0X10,0X10,0X10,0X10,0X10,0X10,0X10,0X10,0X10,0X10,0X10,0X10,0X10,0X10,0X10,
//  979 0X10,0X10,0X10,0X10,0X10,0X10,0X10,0X10,0X10,0X10,0X10,0X10,0X10,0X10,0X10,0X10,
//  980 0X10,0X10,0X10,0X10,0X10,0X10,0X10,0X10,0X10,0X10,0X10,0X10,0X10,0X10,0X10,0X10,
//  981 0X10,0X10,0X10,0X10,0X10,0X10,0X10,0X10,0X10,0X10,0X10,0X10,0X10,0X10,0X10,0X10,
//  982 0X10,0X10,0X10,0X10,0X10,0X10,0X10,0X10,0X10,0X10,0X10,0X10,0X10,0X10,0X10,0X10,
//  983 0X10,0X10,0X10,0X10,0X10,0X10,0X10,0X10,0X10,0X10,0X10,0X10,0X10,0X10,0X10,0X10,
//  984 0X10,0X10,0X10,0X10,0X10,0X10,0X10,0X10,0X10,0X10,0X10,0X10,0X10,0X10,0X10,0X10,
//  985 0X10,0X10,0X10,0X10,0X10,0X10,0X10,0X10,0X10,0X10,0X10,0X10,0X10,0X10,0X10,0X10,
//  986 0X10,0X10,0X10,0X10,0X10,0X10,0X10,0X10,0X10,0X10,0X10,0X10,0X10,0X10,0X10,0X10,
//  987 0X10,0X10,0X10,0X10,0X10,0X10,0X10,0X10,0X10,0X10,0X10,0X10,0X10,0X10,0X10,0X10,
//  988 0X10,0X10,0X10,0X10,0X10,0X10,0X10,0X10,0X10,0X10,0X10,0X10,0X10,0X10,0X10,0X10,
//  989 0X10,0X10,0X10,0X10,0X10,0X10,0X10,0X10,0X10,0X10,0X10,0X10,0X10,0X10,0X10,0X10,
//  990 0X10,0X10,0X10,0X10,0X10,0X10,0X10,0X10,0X10,0X10,0X10,0X10,0X10,0X10,0X10,0X10,
//  991 0X10,0X10,0X10,0X10,0X10,0X10,0X10,0X10,0X10,0X10,0X10,0X10,0X10,0X10,0X10,0X10,
//  992 0X10,0X10,0X10,0X10,0X10,0X10,0X10,0X10,0X10,0X10,0X10,0X10,0X10,0X10,0X10,0X10,
//  993 0X10,0X10,0X10,0X10,0X10,0X10,0X10,0X10,0X10,0X10,0X10,0X10,0X10,0X10,0X10,0X10,
//  994 0X10,0X10,0X10,0X10,0X10,0X10,0X10,0X10,0X10,0X10,0X10,0X10,0X10,0X10,0X10,0X10,
//  995 0X10,0X10,0X10,0X10,0X10,0X10,0X10,0X10,0X10,0X10,0X10,0X10,0X10,0X10,0X10,0X10,
//  996 0X10,0X10,0X10,0X10,0X10,0X10,0X10,0X10,0X10,0X10,0X10,0X10,0X10,0X10,0X10,0X10,
//  997 0X10,0X10,0X10,0X10,0X10,0X10,0X10,0X10,0X10,0X10,0X10,0X10,0X10,0X10,0X10,0X10,
//  998 0X10,0X10,0X10,0X10,0X10,0X10,0X10,0X10,0X10,0X10,0X10,0X10,0X10,0X10,0X10,0X10,
//  999 0X10,0X10,0X10,0X10,0X10,0X10,0X10,0X10,0X10,0X10,0X10,0X10,0X10,0X10,0X10,0X10,
// 1000 0X10,0X10,0X10,0X10,0X10,0X10,0X10,0X10,0X10,0X10,0X10,0X10,0X10,0X10,0X10,0X10,
// 1001 0X10,0X10,0X10,0X10,0X10,0X10,0X10,0X10,0X10,0X10,0X10,0X10,0X10,0X10,0X10,0X10,
// 1002 0X10,0X10,0X10,0X10,0X10,0X10,0X10,0X10,0X10,0X10,0X10,0X10,0X10,0X10,0X10,0X10,
// 1003 0X10,0X10,0X10,0X10,0X10,0X10,0X10,0X10,0X10,0X10,0X10,0X10,0X10,0X10,0X10,0X10,
// 1004 0X10,0X10,0X10,0X10,0X10,0X10,0X10,0X10,0X10,0X10,0X10,0X10,0X10,0X10,0X10,0X10,
// 1005 0X10,0X10,0X10,0X10,0X10,0X10,0X10,0X10,0X10,0X10,0X10,0X10,0X10,0X10,0X10,0X10,
// 1006 0X10,0X10,0X10,0X10,0X10,0X10,0X10,0X10,0X10,0X10,0X10,0X10,0X10,0X10,0X10,0X10,
// 1007 0X10,0X10,0X10,0X10,0X10,0X10,0X10,0X10,0X10,0X10,0X10,0X10,0X10,0X10,0X10,0X10,
// 1008 0X10,0X10,0X10,0X10,0X10,0X10,0X10,0X10,0X10,0X10,0X10,0X10,0X10,0X10,0X10,0X10,
// 1009 0X10,0X10,0X10,0X10,0X10,0X10,0X10,0X10,0X10,0X10,0X10,0X10,0X10,0X10,0X10,0X10,
// 1010 0X10,0X10,0X10,0X10,0X10,0X10,0X10,0X10,0X10,0X10,0X10,0X10,0X10,0X10,0X10,0X10,
// 1011 0X10,0X10,0X10,0X10,0X10,0X10,0X10,0X10,0X10,0X10,0X10,0X10,0X10,0X10,0X10,0X10,
// 1012 0X10,0X10,0X10,0X10,0X10,0X10,0X10,0X10,0X10,0X10,0X10,0X10,0X10,0X10,0X10,0X10,
// 1013 0X10,0X10,0X10,0X10,0X10,0X10,0X10,0X10,0X10,0X10,0X10,0X10,0X10,0X10,0X10,0X10,
// 1014 0X10,0X10,0X10,0X10,0X10,0X10,0X10,0X10,0X10,0X10,0X10,0X10,0X10,0X10,0X10,0X10,
// 1015 0X10,0X10,0X10,0X10,0X10,0X10,0X10,0X10,0X10,0X10,0X10,0X10,0X10,0X10,0X10,0X10,
// 1016 0X10,0X10,0X10,0X10,0X10,0X10,0X10,0X10,0X10,0X10,0X10,0X10,0X10,0X10,0X10,0X10,
// 1017 0X10,0X10,0X10,0X10,0X10,0X10,0X10,0X10,0X10,0X10,0X10,0X10,0X10,0X10,0X10,0X10,
// 1018 0X10,0X10,0X10,0X10,0X10,0X10,0X10,0X10,0X10,0X10,0X10,0X10,0X10,0X10,0X10,0X10,
// 1019 0X10,0X10,0X10,0X10,0X10,0X10,0X10,0X10,0X10,0X10,0X10,0X10,0X10,0X10,0X10,0X10,
// 1020 0X10,0X10,0X10,0X10,0X10,0X10,0X10,0X10,0X10,0X10,0X10,0X10,0X10,0X10,0X10,0X10,
// 1021 0X10,0X10,0X10,0X10,0X10,0X10,0X10,0X10,0X10,0X10,0X10,0X10,0X10,0X10,0X10,0X10,
// 1022 0X10,0X10,0X10,0X10,0X10,0X10,0X10,0X10,0X10,0X10,0X10,0X10,0X10,0X10,0X10,0X10,
// 1023 0X10,0X10,0X10,0X10,0X10,0X10,0X10,0X10,0X10,0X10,0X10,0X10,0X10,0X10,0X10,0X10,
// 1024 0X10,0X10,0X10,0X10,0X10,0X10,0X10,0X10,0X10,0X10,0X10,0X10,0X10,0X10,0X10,0X10,
// 1025 0X10,0X10,0X10,0X10,0X10,0X10,0X10,0X10,0X10,0X10,0X10,0X10,0X10,0X10,0X10,0X10,
// 1026 0X10,0X10,0X10,0X10,0X10,0X10,0X10,0X10,0X10,0X10,0X10,0X10,0X10,0X10,0X10,0X10,
// 1027 0X10,0X10,0X10,0X10,0X10,0X10,0X10,0X10,0X10,0X10,0X10,0X10,0X10,0X10,0X10,0X10,
// 1028 0X10,0X10,0X10,0X10,0X10,0X10,0X10,0X10,0X10,0X10,0X10,0X10,0X10,0X10,0X10,0X10,
// 1029 0X10,0X10,0X10,0X10,0X10,0X10,0X10,0X10,0X10,0X10,0X10,0X10,0X10,0X10,0X10,0X10,
// 1030 0X10,0X10,0X10,0X10,0X10,0X10,0X10,0X10,0X10,0X10,0X10,0X10,0X10,0X10,0X10,0X10,
// 1031 0X10,0X10,0X10,0X10,0X10,0X10,0X10,0X10,0X10,0X10,0X10,0X10,0X10,0X10,0X10,0X10,
// 1032 0X10,0X10,0X10,0X10,0X10,0X10,0X10,0X10,0X10,0X10,0X10,0X10,0X10,0X10,0X10,0X10,
// 1033 0X10,0X10,0X10,0X10,0X10,0X10,0X10,0X10,0X10,0X10,0X10,0X10,0X10,0X10,0X10,0X10,
// 1034 0X10,0X10,0X10,0X10,0X10,0X10,0X10,0X10,0X10,0X10,0X10,0X10,0X10,0X10,0X10,0X10,
// 1035 0X10,0X10,0X10,0X10,0X10,0X10,0X10,0X10,0X10,0X10,0X10,0X10,0X10,0X10,0X10,0X10,
// 1036 0X10,0X10,0X10,0X10,0X10,0X10,0X10,0X10,0X10,0X10,0X10,0X10,0X10,0X10,0X10,0X10,
// 1037 0X10,0X10,0X10,0X10,0X10,0X10,0X10,0X10,0X10,0X10,0X10,0X10,0X10,0X10,0X10,0X10,
// 1038 0X10,0X10,0X10,0X10,0X10,0X10,0X10,0X10,0X10,0X10,0X10,0X10,0X10,0X10,0X10,0X10,
// 1039 0X10,0X10,0X10,0X10,0X10,0X10,0X10,0X10,0X10,0X10,0X10,0X10,0X10,0X10,0X10,0X10,
// 1040 0X10,0X10,0X10,0X10,0X10,0X10,0X10,0X10,0X10,0X10,0X10,0X10,0X10,0X10,0X10,0X10,
// 1041 0X10,0X10,0X10,0X10,0X10,0X10,0X10,0X10,0X10,0X10,0X10,0X10,0X10,0X10,0X10,0X10,
// 1042 0X10,0X10,0X10,0X10,0X10,0X10,0X10,0X10,0X10,0X10,0X10,0X10,0X10,0X10,0X10,0X10,
// 1043 0X10,0X10,0X10,0X10,0X10,0X10,0X10,0X10,0X10,0X10,0X10,0X10,0X10,0X10,0X10,0X10,
// 1044 0X10,0X10,0X10,0X10,0X10,0X10,0X10,0X10,0X10,0X10,0X10,0X10,0X10,0X10,0X10,0X10,
// 1045 0X10,0X10,0X10,0X10,0X10,0X10,0X10,0X10,0X10,0X10,0X10,0X10,0X10,0X10,0X10,0X10,
// 1046 0X10,0X10,0X10,0X10,0X10,0X10,0X10,0X10,0X10,0X10,0X10,0X10,0X10,0X10,0X10,0X10,
// 1047 0X10,0X10,0X10,0X10,0X10,0X10,0X10,0X10,0X10,0X10,0X10,0X10,0X10,0X10,0X10,0X10,
// 1048 0X10,0X10,0X10,0X10,0X10,0X10,0X10,0X10,0X10,0X10,0X10,0X10,0X10,0X10,0X10,0X10,
// 1049 0X10,0X10,0X10,0X10,0X10,0X10,0X10,0X10,0X10,0X10,0X34,0X55,0X34,0X10,0X10,0X10,
// 1050 0X10,0X10,0X10,0X10,0X10,0X10,0X10,0X10,0X10,0X10,0X10,0X10,0X10,0X10,0X10,0X10,
// 1051 0X10,0X10,0X10,0X10,0X10,0X10,0X10,0X10,0X10,0X10,0X10,0X10,0X10,0X10,0X10,0X10,
// 1052 0X10,0X10,0X10,0X10,0X10,0X10,0X10,0X10,0X10,0X10,0X10,0X10,0X10,0X10,0X10,0X10,
// 1053 0X10,0X10,0X10,0X10,0X10,0X10,0X10,0X10,0X10,0X10,0X10,0X10,0X10,0X10,0X10,0X10,
// 1054 0X10,0X10,0X10,0X10,0X10,0X10,0X10,0X10,0X10,0X10,0X10,0X10,0X10,0X10,0X10,0X10,
// 1055 0X10,0X10,0X10,0X10,0X10,0X10,0X10,0X10,0X10,0X10,0X10,0X10,0X10,0X10,0X10,0X10,
// 1056 0X10,0X10,0X10,0X10,0X10,0X10,0X10,0X10,0X10,0X10,0X10,0X10,0X10,0X10,0X10,0X10,
// 1057 0X10,0X10,0X10,0X10,0X10,0X10,0X10,0X10,0X10,0X10,0X10,0X10,0X10,0X10,0X10,0X10,
// 1058 0X10,0X10,0X10,0X10,0X10,0X10,0X10,0X10,0X10,0X10,0X10,0X10,0X10,0X10,0X10,0X10,
// 1059 0X10,0X10,0X10,0X10,0X10,0X10,0X10,0X10,0X10,0X10,0X10,0X10,0X10,0X10,0X10,0X10,
// 1060 0X10,0X10,0X10,0X10,0X10,0X10,0X10,0X10,0X10,0X10,0X10,0X10,0X10,0X10,0X10,0X10,
// 1061 0X10,0X10,0X10,0X10,0X10,0X10,0X10,0X10,0X10,0X10,0X10,0X10,0X10,0X10,0X10,0X10,
// 1062 0X10,0X10,0X10,0X10,0X10,0X10,0X10,0X10,0X10,0X10,0X10,0X10,0X10,0X10,0X10,0X10,
// 1063 0X10,0X10,0X10,0X10,0X10,0X10,0X10,0X10,0X10,0X10,0X10,0X10,0X10,0X10,0X10,0X10,
// 1064 0X10,0X10,0X10,0X10,0X10,0X10,0X10,0X10,0X10,0X10,0X10,0X10,0X10,0X10,0X10,0X10,
// 1065 0X10,0X10,0X10,0X10,0X10,0X10,0X10,0X10,0X10,0X10,0X10,0X10,0X10,0X10,0X10,0X10,
// 1066 0X10,0X10,0X10,0X10,0X10,0X10,0X10,0X10,0X10,0X10,0X10,0X10,0X10,0X10,0X10,0X10,
// 1067 0X10,0X10,0X10,0X10,0X10,0X10,0X10,0X10,0X10,0X10,0X10,0X10,0X10,0X10,0X10,0X10,
// 1068 0X10,0X10,0X10,0X10,0X10,0X10,0X10,0X10,0X10,0X10,0X10,0X10,0X10,0X10,0X10,0X10,
// 1069 0X10,0X10,0X10,0X10,0X10,0X10,0X10,0X10,0X10,0X10,0X79,0X9A,0X79,0X10,0X10,0X10,
// 1070 0X10,0X10,0X10,0X10,0X10,0X10,0X10,0X10,0X10,0X10,0X10,0X10,0X10,0X10,0X10,0X10,
// 1071 0X10,0X10,0X10,0X10,0X10,0X10,0X10,0X10,0X10,0X10,0X10,0X10,0X10,0X10,0X10,0X10,
// 1072 0X10,0X10,0X10,0X10,0X10,0X10,0X10,0X10,0X10,0X10,0X10,0X10,0X10,0X10,0X10,0X10,
// 1073 0X10,0X10,0X10,0X10,0X10,0X10,0X10,0X10,0X10,0X10,0X10,0X10,0X10,0X10,0X10,0X10,
// 1074 0X10,0X10,0X10,0X10,0X10,0X10,0X10,0X10,0X10,0X10,0X10,0X10,0X10,0X10,0X10,0X10,
// 1075 0X10,0X10,0X10,0X10,0X10,0X10,0X10,0X10,0X10,0X10,0X10,0X10,0X10,0X10,0X10,0X10,
// 1076 0X10,0X10,0X10,0X10,0X10,0X10,0X10,0X10,0X10,0X10,0X10,0X10,0X10,0X10,0X10,0X10,
// 1077 0X10,0X10,0X10,0X10,0X10,0X10,0X10,0X10,0X10,0X10,0X10,0X10,0X10,0X10,0X10,0X10,
// 1078 0X10,0X10,0X10,0X10,0X10,0X10,0X10,0X10,0X10,0X10,0X10,0X10,0X10,0X10,0X10,0X10,
// 1079 0X10,0X10,0X10,0X10,0X10,0X10,0X10,0X10,0X10,0X10,0X10,0X10,0X10,0X10,0X10,0X10,
// 1080 0X10,0X10,0X10,0X10,0X10,0X10,0X10,0X10,0X10,0X10,0X10,0X10,0X10,0X10,0X10,0X10,
// 1081 0X10,0X10,0X10,0X10,0X10,0X10,0X10,0X10,0X10,0X10,0X10,0X10,0X10,0X10,0X10,0X10,
// 1082 0X10,0X10,0X10,0X10,0X10,0X10,0X10,0X10,0X10,0X10,0X10,0X10,0X10,0X10,0X10,0X10,
// 1083 0X10,0X10,0X10,0X10,0X10,0X10,0X10,0X10,0X10,0X10,0X10,0X10,0X10,0X10,0X10,0X10,
// 1084 0X10,0X10,0X10,0X10,0X10,0X10,0X10,0X10,0X10,0X10,0X10,0X10,0X10,0X10,0X10,0X10,
// 1085 0X10,0X10,0X10,0X10,0X10,0X10,0X10,0X10,0X10,0X10,0X10,0X10,0X10,0X10,0X10,0X10,
// 1086 0X10,0X10,0X10,0X10,0X10,0X10,0X10,0X10,0X10,0X10,0X10,0X10,0X10,0X10,0X10,0X10,
// 1087 0X10,0X10,0X10,0X10,0X10,0X10,0X10,0X10,0X10,0X10,0X10,0X10,0X10,0X10,0X10,0X10,
// 1088 0X10,0X10,0X10,0X10,0X10,0X10,0X10,0X10,0X10,0X10,0X10,0X10,0X10,0X10,0X10,0X10,
// 1089 0X10,0X10,0X10,0X10,0X10,0X10,0X10,0X10,0X10,0X75,0XDF,0XFF,0XDF,0X75,0X10,0X10,
// 1090 0X10,0X10,0X10,0X10,0X10,0X10,0X10,0X10,0X10,0X10,0X10,0X10,0X10,0X10,0X10,0X10,
// 1091 0X10,0X10,0X10,0X10,0X10,0X10,0X10,0X10,0X10,0X10,0X10,0X10,0X10,0X10,0X10,0X10,
// 1092 0X10,0X10,0X10,0X10,0X10,0X10,0X10,0X10,0X10,0X10,0X10,0X10,0X10,0X10,0X10,0X10,
// 1093 0X10,0X10,0X10,0X10,0X10,0X10,0X10,0X10,0X10,0X10,0X10,0X10,0X10,0X10,0X10,0X10,
// 1094 0X10,0X10,0X10,0X10,0X10,0X10,0X10,0X10,0X10,0X10,0X10,0X10,0X10,0X10,0X10,0X10,
// 1095 0X10,0X10,0X10,0X10,0X10,0X10,0X10,0X10,0X10,0X10,0X10,0X10,0X10,0X10,0X10,0X10,
// 1096 0X10,0X10,0X10,0X10,0X10,0X10,0X10,0X10,0X10,0X10,0X10,0X10,0X10,0X10,0X10,0X10,
// 1097 0X10,0X10,0X10,0X10,0X10,0X10,0X10,0X10,0X10,0X10,0X10,0X10,0X10,0X10,0X10,0X10,
// 1098 0X10,0X10,0X10,0X10,0X10,0X10,0X10,0X10,0X10,0X10,0X10,0X10,0X10,0X10,0X10,0X10,
// 1099 0X10,0X10,0X10,0X10,0X10,0X10,0X10,0X10,0X10,0X10,0X10,0X10,0X10,0X10,0X10,0X10,
// 1100 0X10,0X10,0X10,0X10,0X10,0X10,0X10,0X10,0X10,0X10,0X10,0X10,0X10,0X10,0X10,0X10,
// 1101 0X10,0X10,0X10,0X10,0X10,0X10,0X10,0X10,0X10,0X10,0X10,0X10,0X10,0X10,0X10,0X10,
// 1102 0X10,0X10,0X10,0X10,0X10,0X10,0X10,0X10,0X10,0X10,0X10,0X10,0X10,0X10,0X10,0X10,
// 1103 0X10,0X10,0X10,0X10,0X10,0X10,0X10,0X10,0X10,0X10,0X10,0X10,0X10,0X10,0X10,0X10,
// 1104 0X10,0X10,0X10,0X10,0X10,0X10,0X10,0X10,0X10,0X10,0X10,0X10,0X10,0X10,0X10,0X10,
// 1105 0X10,0X10,0X10,0X10,0X10,0X10,0X10,0X10,0X10,0X10,0X10,0X10,0X10,0X10,0X10,0X10,
// 1106 0X10,0X10,0X10,0X10,0X10,0X10,0X10,0X10,0X10,0X10,0X10,0X10,0X10,0X10,0X10,0X10,
// 1107 0X10,0X10,0X10,0X10,0X10,0X10,0X10,0X10,0X10,0X10,0X10,0X10,0X10,0X10,0X10,0X10,
// 1108 0X10,0X10,0X10,0X10,0X10,0X10,0X10,0X10,0X10,0X10,0X10,0X10,0X10,0X10,0X10,0X10,
// 1109 0X10,0X10,0X10,0X10,0X10,0X10,0X10,0X10,0X55,0XBA,0XFF,0XFF,0XFF,0XBA,0X55,0X10,
// 1110 0X10,0X10,0X10,0X10,0X10,0X10,0X10,0X10,0X10,0X10,0X10,0X10,0X10,0X10,0X10,0X10,
// 1111 0X10,0X10,0X10,0X10,0X10,0X10,0X10,0X10,0X10,0X10,0X10,0X10,0X10,0X10,0X10,0X10,
// 1112 0X10,0X10,0X10,0X10,0X10,0X10,0X10,0X10,0X10,0X10,0X10,0X10,0X10,0X10,0X10,0X10,
// 1113 0X10,0X10,0X10,0X10,0X10,0X10,0X10,0X10,0X10,0X10,0X10,0X10,0X10,0X10,0X10,0X10,
// 1114 0X10,0X10,0X10,0X10,0X10,0X10,0X10,0X10,0X10,0X10,0X10,0X10,0X10,0X10,0X10,0X10,
// 1115 0X10,0X10,0X10,0X10,0X10,0X10,0X10,0X10,0X10,0X10,0X10,0X10,0X10,0X10,0X10,0X10,
// 1116 0X10,0X10,0X10,0X10,0X10,0X10,0X10,0X10,0X10,0X10,0X10,0X10,0X10,0X10,0X10,0X10,
// 1117 0X10,0X10,0X10,0X10,0X10,0X10,0X10,0X10,0X10,0X10,0X10,0X10,0X10,0X10,0X10,0X10,
// 1118 0X10,0X10,0X10,0X10,0X10,0X10,0X10,0X10,0X10,0X10,0X10,0X10,0X10,0X10,0X10,0X10,
// 1119 0X10,0X10,0X10,0X10,0X10,0X10,0X10,0X10,0X10,0X10,0X10,0X10,0X10,0X10,0X10,0X10,
// 1120 0X10,0X10,0X10,0X10,0X10,0X10,0X10,0X10,0X10,0X10,0X10,0X10,0X10,0X10,0X10,0X10,
// 1121 0X10,0X10,0X10,0X10,0X10,0X10,0X10,0X10,0X10,0X10,0X10,0X10,0X10,0X10,0X10,0X10,
// 1122 0X10,0X10,0X10,0X10,0X10,0X10,0X10,0X10,0X10,0X10,0X10,0X10,0X10,0X10,0X10,0X10,
// 1123 0X10,0X10,0X10,0X10,0X10,0X10,0X10,0X10,0X10,0X10,0X10,0X10,0X10,0X10,0X10,0X10,
// 1124 0X10,0X10,0X10,0X10,0X10,0X10,0X10,0X10,0X10,0X10,0X10,0X10,0X10,0X10,0X10,0X10,
// 1125 0X10,0X10,0X10,0X10,0X10,0X10,0X10,0X10,0X10,0X10,0X10,0X10,0X10,0X10,0X10,0X10,
// 1126 0X10,0X10,0X10,0X10,0X10,0X10,0X10,0X10,0X10,0X10,0X10,0X10,0X10,0X10,0X10,0X10,
// 1127 0X10,0X10,0X10,0X10,0X10,0X10,0X10,0X10,0X10,0X10,0X10,0X10,0X10,0X10,0X10,0X10,
// 1128 0X10,0X10,0X10,0X10,0X10,0X10,0X10,0X10,0X10,0X10,0X10,0X10,0X10,0X10,0X10,0X10,
// 1129 0X10,0X10,0X10,0X10,0X10,0X10,0X10,0X55,0XBA,0XFF,0XFF,0XFF,0XFF,0XFF,0XBA,0X55,
// 1130 0X10,0X10,0X10,0X10,0X10,0X10,0X10,0X10,0X10,0X10,0X10,0X10,0X10,0X10,0X10,0X10,
// 1131 0X10,0X10,0X10,0X10,0X10,0X10,0X10,0X10,0X10,0X10,0X10,0X10,0X10,0X10,0X10,0X10,
// 1132 0X10,0X10,0X10,0X10,0X10,0X10,0X10,0X10,0X10,0X10,0X10,0X10,0X10,0X10,0X10,0X10,
// 1133 0X10,0X10,0X10,0X10,0X10,0X10,0X10,0X10,0X10,0X10,0X10,0X10,0X10,0X10,0X10,0X10,
// 1134 0X10,0X10,0X10,0X10,0X10,0X10,0X10,0X10,0X10,0X10,0X10,0X10,0X10,0X10,0X10,0X10,
// 1135 0X10,0X10,0X10,0X10,0X10,0X10,0X10,0X10,0X10,0X10,0X10,0X10,0X10,0X10,0X10,0X10,
// 1136 0X10,0X10,0X10,0X10,0X10,0X10,0X10,0X10,0X10,0X10,0X10,0X10,0X10,0X10,0X10,0X10,
// 1137 0X10,0X10,0X10,0X10,0X10,0X10,0X10,0X10,0X10,0X10,0X10,0X10,0X10,0X10,0X10,0X10,
// 1138 0X10,0X10,0X10,0X10,0X10,0X10,0X10,0X10,0X10,0X10,0X10,0X10,0X10,0X10,0X10,0X10,
// 1139 0X10,0X10,0X10,0X10,0X10,0X10,0X10,0X10,0X10,0X10,0X10,0X10,0X10,0X10,0X10,0X10,
// 1140 0X10,0X10,0X10,0X10,0X10,0X10,0X10,0X10,0X10,0X10,0X10,0X10,0X10,0X10,0X10,0X10,
// 1141 0X10,0X10,0X10,0X10,0X10,0X10,0X10,0X10,0X10,0X10,0X10,0X10,0X10,0X10,0X10,0X10,
// 1142 0X10,0X10,0X10,0X10,0X10,0X10,0X10,0X10,0X10,0X10,0X10,0X10,0X10,0X10,0X10,0X10,
// 1143 0X10,0X10,0X10,0X10,0X10,0X10,0X10,0X10,0X10,0X10,0X10,0X10,0X10,0X10,0X10,0X10,
// 1144 0X10,0X10,0X10,0X10,0X10,0X10,0X10,0X10,0X10,0X10,0X10,0X10,0X10,0X10,0X10,0X10,
// 1145 0X10,0X10,0X10,0X10,0X10,0X10,0X10,0X10,0X10,0X10,0X10,0X10,0X10,0X10,0X10,0X10,
// 1146 0X10,0X10,0X10,0X10,0X10,0X10,0X10,0X10,0X10,0X10,0X10,0X10,0X10,0X10,0X10,0X10,
// 1147 0X10,0X10,0X10,0X10,0X10,0X10,0X10,0X10,0X10,0X10,0X10,0X10,0X10,0X10,0X10,0X10,
// 1148 0X10,0X10,0X10,0X10,0X10,0X10,0X10,0X10,0X10,0X10,0X10,0X10,0X10,0X10,0X10,0X10,
// 1149 0X10,0X10,0X10,0X10,0X10,0X10,0X34,0X9A,0XDF,0XFF,0XFF,0XFF,0XFF,0XFF,0XDF,0X9A,
// 1150 0X34,0X10,0X10,0X10,0X10,0X10,0X10,0X10,0X10,0X10,0X10,0X10,0X10,0X10,0X10,0X10,
// 1151 0X10,0X10,0X10,0X10,0X10,0X10,0X10,0X10,0X10,0X10,0X10,0X10,0X10,0X10,0X10,0X10,
// 1152 0X10,0X10,0X10,0X10,0X10,0X10,0X10,0X10,0X10,0X10,0X10,0X10,0X10,0X10,0X10,0X10,
// 1153 0X10,0X10,0X10,0X10,0X10,0X10,0X10,0X10,0X10,0X10,0X10,0X10,0X10,0X10,0X10,0X10,
// 1154 0X10,0X10,0X10,0X10,0X10,0X10,0X10,0X10,0X10,0X10,0X10,0X10,0X10,0X10,0X10,0X10,
// 1155 0X10,0X10,0X10,0X10,0X10,0X10,0X10,0X10,0X10,0X10,0X10,0X10,0X10,0X10,0X10,0X10,
// 1156 0X10,0X10,0X10,0X10,0X10,0X10,0X10,0X10,0X10,0X10,0X10,0X10,0X10,0X10,0X10,0X10,
// 1157 0X10,0X10,0X10,0X10,0X10,0X10,0X10,0X10,0X10,0X10,0X10,0X10,0X10,0X10,0X10,0X10,
// 1158 0X10,0X10,0X10,0X10,0X10,0X10,0X10,0X10,0X10,0X10,0X10,0X10,0X10,0X10,0X10,0X10,
// 1159 0X10,0X10,0X10,0X10,0X10,0X10,0X10,0X10,0X10,0X10,0X10,0X10,0X10,0X10,0X10,0X10,
// 1160 0X10,0X10,0X10,0X10,0X10,0X10,0X10,0X10,0X10,0X10,0X10,0X10,0X10,0X10,0X10,0X10,
// 1161 0X10,0X10,0X10,0X10,0X10,0X10,0X10,0X10,0X10,0X10,0X10,0X10,0X10,0X10,0X10,0X10,
// 1162 0X10,0X10,0X10,0X10,0X10,0X10,0X10,0X10,0X10,0X10,0X10,0X10,0X10,0X10,0X10,0X10,
// 1163 0X10,0X10,0X10,0X10,0X10,0X10,0X10,0X10,0X10,0X10,0X10,0X10,0X10,0X10,0X10,0X10,
// 1164 0X10,0X10,0X10,0X10,0X10,0X10,0X10,0X10,0X10,0X10,0X10,0X10,0X10,0X10,0X10,0X10,
// 1165 0X10,0X10,0X10,0X10,0X10,0X10,0X10,0X10,0X10,0X10,0X10,0X10,0X10,0X10,0X10,0X10,
// 1166 0X10,0X10,0X10,0X10,0X10,0X10,0X10,0X10,0X10,0X10,0X10,0X10,0X10,0X10,0X10,0X10,
// 1167 0X10,0X10,0X10,0X10,0X10,0X10,0X10,0X10,0X10,0X10,0X10,0X10,0X10,0X10,0X10,0X10,
// 1168 0X10,0X10,0X10,0X10,0X10,0X10,0X10,0X10,0X10,0X10,0X10,0X10,0X10,0X10,0X10,0X10,
// 1169 0X10,0X10,0X10,0X10,0X10,0X34,0X9A,0XDF,0XFF,0XFF,0XFF,0XFF,0XFF,0XFF,0XFF,0XDF,
// 1170 0X9A,0X34,0X10,0X10,0X10,0X10,0X10,0X10,0X10,0X10,0X10,0X10,0X10,0X10,0X10,0X10,
// 1171 0X10,0X10,0X10,0X10,0X10,0X10,0X10,0X10,0X10,0X10,0X10,0X10,0X10,0X10,0X10,0X10,
// 1172 0X10,0X10,0X10,0X10,0X10,0X10,0X10,0X10,0X10,0X10,0X10,0X10,0X10,0X10,0X10,0X10,
// 1173 0X10,0X10,0X10,0X10,0X10,0X10,0X10,0X10,0X10,0X10,0X10,0X10,0X10,0X10,0X10,0X10,
// 1174 0X10,0X10,0X10,0X10,0X10,0X10,0X10,0X10,0X10,0X10,0X10,0X10,0X10,0X10,0X10,0X10,
// 1175 0X10,0X10,0X10,0X10,0X10,0X10,0X10,0X10,0X10,0X10,0X10,0X10,0X10,0X10,0X10,0X10,
// 1176 0X10,0X10,0X10,0X10,0X10,0X10,0X10,0X10,0X10,0X10,0X10,0X10,0X10,0X10,0X10,0X10,
// 1177 0X10,0X10,0X10,0X10,0X10,0X10,0X10,0X10,0X10,0X10,0X10,0X10,0X10,0X10,0X10,0X10,
// 1178 0X10,0X10,0X10,0X10,0X10,0X10,0X10,0X10,0X10,0X10,0X10,0X10,0X10,0X10,0X10,0X10,
// 1179 0X10,0X10,0X10,0X10,0X10,0X10,0X10,0X10,0X10,0X10,0X10,0X10,0X10,0X10,0X10,0X10,
// 1180 0X10,0X10,0X10,0X10,0X10,0X10,0X10,0X10,0X10,0X10,0X10,0X10,0X10,0X10,0X10,0X10,
// 1181 0X10,0X10,0X10,0X10,0X10,0X10,0X10,0X10,0X10,0X10,0X10,0X10,0X10,0X10,0X10,0X10,
// 1182 0X10,0X10,0X10,0X10,0X10,0X10,0X10,0X10,0X10,0X10,0X10,0X10,0X10,0X10,0X10,0X10,
// 1183 0X10,0X10,0X10,0X10,0X10,0X10,0X10,0X10,0X10,0X10,0X10,0X10,0X10,0X10,0X10,0X10,
// 1184 0X10,0X10,0X10,0X10,0X10,0X10,0X10,0X10,0X10,0X10,0X10,0X10,0X10,0X10,0X10,0X10,
// 1185 0X10,0X10,0X10,0X10,0X10,0X10,0X10,0X10,0X10,0X10,0X10,0X10,0X10,0X10,0X10,0X10,
// 1186 0X10,0X10,0X10,0X10,0X10,0X10,0X10,0X10,0X10,0X10,0X10,0X10,0X10,0X10,0X10,0X10,
// 1187 0X10,0X10,0X10,0X10,0X10,0X10,0X10,0X10,0X10,0X10,0X10,0X10,0X10,0X10,0X10,0X10,
// 1188 0X10,0X10,0X10,0X10,0X10,0X10,0X10,0X10,0X10,0X10,0X10,0X10,0X10,0X10,0X10,0X10,
// 1189 0X10,0X10,0X10,0X10,0X34,0X79,0XDF,0XFF,0XFF,0XFF,0XFF,0XFF,0XFF,0XFF,0XFF,0XFF,
// 1190 0XDF,0X79,0X34,0X10,0X10,0X10,0X10,0X10,0X10,0X10,0X10,0X10,0X10,0X10,0X10,0X10,
// 1191 0X10,0X10,0X10,0X10,0X10,0X10,0X10,0X10,0X10,0X10,0X10,0X10,0X10,0X10,0X10,0X10,
// 1192 0X10,0X10,0X10,0X10,0X10,0X10,0X10,0X10,0X10,0X10,0X10,0X10,0X10,0X10,0X10,0X10,
// 1193 0X10,0X10,0X10,0X10,0X10,0X10,0X10,0X10,0X10,0X10,0X10,0X10,0X10,0X10,0X10,0X10,
// 1194 0X10,0X10,0X10,0X10,0X10,0X10,0X10,0X10,0X10,0X10,0X10,0X10,0X10,0X10,0X10,0X10,
// 1195 0X10,0X10,0X10,0X10,0X10,0X10,0X10,0X10,0X10,0X10,0X10,0X10,0X10,0X10,0X10,0X10,
// 1196 0X10,0X10,0X10,0X10,0X10,0X10,0X10,0X10,0X10,0X10,0X10,0X10,0X10,0X10,0X10,0X10,
// 1197 0X10,0X10,0X10,0X10,0X10,0X10,0X10,0X10,0X10,0X10,0X10,0X10,0X10,0X10,0X10,0X10,
// 1198 0X10,0X10,0X10,0X10,0X10,0X10,0X10,0X10,0X10,0X10,0X10,0X10,0X10,0X10,0X10,0X10,
// 1199 0X10,0X10,0X10,0X10,0X10,0X10,0X10,0X10,0X10,0X10,0X10,0X10,0X10,0X10,0X10,0X10,
// 1200 0X10,0X10,0X10,0X10,0X10,0X10,0X10,0X10,0X10,0X10,0X10,0X10,0X10,0X10,0X10,0X10,
// 1201 0X10,0X10,0X10,0X10,0X10,0X10,0X10,0X10,0X10,0X10,0X10,0X10,0X10,0X10,0X10,0X10,
// 1202 0X10,0X10,0X10,0X10,0X10,0X10,0X10,0X10,0X10,0X10,0X10,0X10,0X10,0X10,0X10,0X10,
// 1203 0X10,0X10,0X10,0X10,0X10,0X10,0X10,0X10,0X10,0X10,0X10,0X10,0X10,0X10,0X10,0X10,
// 1204 0X10,0X10,0X10,0X10,0X10,0X10,0X10,0X10,0X10,0X10,0X10,0X10,0X10,0X10,0X10,0X10,
// 1205 0X10,0X10,0X10,0X10,0X10,0X10,0X10,0X10,0X10,0X10,0X10,0X10,0X10,0X10,0X10,0X10,
// 1206 0X10,0X10,0X10,0X10,0X10,0X10,0X10,0X10,0X10,0X10,0X10,0X10,0X10,0X10,0X10,0X10,
// 1207 0X10,0X10,0X10,0X10,0X10,0X10,0X10,0X10,0X10,0X10,0X10,0X10,0X10,0X10,0X10,0X10,
// 1208 0X10,0X10,0X10,0X10,0X10,0X10,0X10,0X10,0X10,0X10,0X10,0X10,0X10,0X10,0X10,0X10,
// 1209 0X10,0X10,0X10,0X10,0X75,0XBE,0XFF,0XFF,0XFF,0XFF,0XFF,0XFF,0XFF,0XFF,0XFF,0XFF,
// 1210 0XFF,0XBE,0X75,0X10,0X10,0X10,0X10,0X10,0X10,0X10,0X10,0X10,0X10,0X10,0X10,0X10,
// 1211 0X10,0X10,0X10,0X10,0X10,0X10,0X10,0X10,0X10,0X10,0X10,0X10,0X10,0X10,0X10,0X10,
// 1212 0X10,0X10,0X10,0X10,0X10,0X10,0X10,0X10,0X10,0X10,0X10,0X10,0X10,0X10,0X10,0X10,
// 1213 0X10,0X10,0X10,0X10,0X10,0X10,0X10,0X10,0X10,0X10,0X10,0X10,0X10,0X10,0X10,0X10,
// 1214 0X10,0X10,0X10,0X10,0X10,0X10,0X10,0X10,0X10,0X10,0X10,0X10,0X10,0X10,0X10,0X10,
// 1215 0X10,0X10,0X10,0X10,0X10,0X10,0X10,0X10,0X10,0X10,0X10,0X10,0X10,0X10,0X10,0X10,
// 1216 0X10,0X10,0X10,0X10,0X10,0X10,0X10,0X10,0X10,0X10,0X10,0X10,0X10,0X10,0X10,0X10,
// 1217 0X10,0X10,0X10,0X10,0X10,0X10,0X10,0X10,0X10,0X10,0X10,0X10,0X10,0X10,0X10,0X10,
// 1218 0X10,0X10,0X10,0X10,0X10,0X10,0X10,0X10,0X10,0X10,0X10,0X10,0X10,0X10,0X10,0X10,
// 1219 0X10,0X10,0X10,0X10,0X10,0X10,0X10,0X10,0X10,0X10,0X10,0X10,0X10,0X10,0X10,0X10,
// 1220 0X10,0X10,0X10,0X10,0X10,0X10,0X10,0X10,0X10,0X10,0X10,0X10,0X10,0X10,0X10,0X10,
// 1221 0X10,0X10,0X10,0X10,0X10,0X10,0X10,0X10,0X10,0X10,0X10,0X10,0X10,0X10,0X10,0X10,
// 1222 0X10,0X10,0X10,0X10,0X10,0X10,0X10,0X10,0X10,0X10,0X10,0X10,0X10,0X10,0X10,0X10,
// 1223 0X10,0X10,0X10,0X10,0X10,0X10,0X10,0X10,0X10,0X10,0X10,0X10,0X10,0X10,0X10,0X10,
// 1224 0X10,0X10,0X10,0X10,0X10,0X10,0X10,0X10,0X10,0X10,0X10,0X10,0X10,0X10,0X10,0X10,
// 1225 0X10,0X10,0X10,0X10,0X10,0X10,0X10,0X10,0X10,0X10,0X10,0X10,0X10,0X10,0X10,0X10,
// 1226 0X10,0X10,0X10,0X10,0X10,0X10,0X10,0X10,0X10,0X10,0X10,0X10,0X10,0X10,0X10,0X10,
// 1227 0X10,0X10,0X10,0X10,0X10,0X10,0X10,0X10,0X10,0X10,0X10,0X10,0X10,0X10,0X10,0X10,
// 1228 0X10,0X10,0X10,0X10,0X10,0X10,0X10,0X10,0X10,0X10,0X10,0X10,0X10,0X10,0X10,0X10,
// 1229 0X10,0X10,0X10,0X55,0XBE,0XFF,0XFF,0XFF,0XFF,0XFF,0XFF,0XFF,0XFF,0XFF,0XFF,0XFF,
// 1230 0XFF,0XFF,0XBE,0X55,0X10,0X10,0X10,0X10,0X10,0X10,0X10,0X10,0X10,0X10,0X10,0X10,
// 1231 0X10,0X10,0X10,0X10,0X10,0X10,0X10,0X10,0X10,0X10,0X10,0X10,0X10,0X10,0X10,0X10,
// 1232 0X10,0X10,0X10,0X10,0X10,0X10,0X10,0X10,0X10,0X10,0X10,0X10,0X10,0X10,0X10,0X10,
// 1233 0X10,0X10,0X10,0X10,0X10,0X10,0X10,0X10,0X10,0X10,0X10,0X10,0X10,0X10,0X10,0X10,
// 1234 0X10,0X10,0X10,0X10,0X10,0X10,0X10,0X10,0X10,0X10,0X10,0X10,0X10,0X10,0X10,0X10,
// 1235 0X10,0X10,0X10,0X10,0X10,0X10,0X10,0X10,0X10,0X10,0X10,0X10,0X10,0X10,0X10,0X10,
// 1236 0X10,0X10,0X10,0X10,0X10,0X10,0X10,0X10,0X10,0X10,0X10,0X10,0X10,0X10,0X10,0X10,
// 1237 0X10,0X10,0X10,0X10,0X10,0X10,0X10,0X10,0X10,0X10,0X10,0X10,0X10,0X10,0X10,0X10,
// 1238 0X10,0X10,0X10,0X10,0X10,0X10,0X10,0X10,0X10,0X10,0X10,0X10,0X10,0X10,0X10,0X10,
// 1239 0X10,0X10,0X10,0X10,0X10,0X10,0X10,0X10,0X10,0X10,0X10,0X10,0X10,0X10,0X10,0X10,
// 1240 0X10,0X10,0X10,0X10,0X10,0X10,0X10,0X10,0X10,0X10,0X10,0X10,0X10,0X10,0X10,0X10,
// 1241 0X10,0X10,0X10,0X10,0X10,0X10,0X10,0X10,0X10,0X10,0X10,0X10,0X10,0X10,0X10,0X10,
// 1242 0X10,0X10,0X10,0X10,0X10,0X10,0X10,0X10,0X10,0X10,0X10,0X10,0X10,0X10,0X10,0X10,
// 1243 0X10,0X10,0X10,0X10,0X10,0X10,0X10,0X10,0X10,0X10,0X10,0X10,0X10,0X10,0X10,0X10,
// 1244 0X10,0X10,0X10,0X10,0X10,0X10,0X10,0X10,0X10,0X10,0X10,0X10,0X10,0X10,0X10,0X10,
// 1245 0X10,0X10,0X10,0X10,0X10,0X10,0X10,0X10,0X10,0X10,0X10,0X10,0X10,0X10,0X10,0X10,
// 1246 0X10,0X10,0X10,0X10,0X10,0X10,0X10,0X10,0X10,0X10,0X10,0X10,0X10,0X10,0X10,0X10,
// 1247 0X10,0X10,0X10,0X10,0X10,0X10,0X10,0X10,0X10,0X10,0X10,0X10,0X10,0X10,0X10,0X10,
// 1248 0X10,0X10,0X10,0X10,0X10,0X10,0X10,0X10,0X10,0X10,0X10,0X10,0X10,0X10,0X10,0X10,
// 1249 0X10,0X10,0X55,0XBA,0XFF,0XFF,0XFF,0XFF,0XFF,0XFF,0XFF,0XFF,0XFF,0XFF,0XFF,0XFF,
// 1250 0XFF,0XFF,0XFF,0XBA,0X55,0X10,0X10,0X10,0X10,0X10,0X10,0X10,0X10,0X10,0X10,0X10,
// 1251 0X10,0X10,0X10,0X10,0X10,0X10,0X10,0X10,0X10,0X10,0X10,0X10,0X10,0X10,0X10,0X10,
// 1252 0X10,0X10,0X10,0X10,0X10,0X10,0X10,0X10,0X10,0X10,0X10,0X10,0X10,0X10,0X10,0X10,
// 1253 0X10,0X10,0X10,0X10,0X10,0X10,0X10,0X10,0X10,0X10,0X10,0X10,0X10,0X10,0X10,0X10,
// 1254 0X10,0X10,0X10,0X10,0X10,0X10,0X10,0X10,0X10,0X10,0X10,0X10,0X10,0X10,0X10,0X10,
// 1255 0X10,0X10,0X10,0X10,0X10,0X10,0X10,0X10,0X10,0X10,0X10,0X10,0X10,0X10,0X10,0X10,
// 1256 0X10,0X10,0X10,0X10,0X10,0X10,0X10,0X10,0X10,0X10,0X10,0X10,0X10,0X10,0X10,0X10,
// 1257 0X10,0X10,0X10,0X10,0X10,0X10,0X10,0X10,0X10,0X10,0X10,0X10,0X10,0X10,0X10,0X10,
// 1258 0X10,0X10,0X10,0X10,0X10,0X10,0X10,0X10,0X10,0X10,0X10,0X10,0X10,0X10,0X10,0X10,
// 1259 0X10,0X10,0X10,0X10,0X10,0X10,0X10,0X10,0X10,0X10,0X10,0X10,0X10,0X10,0X10,0X10,
// 1260 0X10,0X10,0X10,0X10,0X10,0X10,0X10,0X10,0X10,0X10,0X10,0X10,0X10,0X10,0X10,0X10,
// 1261 0X10,0X10,0X10,0X10,0X10,0X10,0X10,0X10,0X10,0X10,0X10,0X10,0X10,0X10,0X10,0X10,
// 1262 0X10,0X10,0X10,0X10,0X10,0X10,0X10,0X10,0X10,0X10,0X10,0X10,0X10,0X10,0X10,0X10,
// 1263 0X10,0X10,0X10,0X10,0X10,0X10,0X10,0X10,0X10,0X10,0X10,0X10,0X10,0X10,0X10,0X10,
// 1264 0X10,0X10,0X10,0X10,0X10,0X10,0X10,0X10,0X10,0X10,0X10,0X10,0X10,0X10,0X10,0X10,
// 1265 0X10,0X10,0X10,0X10,0X10,0X10,0X10,0X10,0X10,0X10,0X10,0X10,0X10,0X10,0X10,0X10,
// 1266 0X10,0X10,0X10,0X10,0X10,0X10,0X10,0X10,0X10,0X10,0X10,0X10,0X10,0X10,0X10,0X10,
// 1267 0X10,0X10,0X10,0X10,0X10,0X10,0X10,0X10,0X10,0X10,0X10,0X10,0X10,0X10,0X10,0X10,
// 1268 0X10,0X10,0X10,0X10,0X10,0X10,0X10,0X10,0X10,0X10,0X10,0X10,0X10,0X10,0X10,0X10,
// 1269 0X10,0X34,0X9A,0XFF,0XFF,0XFF,0XFF,0XFF,0XFF,0XFF,0XFF,0XFF,0XFF,0XFF,0XFF,0XFF,
// 1270 0XFF,0XFF,0XFF,0XFF,0X9A,0X34,0X10,0X10,0X10,0X10,0X10,0X10,0X10,0X10,0X10,0X10,
// 1271 0X10,0X10,0X10,0X10,0X10,0X10,0X10,0X10,0X10,0X10,0X10,0X10,0X10,0X10,0X10,0X10,
// 1272 0X10,0X10,0X10,0X10,0X10,0X10,0X10,0X10,0X10,0X10,0X10,0X10,0X10,0X10,0X10,0X10,
// 1273 0X10,0X10,0X10,0X10,0X10,0X10,0X10,0X10,0X10,0X10,0X10,0X10,0X10,0X10,0X10,0X10,
// 1274 0X10,0X10,0X10,0X10,0X10,0X10,0X10,0X10,0X10,0X10,0X10,0X10,0X10,0X10,0X10,0X10,
// 1275 0X10,0X10,0X10,0X10,0X10,0X10,0X10,0X10,0X10,0X10,0X10,0X10,0X10,0X10,0X10,0X10,
// 1276 0X10,0X10,0X10,0X10,0X10,0X10,0X10,0X10,0X10,0X10,0X10,0X10,0X10,0X10,0X10,0X10,
// 1277 0X10,0X10,0X10,0X10,0X10,0X10,0X10,0X10,0X10,0X10,0X10,0X10,0X10,0X10,0X10,0X10,
// 1278 0X10,0X10,0X10,0X10,0X10,0X10,0X10,0X10,0X10,0X10,0X10,0X10,0X10,0X10,0X10,0X10,
// 1279 0X10,0X10,0X10,0X10,0X10,0X10,0X10,0X10,0X10,0X10,0X10,0X10,0X10,0X10,0X10,0X10,
// 1280 0X10,0X10,0X10,0X10,0X10,0X10,0X10,0X10,0X10,0X10,0X10,0X10,0X10,0X10,0X10,0X10,
// 1281 0X10,0X10,0X10,0X10,0X10,0X10,0X10,0X10,0X10,0X10,0X10,0X10,0X10,0X10,0X10,0X10,
// 1282 0X10,0X10,0X10,0X10,0X10,0X10,0X10,0X10,0X10,0X10,0X10,0X10,0X10,0X10,0X10,0X10,
// 1283 0X10,0X10,0X10,0X10,0X10,0X10,0X10,0X10,0X10,0X10,0X10,0X10,0X10,0X10,0X10,0X10,
// 1284 0X10,0X10,0X10,0X10,0X10,0X10,0X10,0X10,0X10,0X10,0X10,0X10,0X10,0X10,0X10,0X10,
// 1285 0X10,0X10,0X10,0X10,0X10,0X10,0X10,0X10,0X10,0X10,0X10,0X10,0X10,0X10,0X10,0X10,
// 1286 0X10,0X10,0X10,0X10,0X10,0X10,0X10,0X10,0X10,0X10,0X10,0X10,0X10,0X10,0X10,0X10,
// 1287 0X10,0X10,0X10,0X10,0X10,0X10,0X10,0X10,0X10,0X10,0X10,0X10,0X10,0X10,0X10,0X10,
// 1288 0X10,0X10,0X10,0X10,0X10,0X10,0X10,0X10,0X10,0X10,0X10,0X10,0X10,0X10,0X10,0X10,
// 1289 0X34,0X9A,0XDF,0XFF,0XFF,0XFF,0XFF,0XFF,0XFF,0XFF,0XFF,0XFF,0XFF,0XFF,0XFF,0XFF,
// 1290 0XFF,0XFF,0XFF,0XFF,0XDF,0X9A,0X34,0X10,0X10,0X10,0X10,0X10,0X10,0X10,0X10,0X10,
// 1291 0X10,0X10,0X10,0X10,0X10,0X10,0X10,0X10,0X10,0X10,0X10,0X10,0X10,0X10,0X10,0X10,
// 1292 0X10,0X10,0X10,0X10,0X10,0X10,0X10,0X10,0X10,0X10,0X10,0X10,0X10,0X10,0X10,0X10,
// 1293 0X10,0X10,0X10,0X10,0X10,0X10,0X10,0X10,0X10,0X10,0X10,0X10,0X10,0X10,0X10,0X10,
// 1294 0X10,0X10,0X10,0X10,0X10,0X10,0X10,0X10,0X10,0X10,0X10,0X10,0X10,0X10,0X10,0X10,
// 1295 0X10,0X10,0X10,0X10,0X10,0X10,0X10,0X10,0X10,0X10,0X10,0X10,0X10,0X10,0X10,0X10,
// 1296 0X10,0X10,0X10,0X10,0X10,0X10,0X10,0X10,0X10,0X10,0X10,0X10,0X10,0X10,0X10,0X10,
// 1297 0X10,0X10,0X10,0X10,0X10,0X10,0X10,0X10,0X10,0X10,0X10,0X10,0X10,0X10,0X10,0X10,
// 1298 0X10,0X10,0X10,0X10,0X10,0X10,0X10,0X10,0X10,0X10,0X10,0X10,0X10,0X10,0X10,0X10,
// 1299 0X10,0X10,0X10,0X10,0X10,0X10,0X10,0X10,0X10,0X10,0X10,0X10,0X10,0X10,0X10,0X10,
// 1300 0X10,0X10,0X10,0X10,0X10,0X10,0X10,0X10,0X10,0X10,0X10,0X10,0X10,0X10,0X10,0X10,
// 1301 0X10,0X10,0X10,0X10,0X10,0X10,0X10,0X10,0X10,0X10,0X10,0X10,0X10,0X10,0X10,0X10,
// 1302 0X10,0X10,0X10,0X10,0X10,0X10,0X10,0X10,0X10,0X10,0X10,0X10,0X10,0X10,0X10,0X10,
// 1303 0X10,0X10,0X10,0X10,0X10,0X10,0X10,0X10,0X10,0X10,0X10,0X10,0X10,0X10,0X10,0X10,
// 1304 0X10,0X10,0X10,0X10,0X10,0X10,0X10,0X10,0X10,0X10,0X10,0X10,0X10,0X10,0X10,0X10,
// 1305 0X10,0X10,0X10,0X10,0X10,0X10,0X10,0X10,0X10,0X10,0X10,0X10,0X10,0X10,0X10,0X10,
// 1306 0X10,0X10,0X10,0X10,0X10,0X10,0X10,0X10,0X10,0X10,0X10,0X10,0X10,0X10,0X10,0X10,
// 1307 0X10,0X10,0X10,0X10,0X10,0X10,0X10,0X10,0X10,0X10,0X10,0X10,0X10,0X10,0X10,0X10,
// 1308 0X10,0X10,0X10,0X10,0X10,0X10,0X10,0X10,0X10,0X10,0X10,0X10,0X10,0X10,0X10,0X10,
// 1309 0X79,0XDF,0XFF,0XFF,0XFF,0XFF,0XFF,0XFF,0XFF,0XFF,0XFF,0XFF,0XFF,0XFF,0XFF,0XFF,
// 1310 0XFF,0XFF,0XFF,0XFF,0XFF,0XDF,0X79,0X10,0X10,0X10,0X10,0X10,0X10,0X10,0X10,0X10,
// 1311 0X10,0X10,0X10,0X10,0X10,0X10,0X10,0X10,0X10,0X10,0X10,0X10,0X10,0X10,0X10,0X10,
// 1312 0X10,0X10,0X10,0X10,0X10,0X10,0X10,0X10,0X10,0X10,0X10,0X10,0X10,0X10,0X10,0X10,
// 1313 0X10,0X10,0X10,0X10,0X10,0X10,0X10,0X10,0X10,0X10,0X10,0X10,0X10,0X10,0X10,0X10,
// 1314 0X10,0X10,0X10,0X10,0X10,0X10,0X10,0X10,0X10,0X10,0X10,0X10,0X10,0X10,0X10,0X10,
// 1315 0X10,0X10,0X10,0X10,0X10,0X10,0X10,0X10,0X10,0X10,0X10,0X10,0X10,0X10,0X10,0X10,
// 1316 0X10,0X10,0X10,0X10,0X10,0X10,0X10,0X10,0X10,0X10,0X10,0X10,0X10,0X10,0X10,0X10,
// 1317 0X10,0X10,0X10,0X10,0X10,0X10,0X10,0X10,0X10,0X10,0X10,0X10,0X10,0X10,0X10,0X10,
// 1318 0X10,0X10,0X10,0X10,0X10,0X10,0X10,0X10,0X10,0X10,0X10,0X10,0X10,0X10,0X10,0X10,
// 1319 0X10,0X10,0X10,0X10,0X10,0X10,0X10,0X10,0X10,0X10,0X10,0X10,0X10,0X10,0X10,0X10,
// 1320 0X10,0X10,0X10,0X10,0X10,0X10,0X10,0X10,0X10,0X10,0X10,0X10,0X10,0X10,0X10,0X10,
// 1321 0X10,0X10,0X10,0X10,0X10,0X10,0X10,0X10,0X10,0X10,0X10,0X10,0X10,0X10,0X10,0X10,
// 1322 0X10,0X10,0X10,0X10,0X10,0X10,0X10,0X10,0X10,0X10,0X10,0X10,0X10,0X10,0X10,0X10,
// 1323 0X10,0X10,0X10,0X10,0X10,0X10,0X10,0X10,0X10,0X10,0X10,0X10,0X10,0X10,0X10,0X10,
// 1324 0X10,0X10,0X10,0X10,0X10,0X10,0X10,0X10,0X10,0X10,0X10,0X10,0X10,0X10,0X10,0X10,
// 1325 0X10,0X10,0X10,0X10,0X10,0X10,0X10,0X10,0X10,0X10,0X10,0X10,0X10,0X10,0X10,0X10,
// 1326 0X10,0X10,0X10,0X10,0X10,0X10,0X10,0X10,0X10,0X10,0X10,0X10,0X10,0X10,0X10,0X10,
// 1327 0X10,0X10,0X10,0X10,0X10,0X10,0X10,0X10,0X10,0X10,0X10,0X10,0X10,0X10,0X10,0X10,
// 1328 0X10,0X10,0X10,0X10,0X10,0X10,0X10,0X10,0X10,0X10,0X10,0X10,0X10,0X10,0X10,0X75,
// 1329 0XDF,0XFF,0XFF,0XFF,0XFF,0XFF,0XFF,0XFF,0XFF,0XFF,0XFF,0XFF,0XFF,0XFF,0XFF,0XFF,
// 1330 0XFF,0XFF,0XFF,0XFF,0XFF,0XFF,0XDF,0X75,0X10,0X10,0X10,0X10,0X10,0X10,0X10,0X10,
// 1331 0X10,0X10,0X10,0X10,0X10,0X10,0X10,0X10,0X10,0X10,0X10,0X10,0X10,0X10,0X10,0X10,
// 1332 0X10,0X10,0X10,0X10,0X10,0X10,0X10,0X10,0X10,0X10,0X10,0X10,0X10,0X10,0X10,0X10,
// 1333 0X10,0X10,0X10,0X10,0X10,0X10,0X10,0X10,0X10,0X10,0X10,0X10,0X10,0X10,0X10,0X10,
// 1334 0X10,0X10,0X10,0X10,0X10,0X10,0X10,0X10,0X10,0X10,0X10,0X10,0X10,0X10,0X10,0X10,
// 1335 0X10,0X10,0X10,0X10,0X10,0X10,0X10,0X10,0X10,0X10,0X10,0X10,0X10,0X10,0X10,0X10,
// 1336 0X10,0X10,0X10,0X10,0X10,0X10,0X10,0X10,0X10,0X10,0X10,0X10,0X10,0X10,0X10,0X10,
// 1337 0X10,0X10,0X10,0X10,0X10,0X10,0X10,0X10,0X10,0X10,0X10,0X10,0X10,0X10,0X10,0X10,
// 1338 0X10,0X10,0X10,0X10,0X10,0X10,0X10,0X10,0X10,0X10,0X10,0X10,0X10,0X10,0X10,0X10,
// 1339 0X10,0X10,0X10,0X10,0X10,0X10,0X10,0X10,0X10,0X10,0X10,0X10,0X10,0X10,0X10,0X10,
// 1340 0X10,0X10,0X10,0X10,0X10,0X10,0X10,0X10,0X10,0X10,0X10,0X10,0X10,0X10,0X10,0X10,
// 1341 0X10,0X10,0X10,0X10,0X10,0X10,0X10,0X10,0X10,0X10,0X10,0X10,0X10,0X10,0X10,0X10,
// 1342 0X10,0X10,0X10,0X10,0X10,0X10,0X10,0X10,0X10,0X10,0X10,0X10,0X10,0X10,0X10,0X10,
// 1343 0X10,0X10,0X10,0X10,0X10,0X10,0X10,0X10,0X10,0X10,0X10,0X10,0X10,0X10,0X10,0X10,
// 1344 0X10,0X10,0X10,0X10,0X10,0X10,0X10,0X10,0X10,0X10,0X10,0X10,0X10,0X10,0X10,0X10,
// 1345 0X10,0X10,0X10,0X10,0X10,0X10,0X10,0X10,0X10,0X10,0X10,0X10,0X10,0X10,0X10,0X10,
// 1346 0X10,0X10,0X10,0X10,0X10,0X10,0X10,0X10,0X10,0X10,0X10,0X10,0X10,0X10,0X10,0X10,
// 1347 0X10,0X10,0X10,0X10,0X10,0X10,0X10,0X10,0X10,0X10,0X10,0X10,0X10,0X10,0X10,0X10,
// 1348 0X10,0X10,0X10,0X10,0X10,0X10,0X10,0X10,0X10,0X10,0X10,0X10,0X10,0X10,0X55,0XBA,
// 1349 0XFF,0XFF,0XFF,0XFF,0XFF,0XFF,0XFF,0XFF,0XFF,0XFF,0XFF,0XFF,0XFF,0XFF,0XFF,0XFF,
// 1350 0XFF,0XFF,0XFF,0XFF,0XFF,0XFF,0XFF,0XBA,0X55,0X10,0X10,0X10,0X10,0X10,0X10,0X10,
// 1351 0X10,0X10,0X10,0X10,0X10,0X10,0X10,0X10,0X10,0X10,0X10,0X10,0X10,0X10,0X10,0X10,
// 1352 0X10,0X10,0X10,0X10,0X10,0X10,0X10,0X10,0X10,0X10,0X10,0X10,0X10,0X10,0X10,0X10,
// 1353 0X10,0X10,0X10,0X10,0X10,0X10,0X10,0X10,0X10,0X10,0X10,0X10,0X10,0X10,0X10,0X10,
// 1354 0X10,0X10,0X10,0X10,0X10,0X10,0X10,0X10,0X10,0X10,0X10,0X10,0X10,0X10,0X10,0X10,
// 1355 0X10,0X10,0X10,0X10,0X10,0X10,0X10,0X10,0X10,0X10,0X10,0X10,0X10,0X10,0X10,0X10,
// 1356 0X10,0X10,0X10,0X10,0X10,0X10,0X10,0X10,0X10,0X10,0X10,0X10,0X10,0X10,0X10,0X10,
// 1357 0X10,0X10,0X10,0X10,0X10,0X10,0X10,0X10,0X10,0X10,0X10,0X10,0X10,0X10,0X10,0X10,
// 1358 0X10,0X10,0X10,0X10,0X10,0X10,0X10,0X10,0X10,0X10,0X10,0X10,0X10,0X10,0X10,0X10,
// 1359 0X10,0X10,0X10,0X10,0X10,0X10,0X10,0X10,0X10,0X10,0X10,0X10,0X10,0X10,0X10,0X10,
// 1360 0X10,0X10,0X10,0X10,0X10,0X10,0X10,0X10,0X10,0X10,0X10,0X10,0X10,0X10,0X10,0X10,
// 1361 0X10,0X10,0X10,0X10,0X10,0X10,0X10,0X10,0X10,0X10,0X10,0X10,0X10,0X10,0X10,0X10,
// 1362 0X10,0X10,0X10,0X10,0X10,0X10,0X10,0X10,0X10,0X10,0X10,0X10,0X10,0X10,0X10,0X10,
// 1363 0X10,0X10,0X10,0X10,0X10,0X10,0X10,0X10,0X10,0X10,0X10,0X10,0X10,0X10,0X10,0X10,
// 1364 0X10,0X10,0X10,0X10,0X10,0X10,0X10,0X10,0X10,0X10,0X10,0X10,0X10,0X10,0X10,0X10,
// 1365 0X10,0X10,0X10,0X10,0X10,0X10,0X10,0X10,0X10,0X10,0X10,0X10,0X10,0X10,0X10,0X10,
// 1366 0X10,0X10,0X10,0X10,0X10,0X10,0X10,0X10,0X10,0X10,0X10,0X10,0X10,0X10,0X10,0X10,
// 1367 0X10,0X10,0X10,0X10,0X10,0X10,0X10,0X10,0X10,0X10,0X10,0X10,0X10,0X10,0X10,0X10,
// 1368 0X10,0X10,0X10,0X10,0X10,0X10,0X10,0X10,0X10,0X10,0X10,0X10,0X10,0X55,0XBA,0XFF,
// 1369 0XFF,0XFF,0XFF,0XFF,0XFF,0XFF,0XFF,0XFF,0XFF,0XFF,0XFF,0XFF,0XFF,0XFF,0XFF,0XFF,
// 1370 0XFF,0XFF,0XFF,0XFF,0XFF,0XFF,0XFF,0XFF,0XBA,0X55,0X10,0X10,0X10,0X10,0X10,0X10,
// 1371 0X10,0X10,0X10,0X10,0X10,0X10,0X10,0X10,0X10,0X10,0X10,0X10,0X10,0X10,0X10,0X10,
// 1372 0X10,0X10,0X10,0X10,0X10,0X10,0X10,0X10,0X10,0X10,0X10,0X10,0X10,0X10,0X10,0X10,
// 1373 0X10,0X10,0X10,0X10,0X10,0X10,0X10,0X10,0X10,0X10,0X10,0X10,0X10,0X10,0X10,0X10,
// 1374 0X10,0X10,0X10,0X10,0X10,0X10,0X10,0X10,0X10,0X10,0X10,0X10,0X10,0X10,0X10,0X10,
// 1375 0X10,0X10,0X10,0X10,0X10,0X10,0X10,0X10,0X10,0X10,0X10,0X10,0X10,0X10,0X10,0X10,
// 1376 0X10,0X10,0X10,0X10,0X10,0X10,0X10,0X10,0X10,0X10,0X10,0X10,0X10,0X10,0X10,0X10,
// 1377 0X10,0X10,0X10,0X10,0X10,0X10,0X10,0X10,0X10,0X10,0X10,0X10,0X10,0X10,0X10,0X10,
// 1378 0X10,0X10,0X10,0X10,0X10,0X10,0X10,0X10,0X10,0X10,0X10,0X10,0X10,0X10,0X10,0X10,
// 1379 0X10,0X10,0X10,0X10,0X10,0X10,0X10,0X10,0X10,0X10,0X10,0X10,0X10,0X10,0X10,0X10,
// 1380 0X10,0X10,0X10,0X10,0X10,0X10,0X10,0X10,0X10,0X10,0X10,0X10,0X10,0X10,0X10,0X10,
// 1381 0X10,0X10,0X10,0X10,0X10,0X10,0X10,0X10,0X10,0X10,0X10,0X10,0X10,0X10,0X10,0X10,
// 1382 0X10,0X10,0X10,0X10,0X10,0X10,0X10,0X10,0X10,0X10,0X10,0X10,0X10,0X10,0X10,0X10,
// 1383 0X10,0X10,0X10,0X10,0X10,0X10,0X10,0X10,0X10,0X10,0X10,0X10,0X10,0X10,0X10,0X10,
// 1384 0X10,0X10,0X10,0X10,0X10,0X10,0X10,0X10,0X10,0X10,0X10,0X10,0X10,0X10,0X10,0X10,
// 1385 0X10,0X10,0X10,0X10,0X10,0X10,0X10,0X10,0X10,0X10,0X10,0X10,0X10,0X10,0X10,0X10,
// 1386 0X10,0X10,0X10,0X10,0X10,0X10,0X10,0X10,0X10,0X10,0X10,0X10,0X10,0X10,0X10,0X10,
// 1387 0X10,0X10,0X10,0X10,0X10,0X10,0X10,0X10,0X10,0X10,0X10,0X10,0X10,0X10,0X10,0X10,
// 1388 0X10,0X10,0X10,0X10,0X10,0X10,0X10,0X10,0X10,0X10,0X10,0X10,0X34,0X9A,0XDF,0XFF,
// 1389 0XFF,0XFF,0XFF,0XFF,0XFF,0XFF,0XFF,0XFF,0XFF,0XFF,0XFF,0XFF,0XFF,0XFF,0XFF,0XFF,
// 1390 0XFF,0XFF,0XFF,0XFF,0XFF,0XFF,0XFF,0XFF,0XDF,0X9A,0X34,0X10,0X10,0X10,0X10,0X10,
// 1391 0X10,0X10,0X10,0X10,0X10,0X10,0X10,0X10,0X10,0X10,0X10,0X10,0X10,0X10,0X10,0X10,
// 1392 0X10,0X10,0X10,0X10,0X10,0X10,0X10,0X10,0X10,0X10,0X10,0X10,0X10,0X10,0X10,0X10,
// 1393 0X10,0X10,0X10,0X10,0X10,0X10,0X10,0X10,0X10,0X10,0X10,0X10,0X10,0X10,0X10,0X10,
// 1394 0X10,0X10,0X10,0X10,0X10,0X10,0X10,0X10,0X10,0X10,0X10,0X10,0X10,0X10,0X10,0X10,
// 1395 0X10,0X10,0X10,0X10,0X10,0X10,0X10,0X10,0X10,0X10,0X10,0X10,0X10,0X10,0X10,0X10,
// 1396 0X10,0X10,0X10,0X10,0X10,0X10,0X10,0X10,0X10,0X10,0X10,0X10,0X10,0X10,0X10,0X10,
// 1397 0X10,0X10,0X10,0X10,0X10,0X10,0X10,0X10,0X10,0X10,0X10,0X10,0X10,0X10,0X10,0X10,
// 1398 0X10,0X10,0X10,0X10,0X10,0X10,0X10,0X10,0X10,0X10,0X10,0X10,0X10,0X10,0X10,0X10,
// 1399 0X10,0X10,0X10,0X10,0X10,0X10,0X10,0X10,0X10,0X10,0X10,0X10,0X10,0X10,0X10,0X10,
// 1400 0X10,0X10,0X10,0X10,0X10,0X10,0X10,0X10,0X10,0X10,0X10,0X10,0X10,0X10,0X10,0X10,
// 1401 0X10,0X10,0X10,0X10,0X10,0X10,0X10,0X10,0X10,0X10,0X10,0X10,0X10,0X10,0X10,0X10,
// 1402 0X10,0X10,0X10,0X10,0X10,0X10,0X10,0X10,0X10,0X10,0X10,0X10,0X10,0X10,0X10,0X10,
// 1403 0X10,0X10,0X10,0X10,0X10,0X10,0X10,0X10,0X10,0X10,0X10,0X10,0X10,0X10,0X10,0X10,
// 1404 0X10,0X10,0X10,0X10,0X10,0X10,0X10,0X10,0X10,0X10,0X10,0X10,0X10,0X10,0X10,0X10,
// 1405 0X10,0X10,0X10,0X10,0X10,0X10,0X10,0X10,0X10,0X10,0X10,0X10,0X10,0X10,0X10,0X10,
// 1406 0X10,0X10,0X10,0X10,0X10,0X10,0X10,0X10,0X10,0X10,0X10,0X10,0X10,0X10,0X10,0X10,
// 1407 0X10,0X10,0X10,0X10,0X10,0X10,0X10,0X10,0X10,0X10,0X10,0X10,0X10,0X10,0X10,0X10,
// 1408 0X10,0X10,0X10,0X10,0X10,0X10,0X10,0X10,0X10,0X10,0X10,0X34,0X79,0XDF,0XFF,0XFF,
// 1409 0XFF,0XFF,0XFF,0XFF,0XFF,0XFF,0XFF,0XFF,0XFF,0XFF,0XFF,0XFF,0XFF,0XFF,0XFF,0XFF,
// 1410 0XFF,0XFF,0XFF,0XFF,0XFF,0XFF,0XFF,0XFF,0XFF,0XDF,0X79,0X34,0X10,0X10,0X10,0X10,
// 1411 0X10,0X10,0X10,0X10,0X10,0X10,0X10,0X10,0X10,0X10,0X10,0X10,0X10,0X10,0X10,0X10,
// 1412 0X10,0X10,0X10,0X10,0X10,0X10,0X10,0X10,0X10,0X10,0X10,0X10,0X10,0X10,0X10,0X10,
// 1413 0X10,0X10,0X10,0X10,0X10,0X10,0X10,0X10,0X10,0X10,0X10,0X10,0X10,0X10,0X10,0X10,
// 1414 0X10,0X10,0X10,0X10,0X10,0X10,0X10,0X10,0X10,0X10,0X10,0X10,0X10,0X10,0X10,0X10,
// 1415 0X10,0X10,0X10,0X10,0X10,0X10,0X10,0X10,0X10,0X10,0X10,0X10,0X10,0X10,0X10,0X10,
// 1416 0X10,0X10,0X10,0X10,0X10,0X10,0X10,0X10,0X10,0X10,0X10,0X10,0X10,0X10,0X10,0X10,
// 1417 0X10,0X10,0X10,0X10,0X10,0X10,0X10,0X10,0X10,0X10,0X10,0X10,0X10,0X10,0X10,0X10,
// 1418 0X10,0X10,0X10,0X10,0X10,0X10,0X10,0X10,0X10,0X10,0X10,0X10,0X10,0X10,0X10,0X10,
// 1419 0X10,0X10,0X10,0X10,0X10,0X10,0X10,0X10,0X10,0X10,0X10,0X10,0X10,0X10,0X10,0X10,
// 1420 0X10,0X10,0X10,0X10,0X10,0X10,0X10,0X10,0X10,0X10,0X10,0X10,0X10,0X10,0X10,0X10,
// 1421 0X10,0X10,0X10,0X10,0X10,0X10,0X10,0X10,0X10,0X10,0X10,0X10,0X10,0X10,0X10,0X10,
// 1422 0X10,0X10,0X10,0X10,0X10,0X10,0X10,0X10,0X10,0X10,0X10,0X10,0X10,0X10,0X10,0X10,
// 1423 0X10,0X10,0X10,0X10,0X10,0X10,0X10,0X10,0X10,0X10,0X10,0X10,0X10,0X10,0X10,0X10,
// 1424 0X10,0X10,0X10,0X10,0X10,0X10,0X10,0X10,0X10,0X10,0X10,0X10,0X10,0X10,0X10,0X10,
// 1425 0X10,0X10,0X10,0X10,0X10,0X10,0X10,0X10,0X10,0X10,0X10,0X10,0X10,0X10,0X10,0X10,
// 1426 0X10,0X10,0X10,0X10,0X10,0X10,0X10,0X10,0X10,0X10,0X10,0X10,0X10,0X10,0X10,0X10,
// 1427 0X10,0X10,0X10,0X10,0X10,0X10,0X10,0X10,0X10,0X10,0X10,0X10,0X10,0X10,0X10,0X10,
// 1428 0X10,0X10,0X10,0X10,0X10,0X10,0X10,0X10,0X10,0X10,0X34,0X79,0XDF,0XFF,0XFF,0XFF,
// 1429 0XFF,0XFF,0XFF,0XFF,0XFF,0XFF,0XFF,0XFF,0XFF,0XFF,0XFF,0XFF,0XFF,0XFF,0XFF,0XFF,
// 1430 0XFF,0XFF,0XFF,0XFF,0XFF,0XFF,0XFF,0XFF,0XFF,0XFF,0XDF,0X79,0X34,0X10,0X10,0X10,
// 1431 0X10,0X10,0X10,0X10,0X10,0X10,0X10,0X10,0X10,0X10,0X10,0X10,0X10,0X10,0X10,0X10,
// 1432 0X10,0X10,0X10,0X10,0X10,0X10,0X10,0X10,0X10,0X10,0X10,0X10,0X10,0X10,0X10,0X10,
// 1433 0X10,0X10,0X10,0X10,0X10,0X10,0X10,0X10,0X10,0X10,0X10,0X10,0X10,0X10,0X10,0X10,
// 1434 0X10,0X10,0X10,0X10,0X10,0X10,0X10,0X10,0X10,0X10,0X10,0X10,0X10,0X10,0X10,0X10,
// 1435 0X10,0X10,0X10,0X10,0X10,0X10,0X10,0X10,0X10,0X10,0X10,0X10,0X10,0X10,0X10,0X10,
// 1436 0X10,0X10,0X10,0X10,0X10,0X10,0X10,0X10,0X10,0X10,0X10,0X10,0X10,0X10,0X10,0X10,
// 1437 0X10,0X10,0X10,0X10,0X10,0X10,0X10,0X10,0X10,0X10,0X10,0X10,0X10,0X10,0X10,0X10,
// 1438 0X10,0X10,0X10,0X10,0X10,0X10,0X10,0X10,0X10,0X10,0X10,0X10,0X10,0X10,0X10,0X10,
// 1439 0X10,0X10,0X10,0X10,0X10,0X10,0X10,0X10,0X10,0X10,0X10,0X10,0X10,0X10,0X10,0X10,
// 1440 0X10,0X10,0X10,0X10,0X10,0X10,0X10,0X10,0X10,0X10,0X10,0X10,0X10,0X10,0X10,0X10,
// 1441 0X10,0X10,0X10,0X10,0X10,0X10,0X10,0X10,0X10,0X10,0X10,0X10,0X10,0X10,0X10,0X10,
// 1442 0X10,0X10,0X10,0X10,0X10,0X10,0X10,0X10,0X10,0X10,0X10,0X10,0X10,0X10,0X10,0X10,
// 1443 0X10,0X10,0X10,0X10,0X10,0X10,0X10,0X10,0X10,0X10,0X10,0X10,0X10,0X10,0X10,0X10,
// 1444 0X10,0X10,0X10,0X10,0X10,0X10,0X10,0X10,0X10,0X10,0X10,0X10,0X10,0X10,0X10,0X10,
// 1445 0X10,0X10,0X10,0X10,0X10,0X10,0X10,0X10,0X10,0X10,0X10,0X10,0X10,0X10,0X10,0X10,
// 1446 0X10,0X10,0X10,0X10,0X10,0X10,0X10,0X10,0X10,0X10,0X10,0X10,0X10,0X10,0X10,0X10,
// 1447 0X10,0X10,0X10,0X10,0X10,0X10,0X10,0X10,0X10,0X10,0X10,0X10,0X10,0X10,0X10,0X10,
// 1448 0X10,0X10,0X10,0X10,0X10,0X10,0X10,0X10,0X10,0X10,0X75,0XBE,0XFF,0XFF,0XFF,0XFF,
// 1449 0XFF,0XFF,0XFF,0XFF,0XFF,0XFF,0XFF,0XFF,0XFF,0XFF,0XFF,0XFF,0XFF,0XFF,0XFF,0XFF,
// 1450 0XFF,0XFF,0XFF,0XFF,0XFF,0XFF,0XFF,0XFF,0XFF,0XFF,0XFF,0XBE,0X75,0X10,0X10,0X10,
// 1451 0X10,0X10,0X10,0X10,0X10,0X10,0X10,0X10,0X10,0X10,0X10,0X10,0X10,0X10,0X10,0X10,
// 1452 0X10,0X10,0X10,0X10,0X10,0X10,0X10,0X10,0X10,0X10,0X10,0X10,0X10,0X10,0X10,0X10,
// 1453 0X10,0X10,0X10,0X10,0X10,0X10,0X10,0X10,0X10,0X10,0X10,0X10,0X10,0X10,0X10,0X10,
// 1454 0X10,0X10,0X10,0X10,0X10,0X10,0X10,0X10,0X10,0X10,0X10,0X10,0X10,0X10,0X10,0X10,
// 1455 0X10,0X10,0X10,0X10,0X10,0X10,0X10,0X10,0X10,0X10,0X10,0X10,0X10,0X10,0X10,0X10,
// 1456 0X10,0X10,0X10,0X10,0X10,0X10,0X10,0X10,0X10,0X10,0X10,0X10,0X10,0X10,0X10,0X10,
// 1457 0X10,0X10,0X10,0X10,0X10,0X10,0X10,0X10,0X10,0X10,0X10,0X10,0X10,0X10,0X10,0X10,
// 1458 0X10,0X10,0X10,0X10,0X10,0X10,0X10,0X10,0X10,0X10,0X10,0X10,0X10,0X10,0X10,0X10,
// 1459 0X10,0X10,0X10,0X10,0X10,0X10,0X10,0X10,0X10,0X10,0X10,0X10,0X10,0X10,0X10,0X10,
// 1460 0X10,0X10,0X10,0X10,0X10,0X10,0X10,0X10,0X10,0X10,0X10,0X10,0X10,0X10,0X10,0X10,
// 1461 0X10,0X10,0X10,0X10,0X10,0X10,0X10,0X10,0X10,0X10,0X10,0X10,0X10,0X10,0X10,0X10,
// 1462 0X10,0X10,0X10,0X10,0X10,0X10,0X10,0X10,0X10,0X10,0X10,0X10,0X10,0X10,0X10,0X10,
// 1463 0X10,0X10,0X10,0X10,0X10,0X10,0X10,0X10,0X10,0X10,0X10,0X10,0X10,0X10,0X10,0X10,
// 1464 0X10,0X10,0X10,0X10,0X10,0X10,0X10,0X10,0X10,0X10,0X10,0X10,0X10,0X10,0X10,0X10,
// 1465 0X10,0X10,0X10,0X10,0X10,0X10,0X10,0X10,0X10,0X10,0X10,0X10,0X10,0X10,0X10,0X10,
// 1466 0X10,0X10,0X10,0X10,0X10,0X10,0X10,0X10,0X10,0X10,0X10,0X10,0X10,0X10,0X10,0X10,
// 1467 0X10,0X10,0X10,0X10,0X10,0X10,0X10,0X10,0X10,0X10,0X10,0X10,0X10,0X10,0X10,0X10,
// 1468 0X10,0X10,0X10,0X10,0X10,0X10,0X10,0X10,0X10,0X55,0XBE,0XFF,0XFF,0XFF,0XFF,0XFF,
// 1469 0XFF,0XFF,0XFF,0XFF,0XFF,0XFF,0XFF,0XFF,0XFF,0XFF,0XFF,0XFF,0XFF,0XFF,0XFF,0XFF,
// 1470 0XFF,0XFF,0XFF,0XFF,0XFF,0XFF,0XFF,0XFF,0XFF,0XFF,0XFF,0XFF,0XBE,0X55,0X10,0X10,
// 1471 0X10,0X10,0X10,0X10,0X10,0X10,0X10,0X10,0X10,0X10,0X10,0X10,0X10,0X10,0X10,0X10,
// 1472 0X10,0X10,0X10,0X10,0X10,0X10,0X10,0X10,0X10,0X10,0X10,0X10,0X10,0X10,0X10,0X10,
// 1473 0X10,0X10,0X10,0X10,0X10,0X10,0X10,0X10,0X10,0X10,0X10,0X10,0X10,0X10,0X10,0X10,
// 1474 0X10,0X10,0X10,0X10,0X10,0X10,0X10,0X10,0X10,0X10,0X10,0X10,0X10,0X10,0X10,0X10,
// 1475 0X10,0X10,0X10,0X10,0X10,0X10,0X10,0X10,0X10,0X10,0X10,0X10,0X10,0X10,0X10,0X10,
// 1476 0X10,0X10,0X10,0X10,0X10,0X10,0X10,0X10,0X10,0X10,0X10,0X10,0X10,0X10,0X10,0X10,
// 1477 0X10,0X10,0X10,0X10,0X10,0X10,0X10,0X10,0X10,0X10,0X10,0X10,0X10,0X10,0X10,0X10,
// 1478 0X10,0X10,0X10,0X10,0X10,0X10,0X10,0X10,0X10,0X10,0X10,0X10,0X10,0X10,0X10,0X10,
// 1479 0X10,0X10,0X10,0X10,0X10,0X10,0X10,0X10,0X10,0X10,0X10,0X10,0X10,0X10,0X10,0X10,
// 1480 0X10,0X10,0X10,0X10,0X10,0X10,0X10,0X10,0X10,0X10,0X10,0X10,0X10,0X10,0X10,0X10,
// 1481 0X10,0X10,0X10,0X10,0X10,0X10,0X10,0X10,0X10,0X10,0X10,0X10,0X10,0X10,0X10,0X10,
// 1482 0X10,0X10,0X10,0X10,0X10,0X10,0X10,0X10,0X10,0X10,0X10,0X10,0X10,0X10,0X10,0X10,
// 1483 0X10,0X10,0X10,0X10,0X10,0X10,0X10,0X10,0X10,0X10,0X10,0X10,0X10,0X10,0X10,0X10,
// 1484 0X10,0X10,0X10,0X10,0X10,0X10,0X10,0X10,0X10,0X10,0X10,0X10,0X10,0X10,0X10,0X10,
// 1485 0X10,0X10,0X10,0X10,0X10,0X10,0X10,0X10,0X10,0X10,0X10,0X10,0X10,0X10,0X10,0X10,
// 1486 0X10,0X10,0X10,0X10,0X10,0X10,0X10,0X10,0X10,0X10,0X10,0X10,0X10,0X10,0X10,0X10,
// 1487 0X10,0X10,0X10,0X10,0X10,0X10,0X10,0X10,0X10,0X10,0X10,0X10,0X10,0X10,0X10,0X10,
// 1488 0X10,0X10,0X10,0X10,0X10,0X10,0X10,0X10,0X55,0X9A,0XFF,0XFF,0XFF,0XFF,0XFF,0XFF,
// 1489 0XFF,0XFF,0XFF,0XFF,0XFF,0XFF,0XFF,0XFF,0XFF,0XFF,0XFF,0XFF,0XFF,0XFF,0XFF,0XFF,
// 1490 0XFF,0XFF,0XFF,0XFF,0XFF,0XFF,0XFF,0XFF,0XFF,0XFF,0XFF,0XFF,0XFF,0X9A,0X55,0X10,
// 1491 0X10,0X10,0X10,0X10,0X10,0X10,0X10,0X10,0X10,0X10,0X10,0X10,0X10,0X10,0X10,0X10,
// 1492 0X10,0X10,0X10,0X10,0X10,0X10,0X10,0X10,0X10,0X10,0X10,0X10,0X10,0X10,0X10,0X10,
// 1493 0X10,0X10,0X10,0X10,0X10,0X10,0X10,0X10,0X10,0X10,0X10,0X10,0X10,0X10,0X10,0X10,
// 1494 0X10,0X10,0X10,0X10,0X10,0X10,0X10,0X10,0X10,0X10,0X10,0X10,0X10,0X10,0X10,0X10,
// 1495 0X10,0X10,0X10,0X10,0X10,0X10,0X10,0X10,0X10,0X10,0X10,0X10,0X10,0X10,0X10,0X10,
// 1496 0X10,0X10,0X10,0X10,0X10,0X10,0X10,0X10,0X10,0X10,0X10,0X10,0X10,0X10,0X10,0X10,
// 1497 0X10,0X10,0X10,0X10,0X10,0X10,0X10,0X10,0X10,0X10,0X10,0X10,0X10,0X10,0X10,0X10,
// 1498 0X10,0X10,0X10,0X10,0X10,0X10,0X10,0X10,0X10,0X10,0X10,0X10,0X10,0X10,0X10,0X10,
// 1499 0X10,0X10,0X10,0X10,0X10,0X10,0X10,0X10,0X10,0X10,0X10,0X10,0X10,0X10,0X10,0X10,
// 1500 0X10,0X10,0X10,0X10,0X10,0X10,0X10,0X10,0X10,0X10,0X10,0X10,0X10,0X10,0X10,0X10,
// 1501 0X10,0X10,0X10,0X10,0X10,0X10,0X10,0X10,0X10,0X10,0X10,0X10,0X10,0X10,0X10,0X10,
// 1502 0X10,0X10,0X10,0X10,0X10,0X10,0X10,0X10,0X10,0X10,0X10,0X10,0X10,0X10,0X10,0X10,
// 1503 0X10,0X10,0X10,0X10,0X10,0X10,0X10,0X10,0X10,0X10,0X10,0X10,0X10,0X10,0X10,0X10,
// 1504 0X10,0X10,0X10,0X10,0X10,0X10,0X10,0X10,0X10,0X10,0X10,0X10,0X10,0X10,0X10,0X10,
// 1505 0X10,0X10,0X10,0X10,0X10,0X10,0X10,0X10,0X10,0X10,0X10,0X10,0X10,0X10,0X10,0X10,
// 1506 0X10,0X10,0X10,0X10,0X10,0X10,0X10,0X10,0X10,0X10,0X10,0X10,0X10,0X10,0X10,0X10,
// 1507 0X10,0X10,0X10,0X10,0X10,0X10,0X10,0X10,0X10,0X10,0X10,0X10,0X10,0X10,0X10,0X10,
// 1508 0X10,0X10,0X10,0X10,0X10,0X10,0X10,0X34,0X9A,0XFF,0XFF,0XFF,0XFF,0XFF,0XFF,0XFF,
// 1509 0XFF,0XFF,0XFF,0XFF,0XFF,0XFF,0XFF,0XFF,0XFF,0XFF,0XFF,0XFF,0XFF,0XFF,0XFF,0XFF,
// 1510 0XFF,0XFF,0XFF,0XFF,0XFF,0XFF,0XFF,0XFF,0XFF,0XFF,0XFF,0XFF,0XFF,0XFF,0X9A,0X34,
// 1511 0X10,0X10,0X10,0X10,0X10,0X10,0X10,0X10,0X10,0X10,0X10,0X10,0X10,0X10,0X10,0X10,
// 1512 0X10,0X10,0X10,0X10,0X10,0X10,0X10,0X10,0X10,0X10,0X10,0X10,0X10,0X10,0X10,0X10,
// 1513 0X10,0X10,0X10,0X10,0X10,0X10,0X10,0X10,0X10,0X10,0X10,0X10,0X10,0X10,0X10,0X10,
// 1514 0X10,0X10,0X10,0X10,0X10,0X10,0X10,0X10,0X10,0X10,0X10,0X10,0X10,0X10,0X10,0X10,
// 1515 0X10,0X10,0X10,0X10,0X10,0X10,0X10,0X10,0X10,0X10,0X10,0X10,0X10,0X10,0X10,0X10,
// 1516 0X10,0X10,0X10,0X10,0X10,0X10,0X10,0X10,0X10,0X10,0X10,0X10,0X10,0X10,0X10,0X10,
// 1517 0X10,0X10,0X10,0X10,0X10,0X10,0X10,0X10,0X10,0X10,0X10,0X10,0X10,0X10,0X10,0X10,
// 1518 0X10,0X10,0X10,0X10,0X10,0X10,0X10,0X10,0X10,0X10,0X10,0X10,0X10,0X10,0X10,0X10,
// 1519 0X10,0X10,0X10,0X10,0X10,0X10,0X10,0X10,0X10,0X10,0X10,0X10,0X10,0X10,0X10,0X10,
// 1520 0X10,0X10,0X10,0X10,0X10,0X10,0X10,0X10,0X10,0X10,0X10,0X10,0X10,0X10,0X10,0X10,
// 1521 0X10,0X10,0X10,0X10,0X10,0X10,0X10,0X10,0X10,0X10,0X10,0X10,0X10,0X10,0X10,0X10,
// 1522 0X10,0X10,0X10,0X10,0X10,0X10,0X10,0X10,0X10,0X10,0X10,0X10,0X10,0X10,0X10,0X10,
// 1523 0X10,0X10,0X10,0X10,0X10,0X10,0X10,0X10,0X10,0X10,0X10,0X10,0X10,0X10,0X10,0X10,
// 1524 0X10,0X10,0X10,0X10,0X10,0X10,0X10,0X10,0X10,0X10,0X10,0X10,0X10,0X10,0X10,0X10,
// 1525 0X10,0X10,0X10,0X10,0X10,0X10,0X10,0X10,0X10,0X10,0X10,0X10,0X10,0X10,0X10,0X10,
// 1526 0X10,0X10,0X10,0X10,0X10,0X10,0X10,0X10,0X10,0X10,0X10,0X10,0X10,0X10,0X10,0X10,
// 1527 0X10,0X10,0X10,0X10,0X10,0X10,0X10,0X10,0X10,0X10,0X10,0X10,0X10,0X10,0X10,0X10,
// 1528 0X10,0X10,0X10,0X10,0X10,0X10,0X34,0X9A,0XDF,0XFF,0XFF,0XFF,0XFF,0XFF,0XFF,0XFF,
// 1529 0XFF,0XFF,0XFF,0XFF,0XFF,0XFF,0XFF,0XFF,0XFF,0XFF,0XFF,0XFF,0XFF,0XFF,0XFF,0XFF,
// 1530 0XFF,0XFF,0XFF,0XFF,0XFF,0XFF,0XFF,0XFF,0XFF,0XFF,0XFF,0XFF,0XFF,0XFF,0XDF,0X9A,
// 1531 0X34,0X10,0X10,0X10,0X10,0X10,0X10,0X10,0X10,0X10,0X10,0X10,0X10,0X10,0X10,0X10,
// 1532 0X10,0X10,0X10,0X10,0X10,0X10,0X10,0X10,0X10,0X10,0X10,0X10,0X10,0X10,0X10,0X10,
// 1533 0X10,0X10,0X10,0X10,0X10,0X10,0X10,0X10,0X10,0X10,0X10,0X10,0X10,0X10,0X10,0X10,
// 1534 0X10,0X10,0X10,0X10,0X10,0X10,0X10,0X10,0X10,0X10,0X10,0X10,0X10,0X10,0X10,0X10,
// 1535 0X10,0X10,0X10,0X10,0X10,0X10,0X10,0X10,0X10,0X10,0X10,0X10,0X10,0X10,0X10,0X10,
// 1536 0X10,0X10,0X10,0X10,0X10,0X10,0X10,0X10,0X10,0X10,0X10,0X10,0X10,0X10,0X10,0X10,
// 1537 0X10,0X10,0X10,0X10,0X10,0X10,0X10,0X10,0X10,0X10,0X10,0X10,0X10,0X10,0X10,0X10,
// 1538 0X10,0X10,0X10,0X10,0X10,0X10,0X10,0X10,0X10,0X10,0X10,0X10,0X10,0X10,0X10,0X10,
// 1539 0X10,0X10,0X10,0X10,0X10,0X10,0X10,0X10,0X10,0X10,0X10,0X10,0X10,0X10,0X10,0X10,
// 1540 0X10,0X10,0X10,0X10,0X10,0X10,0X10,0X10,0X10,0X10,0X10,0X10,0X10,0X10,0X10,0X10,
// 1541 0X10,0X10,0X10,0X10,0X10,0X10,0X10,0X10,0X10,0X10,0X10,0X10,0X10,0X10,0X10,0X10,
// 1542 0X10,0X10,0X10,0X10,0X10,0X10,0X10,0X10,0X10,0X10,0X10,0X10,0X10,0X10,0X10,0X10,
// 1543 0X10,0X10,0X10,0X10,0X10,0X10,0X10,0X10,0X10,0X10,0X10,0X10,0X10,0X10,0X10,0X10,
// 1544 0X10,0X10,0X10,0X10,0X10,0X10,0X10,0X10,0X10,0X10,0X10,0X10,0X10,0X10,0X10,0X10,
// 1545 0X10,0X10,0X10,0X10,0X10,0X10,0X10,0X10,0X10,0X10,0X10,0X10,0X10,0X10,0X10,0X10,
// 1546 0X10,0X10,0X10,0X10,0X10,0X10,0X10,0X10,0X10,0X10,0X10,0X10,0X10,0X10,0X10,0X10,
// 1547 0X10,0X10,0X10,0X10,0X10,0X10,0X10,0X10,0X10,0X10,0X10,0X10,0X10,0X10,0X10,0X10,
// 1548 0X10,0X10,0X10,0X10,0X10,0X10,0X79,0XDF,0XFF,0XFF,0XFF,0XFF,0XFF,0XFF,0XFF,0XFF,
// 1549 0XFF,0XFF,0XFF,0XFF,0XFF,0XFF,0XFF,0XFF,0XFF,0XFF,0XFF,0XFF,0XFF,0XFF,0XFF,0XFF,
// 1550 0XFF,0XFF,0XFF,0XFF,0XFF,0XFF,0XFF,0XFF,0XFF,0XFF,0XFF,0XFF,0XFF,0XFF,0XFF,0XDF,
// 1551 0X79,0X10,0X10,0X10,0X10,0X10,0X10,0X10,0X10,0X10,0X10,0X10,0X10,0X10,0X10,0X10,
// 1552 0X10,0X10,0X10,0X10,0X10,0X10,0X10,0X10,0X10,0X10,0X10,0X10,0X10,0X10,0X10,0X10,
// 1553 0X10,0X10,0X10,0X10,0X10,0X10,0X10,0X10,0X10,0X10,0X10,0X10,0X10,0X10,0X10,0X10,
// 1554 0X10,0X10,0X10,0X10,0X10,0X10,0X10,0X10,0X10,0X10,0X10,0X10,0X10,0X10,0X10,0X10,
// 1555 0X10,0X10,0X10,0X10,0X10,0X10,0X10,0X10,0X10,0X34,0X34,0X34,0X10,0X10,0X10,0X34,
// 1556 0X34,0X34,0X10,0X10,0X34,0X34,0X10,0X10,0X10,0X10,0X34,0X34,0X34,0X10,0X10,0X10,
// 1557 0X10,0X55,0X79,0X79,0X55,0X10,0X10,0X10,0X10,0X10,0X10,0X10,0X10,0X10,0X10,0X10,
// 1558 0X10,0X10,0X10,0X10,0X34,0X34,0X34,0X34,0X34,0X34,0X34,0X34,0X10,0X10,0X10,0X34,
// 1559 0X34,0X34,0X34,0X34,0X34,0X34,0X34,0X10,0X10,0X34,0X34,0X34,0X34,0X34,0X34,0X34,
// 1560 0X34,0X34,0X10,0X10,0X10,0X10,0X55,0X79,0XDF,0X9A,0X55,0X10,0X10,0X10,0X10,0X10,
// 1561 0X10,0X55,0X79,0X79,0X55,0X10,0X10,0X10,0X10,0X10,0X10,0X10,0X10,0X10,0X10,0X10,
// 1562 0X10,0X10,0X10,0X10,0X10,0X10,0X10,0X10,0X10,0X10,0X10,0X10,0X10,0X10,0X10,0X10,
// 1563 0X10,0X10,0X10,0X10,0X10,0X10,0X10,0X10,0X10,0X10,0X10,0X10,0X10,0X10,0X10,0X10,
// 1564 0X10,0X10,0X10,0X10,0X10,0X10,0X10,0X10,0X10,0X10,0X10,0X10,0X10,0X10,0X10,0X10,
// 1565 0X10,0X10,0X10,0X10,0X10,0X10,0X10,0X10,0X10,0X10,0X10,0X10,0X10,0X10,0X10,0X10,
// 1566 0X10,0X10,0X10,0X10,0X10,0X10,0X10,0X10,0X10,0X10,0X10,0X10,0X10,0X10,0X10,0X10,
// 1567 0X10,0X10,0X10,0X10,0X10,0X10,0X10,0X10,0X10,0X10,0X10,0X10,0X10,0X10,0X10,0X10,
// 1568 0X10,0X10,0X10,0X10,0X10,0X75,0XBE,0XFF,0XFF,0XFF,0XFF,0XFF,0XFF,0XFF,0XFF,0XFF,
// 1569 0XFF,0XFF,0XFF,0XFF,0XFF,0XFF,0XFF,0XFF,0XFF,0XFF,0XFF,0XFF,0XFF,0XFF,0XFF,0XFF,
// 1570 0XFF,0XFF,0XFF,0XFF,0XFF,0XFF,0XFF,0XFF,0XFF,0XFF,0XFF,0XFF,0XFF,0XFF,0XFF,0XFF,
// 1571 0XBE,0X75,0X10,0X10,0X10,0X10,0X10,0X10,0X10,0X10,0X10,0X10,0X10,0X10,0X10,0X10,
// 1572 0X10,0X10,0X10,0X10,0X10,0X10,0X10,0X10,0X10,0X10,0X10,0X10,0X10,0X10,0X10,0X10,
// 1573 0X10,0X10,0X10,0X10,0X10,0X10,0X10,0X10,0X10,0X10,0X10,0X10,0X10,0X10,0X10,0X10,
// 1574 0X10,0X10,0X10,0X10,0X10,0X10,0X10,0X10,0X10,0X10,0X10,0X10,0X10,0X10,0X10,0X10,
// 1575 0X10,0X10,0X10,0X10,0X10,0X10,0X10,0X10,0X34,0XFF,0XFF,0XDF,0X10,0X10,0X10,0XDF,
// 1576 0XFF,0XDF,0X10,0X34,0XFF,0XDF,0X10,0X10,0X10,0X55,0XFF,0XFF,0X55,0X10,0X10,0X34,
// 1577 0XDF,0XFF,0XFF,0XFF,0XFF,0XBA,0X10,0X10,0X10,0X10,0X10,0X10,0X10,0X10,0X10,0X10,
// 1578 0X10,0X10,0X10,0X34,0XFF,0XFF,0XFF,0XFF,0XFF,0XFF,0XFF,0XFF,0X79,0X10,0X79,0XFF,
// 1579 0XFF,0XFF,0XFF,0XFF,0XFF,0XFF,0XFF,0X79,0X10,0XDF,0XFF,0XFF,0XFF,0XFF,0XFF,0XFF,
// 1580 0XFF,0XDF,0X10,0X10,0X10,0X9A,0XFF,0XFF,0XFF,0XFF,0XFF,0X9A,0X10,0X10,0X10,0X10,
// 1581 0XDF,0XFF,0XFF,0XFF,0XFF,0XDF,0X34,0X10,0X10,0X10,0X10,0X10,0X10,0X10,0X10,0X10,
// 1582 0X10,0X10,0X10,0X10,0X10,0X10,0X10,0X10,0X10,0X10,0X10,0X10,0X10,0X10,0X10,0X10,
// 1583 0X10,0X10,0X10,0X10,0X10,0X10,0X10,0X10,0X10,0X10,0X10,0X10,0X10,0X10,0X10,0X10,
// 1584 0X10,0X10,0X10,0X10,0X10,0X10,0X10,0X10,0X10,0X10,0X10,0X10,0X10,0X10,0X10,0X10,
// 1585 0X10,0X10,0X10,0X10,0X10,0X10,0X10,0X10,0X10,0X10,0X10,0X10,0X10,0X10,0X10,0X10,
// 1586 0X10,0X10,0X10,0X10,0X10,0X10,0X10,0X10,0X10,0X10,0X10,0X10,0X10,0X10,0X10,0X10,
// 1587 0X10,0X10,0X10,0X10,0X10,0X10,0X10,0X10,0X10,0X10,0X10,0X10,0X10,0X10,0X10,0X10,
// 1588 0X10,0X10,0X10,0X10,0X55,0XBA,0XFF,0XFF,0XFF,0XFF,0XFF,0XFF,0XFF,0XFF,0XFF,0XFF,
// 1589 0XFF,0XFF,0XFF,0XFF,0XFF,0XFF,0XFF,0XFF,0XFF,0XFF,0XFF,0XFF,0XFF,0XFF,0XFF,0XFF,
// 1590 0XFF,0XFF,0XFF,0XFF,0XFF,0XFF,0XFF,0XFF,0XFF,0XFF,0XFF,0XFF,0XFF,0XFF,0XFF,0XFF,
// 1591 0XFF,0XBA,0X55,0X10,0X10,0X10,0X10,0X10,0X10,0X10,0X10,0X10,0X10,0X10,0X10,0X10,
// 1592 0X10,0X10,0X10,0X10,0X10,0X10,0X10,0X10,0X10,0X10,0X10,0X10,0X10,0X10,0X10,0X10,
// 1593 0X10,0X10,0X10,0X10,0X10,0X10,0X10,0X10,0X10,0X10,0X10,0X10,0X10,0X10,0X10,0X10,
// 1594 0X10,0X10,0X10,0X10,0X10,0X10,0X10,0X10,0X10,0X10,0X10,0X10,0X10,0X10,0X10,0X10,
// 1595 0X10,0X10,0X10,0X10,0X10,0X10,0X10,0X10,0X34,0XFF,0XFF,0XDF,0X10,0X10,0X34,0XFF,
// 1596 0XFF,0XDF,0X10,0X34,0XFF,0XDF,0X10,0X10,0X10,0XDF,0XFF,0X79,0X10,0X10,0X10,0XDF,
// 1597 0XFF,0XDF,0X79,0X9A,0XFF,0XFF,0X79,0X10,0X10,0X10,0X10,0X10,0X10,0X10,0X10,0X10,
// 1598 0X10,0X10,0X10,0X34,0XDF,0XDF,0XDF,0XFF,0XFF,0XDF,0XDF,0XDF,0X75,0X10,0X79,0XFF,
// 1599 0XDF,0XDF,0XDF,0XDF,0XDF,0XDF,0XDF,0X75,0X10,0X9A,0XDF,0XDF,0XDF,0XFF,0XDF,0XDF,
// 1600 0XDF,0XBA,0X10,0X10,0X79,0XFF,0XDF,0X9A,0X55,0X9A,0XFF,0XFF,0X55,0X10,0X10,0XDF,
// 1601 0XFF,0XBA,0X75,0X75,0XDF,0XFF,0XDF,0X10,0X10,0X10,0X10,0X10,0X10,0X10,0X10,0X10,
// 1602 0X10,0X10,0X10,0X10,0X10,0X10,0X10,0X10,0X10,0X10,0X10,0X10,0X10,0X10,0X10,0X10,
// 1603 0X10,0X10,0X10,0X10,0X10,0X10,0X10,0X10,0X10,0X10,0X10,0X10,0X10,0X10,0X10,0X10,
// 1604 0X10,0X10,0X10,0X10,0X10,0X10,0X10,0X10,0X10,0X10,0X10,0X10,0X10,0X10,0X10,0X10,
// 1605 0X10,0X10,0X10,0X10,0X10,0X10,0X10,0X10,0X10,0X10,0X10,0X10,0X10,0X10,0X10,0X10,
// 1606 0X10,0X10,0X10,0X10,0X10,0X10,0X10,0X10,0X10,0X10,0X10,0X10,0X10,0X10,0X10,0X10,
// 1607 0X10,0X10,0X10,0X10,0X10,0X10,0X10,0X10,0X10,0X10,0X10,0X10,0X10,0X10,0X10,0X10,
// 1608 0X10,0X10,0X10,0X55,0XBA,0XFF,0XFF,0XFF,0XFF,0XFF,0XFF,0XFF,0XFF,0XFF,0XFF,0XFF,
// 1609 0XFF,0XFF,0XFF,0XFF,0XFF,0XFF,0XFF,0XFF,0XFF,0XFF,0XFF,0XFF,0XFF,0XFF,0XFF,0XFF,
// 1610 0XFF,0XFF,0XFF,0XFF,0XFF,0XFF,0XFF,0XFF,0XFF,0XFF,0XFF,0XFF,0XFF,0XFF,0XFF,0XFF,
// 1611 0XFF,0XFF,0XBA,0X55,0X10,0X10,0X10,0X10,0X10,0X10,0X10,0X10,0X10,0X10,0X10,0X10,
// 1612 0X10,0X10,0X10,0X10,0X10,0X10,0X10,0X10,0X10,0X10,0X10,0X10,0X10,0X10,0X10,0X10,
// 1613 0X10,0X10,0X10,0X10,0X10,0X10,0X10,0X10,0X10,0X10,0X10,0X10,0X10,0X10,0X10,0X10,
// 1614 0X10,0X10,0X10,0X10,0X10,0X10,0X10,0X10,0X10,0X10,0X10,0X10,0X10,0X10,0X10,0X10,
// 1615 0X10,0X10,0X10,0X10,0X10,0X10,0X10,0X10,0X34,0XFF,0XFF,0XFF,0X34,0X10,0X79,0XFF,
// 1616 0XFF,0XDF,0X10,0X34,0XFF,0XDF,0X10,0X10,0XBA,0XFF,0XBA,0X10,0X10,0X10,0X55,0XFF,
// 1617 0XDF,0X10,0X10,0X10,0X79,0XFF,0XDF,0X10,0X10,0X10,0X10,0X10,0X10,0X10,0X10,0X10,
// 1618 0X10,0X10,0X10,0X10,0X10,0X10,0X10,0XDF,0XFF,0X34,0X10,0X10,0X10,0X10,0X79,0XFF,
// 1619 0XDF,0X10,0X10,0X10,0X10,0X10,0X10,0X10,0X10,0X10,0X10,0X10,0X79,0XFF,0XDF,0X10,
// 1620 0X10,0X10,0X10,0X10,0XDF,0XFF,0X55,0X10,0X10,0X10,0XDF,0XFF,0X79,0X10,0X34,0XFF,
// 1621 0XDF,0X10,0X10,0X10,0X10,0XDF,0XFF,0X34,0X10,0X10,0X10,0X10,0X10,0X10,0X10,0X10,
// 1622 0X10,0X10,0X10,0X10,0X10,0X10,0X10,0X10,0X10,0X10,0X10,0X10,0X10,0X10,0X10,0X10,
// 1623 0X10,0X10,0X10,0X10,0X10,0X10,0X10,0X10,0X10,0X10,0X10,0X10,0X10,0X10,0X10,0X10,
// 1624 0X10,0X10,0X10,0X10,0X10,0X10,0X10,0X10,0X10,0X10,0X10,0X10,0X10,0X10,0X10,0X10,
// 1625 0X10,0X10,0X10,0X10,0X10,0X10,0X10,0X10,0X10,0X10,0X10,0X10,0X10,0X10,0X10,0X10,
// 1626 0X10,0X10,0X10,0X10,0X10,0X10,0X10,0X10,0X10,0X10,0X10,0X10,0X10,0X10,0X10,0X10,
// 1627 0X10,0X10,0X10,0X10,0X10,0X10,0X10,0X10,0X10,0X10,0X10,0X10,0X10,0X10,0X10,0X10,
// 1628 0X10,0X10,0X34,0X9A,0XDF,0XFF,0XFF,0XFF,0XFF,0XFF,0XFF,0XFF,0XFF,0XFF,0XFF,0XFF,
// 1629 0XFF,0XFF,0XFF,0XFF,0XFF,0XFF,0XFF,0XFF,0XFF,0XFF,0XFF,0XFF,0XFF,0XFF,0XFF,0XFF,
// 1630 0XFF,0XFF,0XFF,0XFF,0XFF,0XFF,0XFF,0XFF,0XFF,0XFF,0XFF,0XFF,0XFF,0XFF,0XFF,0XFF,
// 1631 0XFF,0XFF,0XDF,0X9A,0X34,0X10,0X10,0X10,0X10,0X10,0X10,0X10,0X10,0X10,0X10,0X10,
// 1632 0X10,0X10,0X10,0X10,0X10,0X10,0X10,0X10,0X10,0X10,0X10,0X10,0X10,0X10,0X10,0X10,
// 1633 0X10,0X10,0X10,0X10,0X10,0X10,0X10,0X10,0X10,0X10,0X10,0X10,0X10,0X10,0X10,0X10,
// 1634 0X10,0X10,0X10,0X10,0X10,0X10,0X10,0X10,0X10,0X10,0X10,0X10,0X10,0X10,0X10,0X10,
// 1635 0X10,0X10,0X10,0X10,0X10,0X10,0X10,0X10,0X34,0XFF,0XFF,0XFF,0X79,0X10,0XBA,0XFF,
// 1636 0XFF,0XDF,0X10,0X34,0XFF,0XDF,0X10,0X75,0XFF,0XDF,0X10,0X10,0X10,0X10,0X79,0XFF,
// 1637 0XDF,0X10,0X10,0X10,0X34,0XDF,0XDF,0X10,0X10,0X10,0X10,0X10,0X10,0X10,0X10,0X10,
// 1638 0X10,0X10,0X10,0X10,0X10,0X10,0X10,0XDF,0XFF,0X34,0X10,0X10,0X10,0X10,0X79,0XFF,
// 1639 0XDF,0X10,0X10,0X10,0X10,0X10,0X10,0X10,0X10,0X10,0X10,0X10,0X79,0XFF,0XDF,0X10,
// 1640 0X10,0X10,0X10,0X10,0X9A,0X9A,0X10,0X10,0X10,0X10,0XDF,0XFF,0X79,0X10,0X34,0XFF,
// 1641 0XDF,0X10,0X10,0X10,0X10,0XDF,0XFF,0X34,0X10,0X10,0X10,0X10,0X10,0X10,0X10,0X10,
// 1642 0X10,0X10,0X10,0X10,0X10,0X10,0X10,0X10,0X10,0X10,0X10,0X10,0X10,0X10,0X10,0X10,
// 1643 0X10,0X10,0X10,0X10,0X10,0X10,0X10,0X10,0X10,0X10,0X10,0X10,0X10,0X10,0X10,0X10,
// 1644 0X10,0X10,0X10,0X10,0X10,0X10,0X10,0X10,0X10,0X10,0X10,0X10,0X10,0X10,0X10,0X10,
// 1645 0X10,0X10,0X10,0X10,0X10,0X10,0X10,0X10,0X10,0X10,0X10,0X10,0X10,0X10,0X10,0X10,
// 1646 0X10,0X10,0X10,0X10,0X10,0X10,0X10,0X10,0X10,0X10,0X10,0X10,0X10,0X10,0X10,0X10,
// 1647 0X10,0X10,0X10,0X10,0X10,0X10,0X10,0X10,0X10,0X10,0X10,0X10,0X10,0X10,0X10,0X10,
// 1648 0X10,0X34,0X9A,0XDF,0XFF,0XFF,0XFF,0XFF,0XFF,0XFF,0XFF,0XFF,0XFF,0XFF,0XFF,0XFF,
// 1649 0XFF,0XFF,0XFF,0XFF,0XFF,0XFF,0XFF,0XFF,0XFF,0XFF,0XFF,0XFF,0XFF,0XFF,0XFF,0XFF,
// 1650 0XFF,0XFF,0XFF,0XFF,0XFF,0XFF,0XFF,0XFF,0XFF,0XFF,0XFF,0XFF,0XFF,0XFF,0XFF,0XFF,
// 1651 0XFF,0XFF,0XFF,0XDF,0X9A,0X34,0X10,0X10,0X10,0X10,0X10,0X10,0X10,0X10,0X10,0X10,
// 1652 0X10,0X10,0X10,0X10,0X10,0X10,0X10,0X10,0X10,0X10,0X10,0X10,0X10,0X10,0X10,0X10,
// 1653 0X10,0X10,0X10,0X10,0X10,0X10,0X10,0X10,0X10,0X10,0X10,0X10,0X10,0X10,0X10,0X10,
// 1654 0X10,0X10,0X10,0X10,0X10,0X10,0X10,0X10,0X10,0X10,0X10,0X10,0X10,0X10,0X10,0X10,
// 1655 0X10,0X10,0X10,0X10,0X10,0X10,0X10,0X10,0X34,0XFF,0XFF,0XFF,0XBA,0X10,0XDF,0XFF,
// 1656 0XFF,0XDF,0X10,0X34,0XFF,0XDF,0X34,0XDF,0XFF,0X55,0X10,0X10,0X10,0X10,0X55,0XFF,
// 1657 0XFF,0X75,0X10,0X10,0X10,0X10,0X10,0X10,0X10,0X10,0X10,0X10,0X10,0X10,0X10,0X10,
// 1658 0X10,0X10,0X10,0X10,0X10,0X10,0X10,0XDF,0XFF,0X34,0X10,0X10,0X10,0X10,0X79,0XFF,
// 1659 0XDF,0X10,0X10,0X10,0X10,0X10,0X10,0X10,0X10,0X10,0X10,0X10,0X79,0XFF,0XDF,0X10,
// 1660 0X10,0X10,0X10,0X10,0X10,0X10,0X10,0X10,0X10,0X10,0XDF,0XFF,0X55,0X10,0X10,0XDF,
// 1661 0XDF,0X34,0X10,0X10,0X55,0XFF,0XDF,0X10,0X10,0X10,0X10,0X10,0X10,0X10,0X10,0X10,
// 1662 0X10,0X10,0X10,0X10,0X10,0X10,0X10,0X10,0X10,0X10,0X10,0X10,0X10,0X10,0X10,0X10,
// 1663 0X10,0X10,0X10,0X10,0X10,0X10,0X10,0X10,0X10,0X10,0X10,0X10,0X10,0X10,0X10,0X10,
// 1664 0X10,0X10,0X10,0X10,0X10,0X10,0X10,0X10,0X10,0X10,0X10,0X10,0X10,0X10,0X10,0X10,
// 1665 0X10,0X10,0X10,0X10,0X10,0X10,0X10,0X10,0X10,0X10,0X10,0X10,0X10,0X10,0X10,0X10,
// 1666 0X10,0X10,0X10,0X10,0X10,0X10,0X10,0X10,0X10,0X10,0X10,0X10,0X10,0X10,0X10,0X10,
// 1667 0X10,0X10,0X10,0X10,0X10,0X10,0X10,0X10,0X10,0X10,0X10,0X10,0X10,0X10,0X10,0X10,
// 1668 0X10,0X79,0XDF,0XFF,0XFF,0XFF,0XFF,0XFF,0XFF,0XFF,0XFF,0XFF,0XFF,0XFF,0XFF,0XFF,
// 1669 0XFF,0XFF,0XFF,0XFF,0XFF,0XFF,0XFF,0XFF,0XFF,0XFF,0XFF,0XFF,0XFF,0XFF,0XFF,0XFF,
// 1670 0XFF,0XFF,0XFF,0XFF,0XFF,0XFF,0XFF,0XFF,0XFF,0XFF,0XFF,0XFF,0XFF,0XFF,0XFF,0XFF,
// 1671 0XFF,0XFF,0XFF,0XFF,0XDF,0X79,0X10,0X10,0X10,0X10,0X10,0X10,0X10,0X10,0X10,0X10,
// 1672 0X10,0X10,0X10,0X10,0X10,0X10,0X10,0X10,0X10,0X10,0X10,0X10,0X10,0X10,0X10,0X10,
// 1673 0X10,0X10,0X10,0X10,0X10,0X10,0X10,0X10,0X10,0X10,0X10,0X10,0X10,0X10,0X10,0X10,
// 1674 0X10,0X10,0X10,0X10,0X10,0X10,0X10,0X10,0X10,0X10,0X10,0X10,0X10,0X10,0X10,0X10,
// 1675 0X10,0X10,0X10,0X10,0X10,0X10,0X10,0X10,0X34,0XFF,0XFF,0XFF,0XDF,0X10,0XDF,0XFF,
// 1676 0XFF,0XDF,0X10,0X34,0XFF,0XDF,0XDF,0XFF,0XBA,0X10,0X10,0X10,0X10,0X10,0X10,0XBA,
// 1677 0XFF,0XFF,0XDF,0X55,0X10,0X10,0X10,0X10,0X10,0X10,0X10,0X10,0X10,0X10,0X10,0X10,
// 1678 0X10,0X10,0X10,0X10,0X10,0X10,0X10,0XDF,0XFF,0X34,0X10,0X10,0X10,0X10,0X79,0XFF,
// 1679 0XDF,0X34,0X34,0X34,0X34,0X34,0X10,0X10,0X10,0X10,0X10,0X10,0X79,0XFF,0XDF,0X10,
// 1680 0X10,0X10,0X10,0X10,0X10,0X10,0X10,0X10,0X10,0X55,0XFF,0XDF,0X10,0X10,0X10,0X9A,
// 1681 0XFF,0XDF,0X9A,0XBA,0XDF,0XFF,0X55,0X10,0X10,0X10,0X10,0X10,0X10,0X10,0X10,0X10,
// 1682 0X10,0X10,0X10,0X10,0X10,0X10,0X10,0X10,0X10,0X10,0X10,0X10,0X10,0X10,0X10,0X10,
// 1683 0X10,0X10,0X10,0X10,0X10,0X10,0X10,0X10,0X10,0X10,0X10,0X10,0X10,0X10,0X10,0X10,
// 1684 0X10,0X10,0X10,0X10,0X10,0X10,0X10,0X10,0X10,0X10,0X10,0X10,0X10,0X10,0X10,0X10,
// 1685 0X10,0X10,0X10,0X10,0X10,0X10,0X10,0X10,0X10,0X10,0X10,0X10,0X10,0X10,0X10,0X10,
// 1686 0X10,0X10,0X10,0X10,0X10,0X10,0X10,0X10,0X10,0X10,0X10,0X10,0X10,0X10,0X10,0X10,
// 1687 0X10,0X10,0X10,0X10,0X10,0X10,0X10,0X10,0X10,0X10,0X10,0X10,0X10,0X10,0X10,0X10,
// 1688 0X75,0XDF,0XFF,0XFF,0XFF,0XFF,0XFF,0XFF,0XFF,0XFF,0XFF,0XFF,0XFF,0XFF,0XFF,0XFF,
// 1689 0XFF,0XFF,0XFF,0XFF,0XFF,0XFF,0XFF,0XFF,0XFF,0XFF,0XFF,0XFF,0XFF,0XFF,0XFF,0XFF,
// 1690 0XFF,0XFF,0XFF,0XFF,0XFF,0XFF,0XFF,0XFF,0XFF,0XFF,0XFF,0XFF,0XFF,0XFF,0XFF,0XFF,
// 1691 0XFF,0XFF,0XFF,0XFF,0XFF,0XDF,0X75,0X10,0X10,0X10,0X10,0X10,0X10,0X10,0X10,0X10,
// 1692 0X10,0X10,0X10,0X10,0X10,0X10,0X10,0X10,0X10,0X10,0X10,0X10,0X10,0X10,0X10,0X10,
// 1693 0X10,0X10,0X10,0X10,0X10,0X10,0X10,0X10,0X10,0X10,0X10,0X10,0X10,0X10,0X10,0X10,
// 1694 0X10,0X10,0X10,0X10,0X10,0X10,0X10,0X10,0X10,0X10,0X10,0X10,0X10,0X10,0X10,0X10,
// 1695 0X10,0X10,0X10,0X10,0X10,0X10,0X10,0X10,0X34,0XFF,0XFF,0XDF,0XDF,0X55,0XFF,0XDF,
// 1696 0XDF,0XDF,0X10,0X34,0XFF,0XFF,0XFF,0XFF,0XDF,0X34,0X10,0X10,0X10,0X10,0X10,0X10,
// 1697 0X9A,0XDF,0XFF,0XFF,0XDF,0X55,0X10,0X10,0X10,0X10,0X10,0X10,0X10,0X10,0X10,0X10,
// 1698 0X10,0X10,0X10,0X10,0X10,0X10,0X10,0XDF,0XFF,0X34,0X10,0X10,0X10,0X10,0X79,0XFF,
// 1699 0XFF,0XFF,0XFF,0XFF,0XFF,0XDF,0X10,0X10,0X10,0X10,0X10,0X10,0X79,0XFF,0XDF,0X10,
// 1700 0X10,0X10,0X10,0X10,0X10,0X10,0X10,0X10,0X10,0XDF,0XFF,0X79,0X10,0X10,0X10,0X34,
// 1701 0XDF,0XFF,0XFF,0XFF,0XFF,0XBA,0X10,0X10,0X10,0X10,0X10,0X10,0X10,0X10,0X10,0X10,
// 1702 0X10,0X10,0X10,0X10,0X10,0X10,0X10,0X10,0X10,0X10,0X10,0X10,0X10,0X10,0X10,0X10,
// 1703 0X10,0X10,0X10,0X10,0X10,0X10,0X10,0X10,0X10,0X10,0X10,0X10,0X10,0X10,0X10,0X10,
// 1704 0X10,0X10,0X10,0X10,0X10,0X10,0X10,0X10,0X10,0X10,0X10,0X10,0X10,0X10,0X10,0X10,
// 1705 0X10,0X10,0X10,0X10,0X10,0X10,0X10,0X10,0X10,0X10,0X10,0X10,0X10,0X10,0X10,0X10,
// 1706 0X10,0X10,0X10,0X10,0X10,0X10,0X10,0X10,0X10,0X10,0X10,0X10,0X10,0X10,0X10,0X10,
// 1707 0X10,0X10,0X10,0X10,0X10,0X10,0X10,0X10,0X10,0X10,0X10,0X10,0X10,0X10,0X10,0X55,
// 1708 0XBA,0XFF,0XFF,0XFF,0XFF,0XFF,0XFF,0XFF,0XFF,0XFF,0XFF,0XFF,0XFF,0XFF,0XFF,0XFF,
// 1709 0XFF,0XFF,0XFF,0XFF,0XFF,0XFF,0XFF,0XFF,0XFF,0XFF,0XFF,0XFF,0XFF,0XFF,0XFF,0XFF,
// 1710 0XFF,0XFF,0XFF,0XFF,0XFF,0XFF,0XFF,0XFF,0XFF,0XFF,0XFF,0XFF,0XFF,0XFF,0XFF,0XFF,
// 1711 0XFF,0XFF,0XFF,0XFF,0XFF,0XFF,0XBA,0X55,0X10,0X10,0X10,0X10,0X10,0X10,0X10,0X10,
// 1712 0X10,0X10,0X10,0X10,0X10,0X10,0X10,0X10,0X10,0X10,0X10,0X10,0X10,0X10,0X10,0X10,
// 1713 0X10,0X10,0X10,0X10,0X10,0X10,0X10,0X10,0X10,0X10,0X10,0X10,0X10,0X10,0X10,0X10,
// 1714 0X10,0X10,0X10,0X10,0X10,0X10,0X10,0X10,0X10,0X10,0X10,0X10,0X10,0X10,0X10,0X10,
// 1715 0X10,0X10,0X10,0X10,0X10,0X10,0X10,0X10,0X34,0XFF,0XDF,0XDF,0XFF,0X9A,0XFF,0X9A,
// 1716 0XDF,0XDF,0X10,0X34,0XFF,0XFF,0XDF,0XBA,0XFF,0XBA,0X10,0X10,0X10,0X10,0X10,0X10,
// 1717 0X10,0X10,0X9A,0XDF,0XFF,0XFF,0X79,0X10,0X10,0X10,0X10,0X10,0X10,0X10,0X10,0X10,
// 1718 0X10,0X10,0X10,0X10,0X10,0X10,0X10,0XDF,0XFF,0X34,0X10,0X10,0X10,0X10,0X79,0XFF,
// 1719 0XDF,0XDF,0XDF,0XDF,0XDF,0XBA,0X10,0X10,0X10,0X10,0X10,0X10,0X79,0XFF,0XDF,0X10,
// 1720 0X10,0X10,0X10,0X10,0X10,0X10,0X10,0X10,0X9A,0XFF,0XDF,0X10,0X10,0X10,0X10,0XDF,
// 1721 0XFF,0XDF,0X9A,0X9A,0XDF,0XFF,0XDF,0X10,0X10,0X10,0X10,0X10,0X10,0X10,0X10,0X10,
// 1722 0X10,0X10,0X10,0X10,0X10,0X10,0X10,0X10,0X10,0X10,0X10,0X10,0X10,0X10,0X10,0X10,
// 1723 0X10,0X10,0X10,0X10,0X10,0X10,0X10,0X10,0X10,0X10,0X10,0X10,0X10,0X10,0X10,0X10,
// 1724 0X10,0X10,0X10,0X10,0X10,0X10,0X10,0X10,0X10,0X10,0X10,0X10,0X10,0X10,0X10,0X10,
// 1725 0X10,0X10,0X10,0X10,0X10,0X10,0X10,0X10,0X10,0X10,0X10,0X10,0X10,0X10,0X10,0X10,
// 1726 0X10,0X10,0X10,0X10,0X10,0X10,0X10,0X10,0X10,0X10,0X10,0X10,0X10,0X10,0X10,0X10,
// 1727 0X10,0X10,0X10,0X10,0X10,0X10,0X10,0X10,0X10,0X10,0X10,0X10,0X10,0X10,0X55,0X9A,
// 1728 0XFF,0XFF,0XFF,0XFF,0XFF,0XFF,0XFF,0XFF,0XFF,0XFF,0XFF,0XFF,0XFF,0XFF,0XFF,0XFF,
// 1729 0XFF,0XFF,0XFF,0XFF,0XFF,0XFF,0XFF,0XFF,0XFF,0XFF,0XFF,0XFF,0XFF,0XFF,0XFF,0XFF,
// 1730 0XFF,0XFF,0XFF,0XFF,0XFF,0XFF,0XFF,0XFF,0XFF,0XFF,0XFF,0XFF,0XFF,0XFF,0XFF,0XFF,
// 1731 0XFF,0XFF,0XFF,0XFF,0XFF,0XFF,0XFF,0X9A,0X55,0X10,0X10,0X10,0X10,0X10,0X10,0X10,
// 1732 0X10,0X10,0X10,0X10,0X10,0X10,0X10,0X10,0X10,0X10,0X10,0X10,0X10,0X10,0X10,0X10,
// 1733 0X10,0X10,0X10,0X10,0X10,0X10,0X10,0X10,0X10,0X10,0X10,0X10,0X10,0X10,0X10,0X10,
// 1734 0X10,0X10,0X10,0X10,0X10,0X10,0X10,0X10,0X10,0X10,0X10,0X10,0X10,0X10,0X10,0X10,
// 1735 0X10,0X10,0X10,0X10,0X10,0X10,0X10,0X10,0X34,0XFF,0XDF,0X9A,0XFF,0XDF,0XFF,0X55,
// 1736 0XDF,0XDF,0X10,0X34,0XFF,0XDF,0X34,0X55,0XFF,0XFF,0X55,0X10,0X10,0X10,0X10,0X10,
// 1737 0X10,0X10,0X10,0X10,0XDF,0XFF,0XFF,0X34,0X10,0X10,0X10,0X10,0X10,0X10,0X10,0X10,
// 1738 0X10,0X10,0X10,0X10,0X10,0X10,0X10,0XDF,0XFF,0X34,0X10,0X10,0X10,0X10,0X79,0XFF,
// 1739 0XDF,0X10,0X10,0X10,0X10,0X10,0X10,0X10,0X10,0X10,0X10,0X10,0X79,0XFF,0XDF,0X10,
// 1740 0X10,0X10,0X10,0X10,0X10,0X10,0X10,0X75,0XFF,0XDF,0X10,0X10,0X10,0X10,0X75,0XFF,
// 1741 0XDF,0X10,0X10,0X10,0X10,0XDF,0XFF,0X75,0X10,0X10,0X10,0X10,0X10,0X10,0X10,0X10,
// 1742 0X10,0X10,0X10,0X10,0X10,0X10,0X10,0X10,0X10,0X10,0X10,0X10,0X10,0X10,0X10,0X10,
// 1743 0X10,0X10,0X10,0X10,0X10,0X10,0X10,0X10,0X10,0X10,0X10,0X10,0X10,0X10,0X10,0X10,
// 1744 0X10,0X10,0X10,0X10,0X10,0X10,0X10,0X10,0X10,0X10,0X10,0X10,0X10,0X10,0X10,0X10,
// 1745 0X10,0X10,0X10,0X10,0X10,0X10,0X10,0X10,0X10,0X10,0X10,0X10,0X10,0X10,0X10,0X10,
// 1746 0X10,0X10,0X10,0X10,0X10,0X10,0X10,0X10,0X10,0X10,0X10,0X10,0X10,0X10,0X10,0X10,
// 1747 0X10,0X10,0X10,0X10,0X10,0X10,0X10,0X10,0X10,0X10,0X10,0X10,0X10,0X34,0X9A,0XFF,
// 1748 0XFF,0XFF,0XFF,0XFF,0XFF,0XFF,0XFF,0XFF,0XFF,0XFF,0XFF,0XFF,0XFF,0XFF,0XFF,0XFF,
// 1749 0XFF,0XFF,0XFF,0XFF,0XFF,0XFF,0XFF,0XFF,0XFF,0XFF,0XFF,0XFF,0XFF,0XFF,0XFF,0XFF,
// 1750 0XFF,0XFF,0XFF,0XFF,0XFF,0XFF,0XFF,0XFF,0XFF,0XFF,0XFF,0XFF,0XFF,0XFF,0XFF,0XFF,
// 1751 0XFF,0XFF,0XFF,0XFF,0XFF,0XFF,0XFF,0XFF,0X9A,0X34,0X10,0X10,0X10,0X10,0X10,0X10,
// 1752 0X10,0X10,0X10,0X10,0X10,0X10,0X10,0X10,0X10,0X10,0X10,0X10,0X10,0X10,0X10,0X10,
// 1753 0X10,0X10,0X10,0X10,0X10,0X10,0X10,0X10,0X10,0X10,0X10,0X10,0X10,0X10,0X10,0X10,
// 1754 0X10,0X10,0X10,0X10,0X10,0X10,0X10,0X10,0X10,0X10,0X10,0X10,0X10,0X10,0X10,0X10,
// 1755 0X10,0X10,0X10,0X10,0X10,0X10,0X10,0X10,0X34,0XFF,0XDF,0X55,0XFF,0XFF,0XFF,0X34,
// 1756 0XDF,0XDF,0X10,0X34,0XFF,0XDF,0X10,0X10,0X9A,0XFF,0XBA,0X10,0X10,0X10,0X9A,0XDF,
// 1757 0X9A,0X10,0X10,0X10,0X10,0XDF,0XFF,0X79,0X10,0X10,0X10,0X10,0X10,0X10,0X10,0X10,
// 1758 0X10,0X10,0X10,0X10,0X10,0X10,0X10,0XDF,0XFF,0X34,0X10,0X10,0X10,0X10,0X79,0XFF,
// 1759 0XDF,0X10,0X10,0X10,0X10,0X10,0X10,0X10,0X10,0X10,0X10,0X10,0X79,0XFF,0XDF,0X10,
// 1760 0X10,0X10,0X10,0X10,0X10,0X10,0X55,0XFF,0XDF,0X34,0X10,0X10,0X10,0X10,0XBA,0XFF,
// 1761 0X79,0X10,0X10,0X10,0X10,0X79,0XFF,0XDF,0X10,0X10,0X10,0X10,0X10,0X10,0X10,0X10,
// 1762 0X10,0X10,0X10,0X10,0X10,0X10,0X10,0X10,0X10,0X10,0X10,0X10,0X10,0X10,0X10,0X10,
// 1763 0X10,0X10,0X10,0X10,0X10,0X10,0X10,0X10,0X10,0X10,0X10,0X10,0X10,0X10,0X10,0X10,
// 1764 0X10,0X10,0X10,0X10,0X10,0X10,0X10,0X10,0X10,0X10,0X10,0X10,0X10,0X10,0X10,0X10,
// 1765 0X10,0X10,0X10,0X10,0X10,0X10,0X10,0X10,0X10,0X10,0X10,0X10,0X10,0X10,0X10,0X10,
// 1766 0X10,0X10,0X10,0X10,0X10,0X10,0X10,0X10,0X10,0X10,0X10,0X10,0X10,0X10,0X10,0X10,
// 1767 0X10,0X10,0X10,0X10,0X10,0X10,0X10,0X10,0X10,0X10,0X10,0X10,0X34,0X79,0XDF,0XFF,
// 1768 0XFF,0XFF,0XFF,0XFF,0XFF,0XFF,0XFF,0XFF,0XFF,0XFF,0XFF,0XFF,0XFF,0XFF,0XFF,0XFF,
// 1769 0XFF,0XFF,0XFF,0XFF,0XFF,0XFF,0XFF,0XFF,0XFF,0XFF,0XFF,0XFF,0XFF,0XFF,0XFF,0XFF,
// 1770 0XFF,0XFF,0XFF,0XFF,0XFF,0XFF,0XFF,0XFF,0XFF,0XFF,0XFF,0XFF,0XFF,0XFF,0XFF,0XFF,
// 1771 0XFF,0XFF,0XFF,0XFF,0XFF,0XFF,0XFF,0XFF,0XDF,0X79,0X34,0X10,0X10,0X10,0X10,0X10,
// 1772 0X10,0X10,0X10,0X10,0X10,0X10,0X10,0X10,0X10,0X10,0X10,0X10,0X10,0X10,0X10,0X10,
// 1773 0X10,0X10,0X10,0X10,0X10,0X10,0X10,0X10,0X10,0X10,0X10,0X10,0X10,0X10,0X10,0X10,
// 1774 0X10,0X10,0X10,0X10,0X10,0X10,0X10,0X10,0X10,0X10,0X10,0X10,0X10,0X10,0X10,0X10,
// 1775 0X10,0X10,0X10,0X10,0X10,0X10,0X10,0X10,0X34,0XFF,0XDF,0X34,0XFF,0XFF,0XDF,0X10,
// 1776 0XDF,0XDF,0X10,0X34,0XFF,0XDF,0X10,0X10,0X10,0XDF,0XFF,0X55,0X10,0X10,0XDF,0XFF,
// 1777 0XDF,0X10,0X10,0X10,0X10,0XDF,0XFF,0X79,0X10,0X10,0X10,0X10,0X10,0X10,0X10,0X10,
// 1778 0X10,0X10,0X10,0X10,0X10,0X10,0X10,0XDF,0XFF,0X34,0X10,0X10,0X10,0X10,0X79,0XFF,
// 1779 0XDF,0X10,0X10,0X10,0X10,0X10,0X10,0X10,0X10,0X10,0X10,0X10,0X79,0XFF,0XDF,0X10,
// 1780 0X10,0X10,0X10,0X10,0X10,0X34,0XDF,0XFF,0X55,0X10,0X10,0X10,0X10,0X10,0XBA,0XFF,
// 1781 0X9A,0X10,0X10,0X10,0X10,0X9A,0XFF,0X9A,0X10,0X10,0X10,0X10,0X10,0X10,0X10,0X10,
// 1782 0X10,0X10,0X10,0X10,0X10,0X10,0X10,0X10,0X10,0X10,0X10,0X10,0X10,0X10,0X10,0X10,
// 1783 0X10,0X10,0X10,0X10,0X10,0X10,0X10,0X10,0X10,0X10,0X10,0X10,0X10,0X10,0X10,0X10,
// 1784 0X10,0X10,0X10,0X10,0X10,0X10,0X10,0X10,0X10,0X10,0X10,0X10,0X10,0X10,0X10,0X10,
// 1785 0X10,0X10,0X10,0X10,0X10,0X10,0X10,0X10,0X10,0X10,0X10,0X10,0X10,0X10,0X10,0X10,
// 1786 0X10,0X10,0X10,0X10,0X10,0X10,0X10,0X10,0X10,0X10,0X10,0X10,0X10,0X10,0X10,0X10,
// 1787 0X10,0X10,0X10,0X10,0X10,0X10,0X10,0X10,0X10,0X10,0X10,0X10,0X79,0XDF,0XFF,0XFF,
// 1788 0XFF,0XFF,0XFF,0XFF,0XFF,0XFF,0XFF,0XFF,0XFF,0XFF,0XFF,0XFF,0XFF,0XFF,0XFF,0XFF,
// 1789 0XFF,0XFF,0XFF,0XFF,0XFF,0XFF,0XFF,0XFF,0XFF,0XFF,0XFF,0XFF,0XFF,0XFF,0XFF,0XFF,
// 1790 0XFF,0XFF,0XFF,0XFF,0XFF,0XFF,0XFF,0XFF,0XFF,0XFF,0XFF,0XFF,0XFF,0XFF,0XFF,0XFF,
// 1791 0XFF,0XFF,0XFF,0XFF,0XFF,0XFF,0XFF,0XFF,0XFF,0XDF,0X79,0X10,0X10,0X10,0X10,0X10,
// 1792 0X10,0X10,0X10,0X10,0X10,0X10,0X10,0X10,0X10,0X10,0X10,0X10,0X10,0X10,0X10,0X10,
// 1793 0X10,0X10,0X10,0X10,0X10,0X10,0X10,0X10,0X10,0X10,0X10,0X10,0X10,0X10,0X10,0X10,
// 1794 0X10,0X10,0X10,0X10,0X10,0X10,0X10,0X10,0X10,0X10,0X10,0X10,0X10,0X10,0X10,0X10,
// 1795 0X10,0X10,0X10,0X10,0X10,0X10,0X10,0X10,0X34,0XFF,0XDF,0X10,0XDF,0XFF,0XDF,0X10,
// 1796 0XDF,0XDF,0X10,0X34,0XFF,0XDF,0X10,0X10,0X10,0X9A,0XFF,0XDF,0X10,0X10,0X79,0XFF,
// 1797 0XDF,0X34,0X10,0X10,0X55,0XFF,0XFF,0X55,0X10,0X10,0X10,0X10,0X10,0X10,0X10,0X10,
// 1798 0X10,0X10,0X10,0X10,0X10,0X10,0X10,0XDF,0XFF,0X34,0X10,0X10,0X10,0X10,0X79,0XFF,
// 1799 0XDF,0X10,0X10,0X10,0X10,0X10,0X10,0X10,0X10,0X10,0X10,0X10,0X79,0XFF,0XDF,0X10,
// 1800 0X10,0X10,0X10,0X10,0X34,0XDF,0XFF,0X75,0X10,0X10,0X10,0X10,0X10,0X10,0X75,0XFF,
// 1801 0XDF,0X10,0X10,0X10,0X34,0XDF,0XFF,0X55,0X10,0X10,0X10,0X10,0X10,0X10,0X10,0X10,
// 1802 0X10,0X10,0X10,0X10,0X10,0X10,0X10,0X10,0X10,0X10,0X10,0X10,0X10,0X10,0X10,0X10,
// 1803 0X10,0X10,0X10,0X10,0X10,0X10,0X10,0X10,0X10,0X10,0X10,0X10,0X10,0X10,0X10,0X10,
// 1804 0X10,0X10,0X10,0X10,0X10,0X10,0X10,0X10,0X10,0X10,0X10,0X10,0X10,0X10,0X10,0X10,
// 1805 0X10,0X10,0X10,0X10,0X10,0X10,0X10,0X10,0X10,0X10,0X10,0X10,0X10,0X10,0X10,0X10,
// 1806 0X10,0X10,0X10,0X10,0X10,0X10,0X10,0X10,0X10,0X10,0X10,0X10,0X10,0X10,0X10,0X10,
// 1807 0X10,0X10,0X10,0X10,0X10,0X10,0X10,0X10,0X10,0X10,0X10,0X55,0XBE,0XFF,0XFF,0XFF,
// 1808 0XFF,0XFF,0XFF,0XFF,0XFF,0XFF,0XFF,0XFF,0XFF,0XFF,0XFF,0XFF,0XFF,0XFF,0XFF,0XFF,
// 1809 0XFF,0XFF,0XFF,0XFF,0XFF,0XFF,0XFF,0XFF,0XFF,0XFF,0XFF,0XFF,0XFF,0XFF,0XFF,0XFF,
// 1810 0XFF,0XFF,0XFF,0XFF,0XFF,0XFF,0XFF,0XFF,0XFF,0XFF,0XFF,0XFF,0XFF,0XFF,0XFF,0XFF,
// 1811 0XFF,0XFF,0XFF,0XFF,0XFF,0XFF,0XFF,0XFF,0XFF,0XFF,0XBE,0X55,0X10,0X10,0X10,0X10,
// 1812 0X10,0X10,0X10,0X10,0X10,0X10,0X10,0X10,0X10,0X10,0X10,0X10,0X10,0X10,0X10,0X10,
// 1813 0X10,0X10,0X10,0X10,0X10,0X10,0X10,0X10,0X10,0X10,0X10,0X10,0X10,0X10,0X10,0X10,
// 1814 0X10,0X10,0X10,0X10,0X10,0X10,0X10,0X10,0X10,0X10,0X10,0X10,0X10,0X10,0X10,0X10,
// 1815 0X10,0X10,0X10,0X10,0X10,0X10,0X10,0X10,0X34,0XFF,0XDF,0X10,0XDF,0XFF,0X9A,0X10,
// 1816 0XDF,0XDF,0X10,0X34,0XFF,0XDF,0X10,0X10,0X10,0X10,0XDF,0XFF,0X55,0X10,0X10,0XDF,
// 1817 0XFF,0XDF,0XDF,0XDF,0XFF,0XFF,0XBA,0X10,0X10,0X10,0X10,0X10,0X10,0X10,0X10,0X10,
// 1818 0X10,0X10,0X10,0X10,0X10,0X10,0X10,0XDF,0XFF,0X34,0X10,0X10,0X10,0X10,0X79,0XFF,
// 1819 0XDF,0X10,0X10,0X10,0X10,0X10,0X10,0X10,0X10,0X10,0X10,0X10,0X79,0XFF,0XDF,0X10,
// 1820 0X10,0X10,0X10,0X10,0XDF,0XFF,0XFF,0XDF,0XDF,0XDF,0XDF,0XDF,0XBA,0X10,0X10,0XDF,
// 1821 0XFF,0XDF,0XDF,0XDF,0XDF,0XFF,0XDF,0X10,0X10,0X10,0X10,0X10,0X10,0X10,0X10,0X10,
// 1822 0X10,0X10,0X10,0X10,0X10,0X10,0X10,0X10,0X10,0X10,0X10,0X10,0X10,0X10,0X10,0X10,
// 1823 0X10,0X10,0X10,0X10,0X10,0X10,0X10,0X10,0X10,0X10,0X10,0X10,0X10,0X10,0X10,0X10,
// 1824 0X10,0X10,0X10,0X10,0X10,0X10,0X10,0X10,0X10,0X10,0X10,0X10,0X10,0X10,0X10,0X10,
// 1825 0X10,0X10,0X10,0X10,0X10,0X10,0X10,0X10,0X10,0X10,0X10,0X10,0X10,0X10,0X10,0X10,
// 1826 0X10,0X10,0X10,0X10,0X10,0X10,0X10,0X10,0X10,0X10,0X10,0X10,0X10,0X10,0X10,0X10,
// 1827 0X10,0X10,0X10,0X10,0X10,0X10,0X10,0X10,0X10,0X10,0X55,0XBA,0XFF,0XFF,0XFF,0XFF,
// 1828 0XFF,0XFF,0XFF,0XFF,0XFF,0XFF,0XFF,0XFF,0XFF,0XFF,0XFF,0XFF,0XFF,0XFF,0XFF,0XFF,
// 1829 0XFF,0XFF,0XFF,0XFF,0XFF,0XFF,0XFF,0XFF,0XFF,0XFF,0XFF,0XFF,0XFF,0XFF,0XFF,0XFF,
// 1830 0XFF,0XFF,0XFF,0XFF,0XFF,0XFF,0XFF,0XFF,0XFF,0XFF,0XFF,0XFF,0XFF,0XFF,0XFF,0XFF,
// 1831 0XFF,0XFF,0XFF,0XFF,0XFF,0XFF,0XFF,0XFF,0XFF,0XFF,0XFF,0XBA,0X55,0X10,0X10,0X10,
// 1832 0X10,0X10,0X10,0X10,0X10,0X10,0X10,0X10,0X10,0X10,0X10,0X10,0X10,0X10,0X10,0X10,
// 1833 0X10,0X10,0X10,0X10,0X10,0X10,0X10,0X10,0X10,0X10,0X10,0X10,0X10,0X10,0X10,0X10,
// 1834 0X10,0X10,0X10,0X10,0X10,0X10,0X10,0X10,0X10,0X10,0X10,0X10,0X10,0X10,0X10,0X10,
// 1835 0X10,0X10,0X10,0X10,0X10,0X10,0X10,0X10,0X34,0XDF,0XDF,0X10,0X9A,0XDF,0X55,0X10,
// 1836 0XDF,0XDF,0X10,0X34,0XDF,0XDF,0X10,0X10,0X10,0X10,0X9A,0XDF,0XDF,0X10,0X10,0X34,
// 1837 0XBA,0XDF,0XFF,0XFF,0XDF,0X9A,0X10,0X10,0X10,0X10,0X10,0X10,0X10,0X10,0X10,0X10,
// 1838 0X10,0X10,0X10,0X10,0X10,0X10,0X10,0XDF,0XDF,0X34,0X10,0X10,0X10,0X10,0X79,0XDF,
// 1839 0XBA,0X10,0X10,0X10,0X10,0X10,0X10,0X10,0X10,0X10,0X10,0X10,0X79,0XDF,0XBA,0X10,
// 1840 0X10,0X10,0X10,0X10,0XDF,0XDF,0XDF,0XDF,0XDF,0XDF,0XDF,0XDF,0XBA,0X10,0X10,0X34,
// 1841 0XBA,0XDF,0XFF,0XFF,0XDF,0XBA,0X34,0X10,0X10,0X10,0X10,0X10,0X10,0X10,0X10,0X10,
// 1842 0X10,0X10,0X10,0X10,0X10,0X10,0X10,0X10,0X10,0X10,0X10,0X10,0X10,0X10,0X10,0X10,
// 1843 0X10,0X10,0X10,0X10,0X10,0X10,0X10,0X10,0X10,0X10,0X10,0X10,0X10,0X10,0X10,0X10,
// 1844 0X10,0X10,0X10,0X10,0X10,0X10,0X10,0X10,0X10,0X10,0X10,0X10,0X10,0X10,0X10,0X10,
// 1845 0X10,0X10,0X10,0X10,0X10,0X10,0X10,0X10,0X10,0X10,0X10,0X10,0X10,0X10,0X10,0X10,
// 1846 0X10,0X10,0X10,0X10,0X10,0X10,0X10,0X10,0X10,0X10,0X10,0X10,0X10,0X10,0X10,0X10,
// 1847 0X10,0X10,0X10,0X10,0X10,0X10,0X10,0X10,0X10,0X34,0X9A,0XDF,0XFF,0XFF,0XFF,0XFF,
// 1848 0XFF,0XFF,0XFF,0XFF,0XFF,0XFF,0XFF,0XFF,0XFF,0XFF,0XFF,0XFF,0XFF,0XFF,0XFF,0XFF,
// 1849 0XFF,0XFF,0XFF,0XFF,0XFF,0XFF,0XFF,0XFF,0XFF,0XFF,0XFF,0XFF,0XFF,0XFF,0XFF,0XFF,
// 1850 0XFF,0XFF,0XFF,0XFF,0XFF,0XFF,0XFF,0XFF,0XFF,0XFF,0XFF,0XFF,0XFF,0XFF,0XFF,0XFF,
// 1851 0XFF,0XFF,0XFF,0XFF,0XFF,0XFF,0XFF,0XFF,0XFF,0XFF,0XFF,0XDF,0X9A,0X34,0X10,0X10,
// 1852 0X10,0X10,0X10,0X10,0X10,0X10,0X10,0X10,0X10,0X10,0X10,0X10,0X10,0X10,0X10,0X10,
// 1853 0X10,0X10,0X10,0X10,0X10,0X10,0X10,0X10,0X10,0X10,0X10,0X10,0X10,0X10,0X10,0X10,
// 1854 0X10,0X10,0X10,0X10,0X10,0X10,0X10,0X10,0X10,0X10,0X10,0X10,0X10,0X10,0X10,0X10,
// 1855 0X10,0X10,0X10,0X10,0X10,0X10,0X10,0X10,0X10,0X10,0X10,0X10,0X10,0X10,0X10,0X10,
// 1856 0X10,0X10,0X10,0X10,0X10,0X10,0X10,0X10,0X10,0X10,0X10,0X10,0X10,0X10,0X10,0X10,
// 1857 0X10,0X10,0X34,0X34,0X10,0X10,0X10,0X10,0X10,0X10,0X10,0X10,0X10,0X10,0X10,0X10,
// 1858 0X10,0X10,0X10,0X10,0X10,0X10,0X10,0X10,0X10,0X10,0X10,0X10,0X10,0X10,0X10,0X10,
// 1859 0X10,0X10,0X10,0X10,0X10,0X10,0X10,0X10,0X10,0X10,0X10,0X10,0X10,0X10,0X10,0X10,
// 1860 0X10,0X10,0X10,0X10,0X10,0X10,0X10,0X10,0X10,0X10,0X10,0X10,0X10,0X10,0X10,0X10,
// 1861 0X10,0X10,0X34,0X34,0X10,0X10,0X10,0X10,0X10,0X10,0X10,0X10,0X10,0X10,0X10,0X10,
// 1862 0X10,0X10,0X10,0X10,0X10,0X10,0X10,0X10,0X10,0X10,0X10,0X10,0X10,0X10,0X10,0X10,
// 1863 0X10,0X10,0X10,0X10,0X10,0X10,0X10,0X10,0X10,0X10,0X10,0X10,0X10,0X10,0X10,0X10,
// 1864 0X10,0X10,0X10,0X10,0X10,0X10,0X10,0X10,0X10,0X10,0X10,0X10,0X10,0X10,0X10,0X10,
// 1865 0X10,0X10,0X10,0X10,0X10,0X10,0X10,0X10,0X10,0X10,0X10,0X10,0X10,0X10,0X10,0X10,
// 1866 0X10,0X10,0X10,0X10,0X10,0X10,0X10,0X10,0X10,0X10,0X10,0X10,0X10,0X10,0X10,0X10,
// 1867 0X10,0X10,0X10,0X10,0X10,0X10,0X10,0X10,0X10,0X75,0XDF,0XFF,0XFF,0XFF,0XFF,0XFF,
// 1868 0XFF,0XFF,0XFF,0XFF,0XFF,0XFF,0XFF,0XFF,0XFF,0XFF,0XFF,0XFF,0XFF,0XFF,0XFF,0XFF,
// 1869 0XFF,0XFF,0XFF,0XFF,0XFF,0XFF,0XFF,0XFF,0XFF,0XFF,0XFF,0XFF,0XFF,0XFF,0XFF,0XFF,
// 1870 0XFF,0XFF,0XFF,0XFF,0XFF,0XFF,0XFF,0XFF,0XFF,0XFF,0XFF,0XFF,0XFF,0XFF,0XFF,0XFF,
// 1871 0XFF,0XFF,0XFF,0XFF,0XFF,0XFF,0XFF,0XFF,0XFF,0XFF,0XFF,0XFF,0XDF,0X75,0X10,0X10,
// 1872 0X10,0X10,0X10,0X10,0X10,0X10,0X10,0X10,0X10,0X10,0X10,0X10,0X10,0X10,0X10,0X10,
// 1873 0X10,0X10,0X10,0X10,0X10,0X10,0X10,0X10,0X10,0X10,0X10,0X10,0X10,0X10,0X10,0X10,
// 1874 0X10,0X10,0X10,0X10,0X10,0X10,0X10,0X10,0X10,0X10,0X10,0X10,0X10,0X10,0X10,0X10,
// 1875 0X10,0X10,0X10,0X10,0X10,0X10,0X10,0X10,0X10,0X10,0X10,0X10,0X10,0X10,0X10,0X10,
// 1876 0X10,0X10,0X10,0X10,0X10,0X10,0X10,0X10,0X10,0X10,0X10,0X10,0X10,0X10,0X10,0X10,
// 1877 0X10,0X10,0X10,0X10,0X10,0X10,0X10,0X10,0X10,0X10,0X10,0X10,0X10,0X10,0X10,0X10,
// 1878 0X10,0X10,0X10,0X10,0X10,0X10,0X10,0X10,0X10,0X10,0X10,0X10,0X10,0X10,0X10,0X10,
// 1879 0X10,0X10,0X10,0X10,0X10,0X10,0X10,0X10,0X10,0X10,0X10,0X10,0X10,0X10,0X10,0X10,
// 1880 0X10,0X10,0X10,0X10,0X10,0X10,0X10,0X10,0X10,0X10,0X10,0X10,0X10,0X10,0X10,0X10,
// 1881 0X10,0X10,0X10,0X10,0X10,0X10,0X10,0X10,0X10,0X10,0X10,0X10,0X10,0X10,0X10,0X10,
// 1882 0X10,0X10,0X10,0X10,0X10,0X10,0X10,0X10,0X10,0X10,0X10,0X10,0X10,0X10,0X10,0X10,
// 1883 0X10,0X10,0X10,0X10,0X10,0X10,0X10,0X10,0X10,0X10,0X10,0X10,0X10,0X10,0X10,0X10,
// 1884 0X10,0X10,0X10,0X10,0X10,0X10,0X10,0X10,0X10,0X10,0X10,0X10,0X10,0X10,0X10,0X10,
// 1885 0X10,0X10,0X10,0X10,0X10,0X10,0X10,0X10,0X10,0X10,0X10,0X10,0X10,0X10,0X10,0X10,
// 1886 0X10,0X10,0X10,0X10,0X10,0X10,0X10,0X10,0X10,0X10,0X10,0X10,0X10,0X10,0X10,0X10,
// 1887 0X10,0X10,0X10,0X10,0X10,0X10,0X10,0X10,0X55,0XBE,0XFF,0XFF,0XFF,0XFF,0XFF,0XFF,
// 1888 0XFF,0XFF,0XFF,0XFF,0XFF,0XFF,0XFF,0XFF,0XFF,0XFF,0XFF,0XFF,0XFF,0XFF,0XFF,0XFF,
// 1889 0XFF,0XFF,0XFF,0XFF,0XFF,0XFF,0XFF,0XFF,0XFF,0XFF,0XFF,0XFF,0XFF,0XFF,0XFF,0XFF,
// 1890 0XFF,0XFF,0XFF,0XFF,0XFF,0XFF,0XFF,0XFF,0XFF,0XFF,0XFF,0XFF,0XFF,0XFF,0XFF,0XFF,
// 1891 0XFF,0XFF,0XFF,0XFF,0XFF,0XFF,0XFF,0XFF,0XFF,0XFF,0XFF,0XFF,0XFF,0XBE,0X55,0X10,
// 1892 0X10,0X10,0X10,0X10,0X10,0X10,0X10,0X10,0X10,0X10,0X10,0X10,0X10,0X10,0X10,0X10,
// 1893 0X10,0X10,0X10,0X10,0X10,0X10,0X10,0X10,0X10,0X10,0X10,0X10,0X10,0X10,0X10,0X10,
// 1894 0X10,0X10,0X10,0X10,0X10,0X10,0X10,0X10,0X10,0X10,0X10,0X10,0X10,0X10,0X10,0X10,
// 1895 0X10,0X10,0X10,0X10,0X10,0X10,0X10,0X10,0X10,0X10,0X10,0X10,0X10,0X10,0X10,0X10,
// 1896 0X10,0X10,0X10,0X10,0X10,0X10,0X10,0X10,0X10,0X10,0X10,0X10,0X10,0X10,0X10,0X10,
// 1897 0X10,0X10,0X10,0X10,0X10,0X10,0X10,0X10,0X10,0X10,0X10,0X10,0X10,0X10,0X10,0X10,
// 1898 0X10,0X10,0X10,0X10,0X10,0X10,0X10,0X10,0X10,0X10,0X10,0X10,0X10,0X10,0X10,0X10,
// 1899 0X10,0X10,0X10,0X10,0X10,0X10,0X10,0X10,0X10,0X10,0X10,0X10,0X10,0X10,0X10,0X10,
// 1900 0X10,0X10,0X10,0X10,0X10,0X10,0X10,0X10,0X10,0X10,0X10,0X10,0X10,0X10,0X10,0X10,
// 1901 0X10,0X10,0X10,0X10,0X10,0X10,0X10,0X10,0X10,0X10,0X10,0X10,0X10,0X10,0X10,0X10,
// 1902 0X10,0X10,0X10,0X10,0X10,0X10,0X10,0X10,0X10,0X10,0X10,0X10,0X10,0X10,0X10,0X10,
// 1903 0X10,0X10,0X10,0X10,0X10,0X10,0X10,0X10,0X10,0X10,0X10,0X10,0X10,0X10,0X10,0X10,
// 1904 0X10,0X10,0X10,0X10,0X10,0X10,0X10,0X10,0X10,0X10,0X10,0X10,0X10,0X10,0X10,0X10,
// 1905 0X10,0X10,0X10,0X10,0X10,0X10,0X10,0X10,0X10,0X10,0X10,0X10,0X10,0X10,0X10,0X10,
// 1906 0X10,0X10,0X10,0X10,0X10,0X10,0X10,0X10,0X10,0X10,0X10,0X10,0X10,0X10,0X10,0X10,
// 1907 0X10,0X10,0X10,0X10,0X10,0X10,0X10,0X34,0X9A,0XFF,0XFF,0XFF,0XFF,0XFF,0XFF,0XFF,
// 1908 0XFF,0XFF,0XFF,0XFF,0XFF,0XFF,0XFF,0XFF,0XFF,0XFF,0XFF,0XFF,0XFF,0XFF,0XFF,0XFF,
// 1909 0XFF,0XFF,0XFF,0XFF,0XFF,0XFF,0XFF,0XFF,0XFF,0XFF,0XFF,0XFF,0XFF,0XFF,0XFF,0XFF,
// 1910 0XFF,0XFF,0XFF,0XFF,0XFF,0XFF,0XFF,0XFF,0XFF,0XFF,0XFF,0XFF,0XFF,0XFF,0XFF,0XFF,
// 1911 0XFF,0XFF,0XFF,0XFF,0XFF,0XFF,0XFF,0XFF,0XFF,0XFF,0XFF,0XFF,0XFF,0XFF,0X9A,0X34,
// 1912 0X10,0X10,0X10,0X10,0X10,0X10,0X10,0X10,0X10,0X10,0X10,0X10,0X10,0X10,0X10,0X10,
// 1913 0X10,0X10,0X10,0X10,0X10,0X10,0X10,0X10,0X10,0X10,0X10,0X10,0X10,0X10,0X10,0X10,
// 1914 0X10,0X10,0X10,0X10,0X10,0X10,0X10,0X10,0X10,0X10,0X10,0X10,0X10,0X10,0X10,0X10,
// 1915 0X10,0X10,0X10,0X10,0X10,0X10,0X10,0X10,0X10,0X10,0X10,0X10,0X10,0X10,0X10,0X10,
// 1916 0X10,0X10,0X10,0X10,0X10,0X10,0X10,0X10,0X10,0X10,0X10,0X10,0X10,0X10,0X10,0X10,
// 1917 0X10,0X10,0X10,0X10,0X10,0X10,0X10,0X10,0X10,0X10,0X10,0X10,0X10,0X10,0X10,0X10,
// 1918 0X10,0X10,0X10,0X10,0X10,0X10,0X10,0X10,0X10,0X10,0X10,0X10,0X10,0X10,0X10,0X10,
// 1919 0X10,0X10,0X10,0X10,0X10,0X10,0X10,0X10,0X10,0X10,0X10,0X10,0X10,0X10,0X10,0X10,
// 1920 0X10,0X10,0X10,0X10,0X10,0X10,0X10,0X10,0X10,0X10,0X10,0X10,0X10,0X10,0X10,0X10,
// 1921 0X10,0X10,0X10,0X10,0X10,0X10,0X10,0X10,0X10,0X10,0X10,0X10,0X10,0X10,0X10,0X10,
// 1922 0X10,0X10,0X10,0X10,0X10,0X10,0X10,0X10,0X10,0X10,0X10,0X10,0X10,0X10,0X10,0X10,
// 1923 0X10,0X10,0X10,0X10,0X10,0X10,0X10,0X10,0X10,0X10,0X10,0X10,0X10,0X10,0X10,0X10,
// 1924 0X10,0X10,0X10,0X10,0X10,0X10,0X10,0X10,0X10,0X10,0X10,0X10,0X10,0X10,0X10,0X10,
// 1925 0X10,0X10,0X10,0X10,0X10,0X10,0X10,0X10,0X10,0X10,0X10,0X10,0X10,0X10,0X10,0X10,
// 1926 0X10,0X10,0X10,0X10,0X10,0X10,0X10,0X10,0X10,0X10,0X10,0X10,0X10,0X10,0X10,0X10,
// 1927 0X10,0X10,0X10,0X10,0X10,0X10,0X10,0X79,0XDF,0XFF,0XFF,0XFF,0XFF,0XFF,0XFF,0XFF,
// 1928 0XFF,0XFF,0XFF,0XFF,0XFF,0XFF,0XFF,0XFF,0XFF,0XFF,0XFF,0XFF,0XFF,0XFF,0XFF,0XFF,
// 1929 0XFF,0XFF,0XFF,0XFF,0XFF,0XFF,0XFF,0XFF,0XFF,0XFF,0XFF,0XFF,0XFF,0XFF,0XFF,0XFF,
// 1930 0XFF,0XFF,0XFF,0XFF,0XFF,0XFF,0XFF,0XFF,0XFF,0XFF,0XFF,0XFF,0XFF,0XFF,0XFF,0XFF,
// 1931 0XFF,0XFF,0XFF,0XFF,0XFF,0XFF,0XFF,0XFF,0XFF,0XFF,0XFF,0XFF,0XFF,0XFF,0XDF,0X79,
// 1932 0X10,0X10,0X10,0X10,0X10,0X10,0X10,0X10,0X10,0X10,0X10,0X10,0X10,0X10,0X10,0X10,
// 1933 0X10,0X10,0X10,0X10,0X10,0X10,0X10,0X10,0X10,0X10,0X10,0X10,0X10,0X10,0X10,0X10,
// 1934 0X10,0X10,0X10,0X10,0X10,0X10,0X10,0X10,0X10,0X10,0X10,0X10,0X10,0X10,0X10,0X10,
// 1935 0X10,0X10,0X10,0X10,0X10,0X10,0X10,0X10,0X10,0X10,0X10,0X10,0X10,0X10,0X10,0X10,
// 1936 0X10,0X10,0X10,0X10,0X10,0X10,0X10,0X10,0X10,0X10,0X10,0X10,0X10,0X10,0X10,0X10,
// 1937 0X10,0X10,0X10,0X10,0X10,0X10,0X10,0X10,0X10,0X10,0X10,0X10,0X10,0X10,0X10,0X10,
// 1938 0X10,0X10,0X10,0X10,0X10,0X10,0X10,0X10,0X10,0X10,0X10,0X10,0X10,0X10,0X10,0X10,
// 1939 0X10,0X10,0X10,0X10,0X10,0X10,0X10,0X10,0X10,0X10,0X10,0X10,0X10,0X10,0X10,0X10,
// 1940 0X10,0X10,0X10,0X10,0X10,0X10,0X10,0X10,0X10,0X10,0X10,0X10,0X10,0X10,0X10,0X10,
// 1941 0X10,0X10,0X10,0X10,0X10,0X10,0X10,0X10,0X10,0X10,0X10,0X10,0X10,0X10,0X10,0X10,
// 1942 0X10,0X10,0X10,0X10,0X10,0X10,0X10,0X10,0X10,0X10,0X10,0X10,0X10,0X10,0X10,0X10,
// 1943 0X10,0X10,0X10,0X10,0X10,0X10,0X10,0X10,0X10,0X10,0X10,0X10,0X10,0X10,0X10,0X10,
// 1944 0X10,0X10,0X10,0X10,0X10,0X10,0X10,0X10,0X10,0X10,0X10,0X10,0X10,0X10,0X10,0X10,
// 1945 0X10,0X10,0X10,0X10,0X10,0X10,0X10,0X10,0X10,0X10,0X10,0X10,0X10,0X10,0X10,0X10,
// 1946 0X10,0X10,0X10,0X10,0X10,0X10,0X10,0X10,0X10,0X10,0X10,0X10,0X10,0X10,0X10,0X10,
// 1947 0X10,0X10,0X10,0X10,0X10,0X10,0X34,0XBA,0XFF,0XFF,0XFF,0XFF,0XFF,0XFF,0XFF,0XFF,
// 1948 0XFF,0XFF,0XFF,0XFF,0XFF,0XFF,0XFF,0XFF,0XFF,0XFF,0XFF,0XFF,0XFF,0XFF,0XFF,0XFF,
// 1949 0XFF,0XFF,0XFF,0XFF,0XFF,0XFF,0XFF,0XFF,0XFF,0XFF,0XFF,0XFF,0XFF,0XFF,0XFF,0XFF,
// 1950 0XFF,0XFF,0XFF,0XFF,0XFF,0XFF,0XFF,0XFF,0XFF,0XFF,0XFF,0XFF,0XFF,0XFF,0XFF,0XFF,
// 1951 0XFF,0XFF,0XFF,0XFF,0XFF,0XFF,0XFF,0XFF,0XFF,0XFF,0XFF,0XFF,0XFF,0XFF,0XFF,0XBA,
// 1952 0X34,0X10,0X10,0X10,0X10,0X10,0X10,0X10,0X10,0X10,0X10,0X10,0X10,0X10,0X10,0X10,
// 1953 0X10,0X10,0X10,0X10,0X10,0X10,0X10,0X10,0X10,0X10,0X10,0X10,0X10,0X10,0X10,0X10,
// 1954 0X10,0X10,0X10,0X10,0X10,0X10,0X10,0X10,0X10,0X10,0X10,0X10,0X10,0X10,0X10,0X10,
// 1955 0X10,0X10,0X10,0X10,0X10,0X10,0X10,0X10,0X10,0X10,0X10,0X10,0X10,0X10,0X10,0X10,
// 1956 0X10,0X10,0X10,0X10,0X10,0X10,0X10,0X10,0X10,0X10,0X10,0X10,0X10,0X10,0X10,0X10,
// 1957 0X10,0X10,0X10,0X10,0X10,0X10,0X10,0X10,0X10,0X10,0X10,0X10,0X10,0X10,0X10,0X10,
// 1958 0X10,0X10,0X10,0X10,0X10,0X10,0X10,0X10,0X10,0X10,0X10,0X10,0X10,0X10,0X10,0X10,
// 1959 0X10,0X10,0X10,0X10,0X10,0X10,0X10,0X10,0X10,0X10,0X10,0X10,0X10,0X10,0X10,0X10,
// 1960 0X10,0X10,0X10,0X10,0X10,0X10,0X10,0X10,0X10,0X10,0X10,0X10,0X10,0X10,0X10,0X10,
// 1961 0X10,0X10,0X10,0X10,0X10,0X10,0X10,0X10,0X10,0X10,0X10,0X10,0X10,0X10,0X10,0X10,
// 1962 0X10,0X10,0X10,0X10,0X10,0X10,0X10,0X10,0X10,0X10,0X10,0X10,0X10,0X10,0X10,0X10,
// 1963 0X10,0X10,0X10,0X10,0X10,0X10,0X10,0X10,0X10,0X10,0X10,0X10,0X10,0X10,0X10,0X10,
// 1964 0X10,0X10,0X10,0X10,0X10,0X10,0X10,0X10,0X10,0X10,0X10,0X10,0X10,0X10,0X10,0X10,
// 1965 0X10,0X10,0X10,0X10,0X10,0X10,0X10,0X10,0X10,0X10,0X10,0X10,0X10,0X10,0X10,0X10,
// 1966 0X10,0X10,0X10,0X10,0X10,0X10,0X10,0X10,0X10,0X10,0X10,0X10,0X10,0X10,0X10,0X10,
// 1967 0X10,0X10,0X10,0X10,0X10,0X10,0X9A,0XDF,0XFF,0XFF,0XFF,0XFF,0XFF,0XFF,0XFF,0XFF,
// 1968 0XFF,0XFF,0XFF,0XFF,0XFF,0XFF,0XFF,0XFF,0XFF,0XFF,0XFF,0XFF,0XFF,0XFF,0XFF,0XFF,
// 1969 0XFF,0XFF,0XFF,0XFF,0XFF,0XFF,0XFF,0XFF,0XFF,0XFF,0XFF,0XFF,0XFF,0XFF,0XFF,0XFF,
// 1970 0XFF,0XFF,0XFF,0XFF,0XFF,0XFF,0XFF,0XFF,0XFF,0XFF,0XFF,0XFF,0XFF,0XFF,0XFF,0XFF,
// 1971 0XFF,0XFF,0XFF,0XFF,0XFF,0XFF,0XFF,0XFF,0XFF,0XFF,0XFF,0XFF,0XFF,0XFF,0XFF,0XDF,
// 1972 0X9A,0X10,0X10,0X10,0X10,0X10,0X10,0X10,0X10,0X10,0X10,0X10,0X10,0X10,0X10,0X10,
// 1973 0X10,0X10,0X10,0X10,0X10,0X10,0X10,0X10,0X10,0X10,0X10,0X10,0X10,0X10,0X10,0X10,
// 1974 0X10,0X10,0X10,0X10,0X10,0X10,0X10,0X10,0X10,0X10,0X10,0X10,0X10,0X10,0X10,0X10,
// 1975 0X10,0X10,0X10,0X10,0X10,0X10,0X10,0X10,0X10,0X10,0X10,0X10,0X10,0X10,0X10,0X10,
// 1976 0X10,0X10,0X10,0X10,0X10,0X10,0X10,0X10,0X10,0X10,0X10,0X10,0X10,0X10,0X10,0X10,
// 1977 0X10,0X10,0X10,0X10,0X10,0X10,0X10,0X10,0X10,0X10,0X10,0X10,0X10,0X10,0X10,0X10,
// 1978 0X10,0X10,0X10,0X10,0X10,0X10,0X10,0X10,0X10,0X10,0X10,0X10,0X10,0X10,0X10,0X10,
// 1979 0X10,0X10,0X10,0X10,0X10,0X10,0X10,0X10,0X10,0X10,0X10,0X10,0X10,0X10,0X10,0X10,
// 1980 0X10,0X10,0X10,0X10,0X10,0X10,0X10,0X10,0X10,0X10,0X10,0X10,0X10,0X10,0X10,0X10,
// 1981 0X10,0X10,0X10,0X10,0X10,0X10,0X10,0X10,0X10,0X10,0X10,0X10,0X10,0X10,0X10,0X10,
// 1982 0X10,0X10,0X10,0X10,0X10,0X10,0X10,0X10,0X10,0X10,0X10,0X10,0X10,0X10,0X10,0X10,
// 1983 0X10,0X10,0X10,0X10,0X10,0X10,0X10,0X10,0X10,0X10,0X10,0X10,0X10,0X10,0X10,0X10,
// 1984 0X10,0X10,0X10,0X10,0X10,0X10,0X10,0X10,0X10,0X10,0X10,0X10,0X10,0X10,0X10,0X10,
// 1985 0X10,0X10,0X10,0X10,0X10,0X10,0X10,0X10,0X10,0X10,0X10,0X10,0X10,0X10,0X10,0X10,
// 1986 0X10,0X10,0X10,0X10,0X10,0X10,0X10,0X10,0X10,0X10,0X10,0X10,0X10,0X10,0X10,0X10,
// 1987 0X10,0X10,0X10,0X10,0X10,0X55,0XDF,0XFF,0XFF,0XFF,0XFF,0XFF,0XFF,0XFF,0XFF,0XFF,
// 1988 0XFF,0XFF,0XFF,0XFF,0XFF,0XFF,0XFF,0XFF,0XFF,0XFF,0XFF,0XFF,0XFF,0XFF,0XFF,0XFF,
// 1989 0XFF,0XFF,0XFF,0XFF,0XFF,0XFF,0XFF,0XFF,0XFF,0XFF,0XFF,0XFF,0XFF,0XFF,0XFF,0XFF,
// 1990 0XFF,0XFF,0XFF,0XFF,0XFF,0XFF,0XFF,0XFF,0XFF,0XFF,0XFF,0XFF,0XFF,0XFF,0XFF,0XFF,
// 1991 0XFF,0XFF,0XFF,0XFF,0XFF,0XFF,0XFF,0XFF,0XFF,0XFF,0XFF,0XFF,0XFF,0XFF,0XFF,0XFF,
// 1992 0XDF,0X55,0X10,0X10,0X10,0X10,0X10,0X10,0X10,0X10,0X10,0X10,0X10,0X10,0X10,0X10,
// 1993 0X10,0X10,0X10,0X10,0X10,0X10,0X10,0X10,0X10,0X10,0X10,0X10,0X10,0X10,0X10,0X10,
// 1994 0X10,0X10,0X10,0X10,0X10,0X10,0X10,0X10,0X10,0X10,0X10,0X10,0X10,0X10,0X10,0X10,
// 1995 0X10,0X10,0X10,0X10,0X10,0X10,0X10,0X10,0X10,0X10,0X10,0X10,0X10,0X10,0X10,0X10,
// 1996 0X10,0X10,0X10,0X10,0X10,0X10,0X10,0X10,0X10,0X10,0X10,0X10,0X10,0X10,0X10,0X10,
// 1997 0X10,0X10,0X10,0X10,0X10,0X10,0X10,0X10,0X10,0X10,0X10,0X10,0X10,0X10,0X10,0X10,
// 1998 0X10,0X10,0X10,0X10,0X10,0X10,0X10,0X10,0X10,0X10,0X10,0X10,0X10,0X10,0X10,0X10,
// 1999 0X10,0X10,0X10,0X10,0X10,0X10,0X10,0X10,0X10,0X10,0X10,0X10,0X10,0X10,0X10,0X10,
// 2000 0X10,0X10,0X10,0X10,0X10,0X10,0X10,0X10,0X10,0X10,0X10,0X10,0X10,0X10,0X10,0X10,
// 2001 0X10,0X10,0X10,0X10,0X10,0X10,0X10,0X10,0X10,0X10,0X10,0X10,0X10,0X10,0X10,0X10,
// 2002 0X10,0X10,0X10,0X10,0X10,0X10,0X10,0X10,0X10,0X10,0X10,0X10,0X10,0X10,0X10,0X10,
// 2003 0X10,0X10,0X10,0X10,0X10,0X10,0X10,0X10,0X10,0X10,0X10,0X10,0X10,0X10,0X10,0X10,
// 2004 0X10,0X10,0X10,0X10,0X10,0X10,0X10,0X10,0X10,0X10,0X10,0X10,0X10,0X10,0X10,0X10,
// 2005 0X10,0X10,0X10,0X10,0X10,0X10,0X10,0X10,0X10,0X10,0X10,0X10,0X10,0X10,0X10,0X10,
// 2006 0X10,0X10,0X10,0X10,0X10,0X10,0X10,0X10,0X10,0X10,0X10,0X10,0X10,0X10,0X10,0X10,
// 2007 0X10,0X10,0X10,0X10,0X10,0X79,0XFF,0XFF,0XFF,0XFF,0XFF,0XFF,0XFF,0XFF,0XFF,0XFF,
// 2008 0XFF,0XFF,0XFF,0XFF,0XFF,0XFF,0XFF,0XFF,0XFF,0XFF,0XFF,0XFF,0XFF,0XFF,0XFF,0XFF,
// 2009 0XFF,0XFF,0XFF,0XFF,0XFF,0XFF,0XFF,0XFF,0XFF,0XFF,0XFF,0XFF,0XFF,0XFF,0XFF,0XFF,
// 2010 0XFF,0XFF,0XFF,0XFF,0XFF,0XFF,0XFF,0XFF,0XFF,0XFF,0XFF,0XFF,0XFF,0XFF,0XFF,0XFF,
// 2011 0XFF,0XFF,0XFF,0XFF,0XFF,0XFF,0XFF,0XFF,0XFF,0XFF,0XFF,0XFF,0XFF,0XFF,0XFF,0XFF,
// 2012 0XFF,0X79,0X10,0X10,0X10,0X10,0X10,0X10,0X10,0X10,0X10,0X10,0X10,0X10,0X10,0X10,
// 2013 0X10,0X10,0X10,0X10,0X10,0X10,0X10,0X10,0X10,0X10,0X10,0X10,0X10,0X10,0X10,0X10,
// 2014 0X10,0X10,0X10,0X10,0X10,0X10,0X10,0X10,0X10,0X10,0X10,0X10,0X10,0X10,0X10,0X10,
// 2015 0X10,0X10,0X10,0X10,0X10,0X10,0X10,0X10,0X10,0X10,0X10,0X10,0X10,0X10,0X10,0X10,
// 2016 0X10,0X10,0X10,0X10,0X10,0X10,0X10,0X10,0X10,0X10,0X10,0X10,0X10,0X10,0X10,0X10,
// 2017 0X10,0X10,0X10,0X10,0X10,0X10,0X10,0X10,0X10,0X10,0X10,0X10,0X10,0X10,0X10,0X10,
// 2018 0X10,0X10,0X10,0X10,0X10,0X10,0X10,0X10,0X10,0X10,0X10,0X10,0X10,0X10,0X10,0X10,
// 2019 0X10,0X10,0X10,0X10,0X10,0X10,0X10,0X10,0X10,0X10,0X10,0X10,0X10,0X10,0X10,0X10,
// 2020 0X10,0X10,0X10,0X10,0X10,0X10,0X10,0X10,0X10,0X10,0X10,0X10,0X10,0X10,0X10,0X10,
// 2021 0X10,0X10,0X10,0X10,0X10,0X10,0X10,0X10,0X10,0X10,0X10,0X10,0X10,0X10,0X10,0X10,
// 2022 0X10,0X10,0X10,0X10,0X10,0X10,0X10,0X10,0X10,0X10,0X10,0X10,0X10,0X10,0X10,0X10,
// 2023 0X10,0X10,0X10,0X10,0X10,0X10,0X10,0X10,0X10,0X10,0X10,0X10,0X10,0X10,0X10,0X10,
// 2024 0X10,0X10,0X10,0X10,0X10,0X10,0X10,0X10,0X10,0X10,0X10,0X10,0X10,0X10,0X10,0X10,
// 2025 0X10,0X10,0X10,0X10,0X10,0X10,0X10,0X10,0X10,0X10,0X10,0X10,0X10,0X10,0X10,0X10,
// 2026 0X10,0X10,0X10,0X10,0X10,0X10,0X10,0X10,0X10,0X10,0X10,0X10,0X10,0X10,0X10,0X10,
// 2027 0X10,0X10,0X10,0X10,0X55,0XBA,0XFF,0XFF,0XFF,0XFF,0XFF,0XFF,0XFF,0XFF,0XFF,0XFF,
// 2028 0XFF,0XFF,0XFF,0XFF,0XFF,0XFF,0XFF,0XFF,0XFF,0XFF,0XFF,0XFF,0XFF,0XFF,0XFF,0XFF,
// 2029 0XFF,0XFF,0XFF,0XFF,0XFF,0XFF,0XFF,0XFF,0XFF,0XFF,0XFF,0XFF,0XFF,0XFF,0XFF,0XFF,
// 2030 0XFF,0XFF,0XFF,0XFF,0XFF,0XFF,0XFF,0XFF,0XFF,0XFF,0XFF,0XFF,0XFF,0XFF,0XFF,0XFF,
// 2031 0XFF,0XFF,0XFF,0XFF,0XFF,0XFF,0XFF,0XFF,0XFF,0XFF,0XFF,0XFF,0XFF,0XFF,0XFF,0XFF,
// 2032 0XFF,0XBA,0X55,0X10,0X10,0X10,0X10,0X10,0X10,0X10,0X10,0X10,0X10,0X10,0X10,0X10,
// 2033 0X10,0X10,0X10,0X10,0X10,0X10,0X10,0X10,0X10,0X10,0X10,0X10,0X10,0X10,0X10,0X10,
// 2034 0X10,0X10,0X10,0X10,0X10,0X10,0X10,0X10,0X10,0X10,0X10,0X10,0X10,0X10,0X10,0X10,
// 2035 0X10,0X10,0X10,0X10,0X10,0X10,0X10,0X10,0X10,0X10,0X10,0X10,0X10,0X10,0X10,0X10,
// 2036 0X10,0X10,0X10,0X10,0X10,0X10,0X10,0X10,0X10,0X10,0X10,0X10,0X10,0X10,0X10,0X10,
// 2037 0X10,0X10,0X10,0X10,0X10,0X10,0X10,0X10,0X10,0X10,0X10,0X10,0X10,0X10,0X10,0X10,
// 2038 0X10,0X10,0X10,0X10,0X10,0X10,0X10,0X10,0X10,0X10,0X10,0X10,0X10,0X10,0X10,0X10,
// 2039 0X10,0X10,0X10,0X10,0X10,0X10,0X10,0X10,0X10,0X10,0X10,0X10,0X10,0X10,0X10,0X10,
// 2040 0X10,0X10,0X10,0X10,0X10,0X10,0X10,0X10,0X10,0X10,0X10,0X10,0X10,0X10,0X10,0X10,
// 2041 0X10,0X10,0X10,0X10,0X10,0X10,0X10,0X10,0X10,0X10,0X10,0X10,0X10,0X10,0X10,0X10,
// 2042 0X10,0X10,0X10,0X10,0X10,0X10,0X10,0X10,0X10,0X10,0X10,0X10,0X10,0X10,0X10,0X10,
// 2043 0X10,0X10,0X10,0X10,0X10,0X10,0X10,0X10,0X10,0X10,0X10,0X10,0X10,0X10,0X10,0X10,
// 2044 0X10,0X10,0X10,0X10,0X10,0X10,0X10,0X10,0X10,0X10,0X10,0X10,0X10,0X10,0X10,0X10,
// 2045 0X10,0X10,0X10,0X10,0X10,0X10,0X10,0X10,0X10,0X10,0X10,0X10,0X10,0X10,0X10,0X10,
// 2046 0X10,0X10,0X10,0X10,0X10,0X10,0X10,0X10,0X10,0X10,0X10,0X10,0X10,0X10,0X10,0X10,
// 2047 0X10,0X10,0X10,0X10,0X9A,0XFF,0XFF,0XFF,0XFF,0XFF,0XFF,0XFF,0XFF,0XFF,0XFF,0XFF,
// 2048 0XFF,0XFF,0XFF,0XFF,0XFF,0XFF,0XFF,0XFF,0XFF,0XFF,0XFF,0XFF,0XFF,0XFF,0XFF,0XFF,
// 2049 0XFF,0XFF,0XFF,0XFF,0XFF,0XFF,0XFF,0XFF,0XFF,0XFF,0XFF,0XFF,0XFF,0XFF,0XFF,0XFF,
// 2050 0XFF,0XFF,0XFF,0XFF,0XFF,0XFF,0XFF,0XFF,0XFF,0XFF,0XFF,0XFF,0XFF,0XFF,0XFF,0XFF,
// 2051 0XFF,0XFF,0XFF,0XFF,0XFF,0XFF,0XFF,0XFF,0XFF,0XFF,0XFF,0XFF,0XFF,0XFF,0XFF,0XFF,
// 2052 0XFF,0XFF,0X9A,0X10,0X10,0X10,0X10,0X10,0X10,0X10,0X10,0X10,0X10,0X10,0X10,0X10,
// 2053 0X10,0X10,0X10,0X10,0X10,0X10,0X10,0X10,0X10,0X10,0X10,0X10,0X10,0X10,0X10,0X10,
// 2054 0X10,0X10,0X10,0X10,0X10,0X10,0X10,0X10,0X10,0X10,0X10,0X10,0X10,0X10,0X10,0X10,
// 2055 0X10,0X10,0X10,0X10,0X10,0X10,0X10,0X10,0X9A,0XDF,0X9A,0X10,0X10,0X10,0X10,0X10,
// 2056 0XBA,0XDF,0X55,0X10,0X10,0X10,0X10,0X55,0XDF,0X79,0X10,0X10,0X10,0X10,0X10,0X10,
// 2057 0X10,0X10,0X10,0X10,0X10,0X10,0X10,0X10,0X10,0X10,0X10,0X75,0XDF,0XDF,0XDF,0X9A,
// 2058 0X10,0X10,0X10,0X10,0X10,0X10,0X10,0X10,0X10,0X10,0X10,0X10,0X10,0X10,0X10,0X10,
// 2059 0X10,0X10,0X10,0X10,0X10,0X10,0X10,0X10,0X10,0X10,0X10,0X10,0X10,0X10,0X10,0X10,
// 2060 0X10,0X10,0X10,0X10,0X10,0X10,0X10,0X10,0X10,0X10,0X10,0X10,0X10,0X10,0X10,0X10,
// 2061 0X10,0X10,0X10,0X10,0X10,0X10,0X10,0X10,0X10,0X10,0X10,0X10,0X10,0X10,0X10,0X10,
// 2062 0X10,0X10,0X10,0X10,0X10,0X10,0X10,0X10,0X10,0X10,0X10,0X10,0X10,0X10,0X10,0X10,
// 2063 0X10,0X10,0X10,0X10,0X10,0X10,0X10,0X10,0X10,0X10,0X10,0X10,0X10,0X10,0X10,0X10,
// 2064 0X10,0X10,0X10,0X10,0X10,0X10,0X10,0X10,0X10,0X10,0X10,0X10,0X10,0X10,0X10,0X10,
// 2065 0X10,0X10,0X10,0X10,0X10,0X10,0X10,0X10,0X10,0X10,0X10,0X10,0X10,0X10,0X10,0X10,
// 2066 0X10,0X10,0X10,0X10,0X10,0X10,0X10,0X10,0X10,0X10,0X10,0X10,0X10,0X10,0X10,0X10,
// 2067 0X10,0X10,0X10,0X34,0XBA,0XFF,0XFF,0XFF,0XFF,0XFF,0XFF,0XFF,0XFF,0XFF,0XFF,0XFF,
// 2068 0XFF,0XFF,0XFF,0XFF,0XFF,0XFF,0XFF,0XFF,0XFF,0XFF,0XFF,0XFF,0XFF,0XFF,0XFF,0XFF,
// 2069 0XFF,0XFF,0XFF,0XFF,0XFF,0XFF,0XFF,0XFF,0XFF,0XFF,0XFF,0XFF,0XFF,0XFF,0XFF,0XFF,
// 2070 0XFF,0XFF,0XFF,0XFF,0XFF,0XFF,0XFF,0XFF,0XFF,0XFF,0XFF,0XFF,0XFF,0XFF,0XFF,0XFF,
// 2071 0XFF,0XFF,0XFF,0XFF,0XFF,0XFF,0XFF,0XFF,0XFF,0XFF,0XFF,0XFF,0XFF,0XFF,0XFF,0XFF,
// 2072 0XFF,0XFF,0XBA,0X34,0X10,0X10,0X10,0X10,0X10,0X10,0X10,0X10,0X10,0X10,0X10,0X10,
// 2073 0X10,0X10,0X10,0X10,0X10,0X10,0X10,0X10,0X10,0X10,0X10,0X10,0X10,0X10,0X10,0X10,
// 2074 0X10,0X10,0X10,0X10,0X10,0X10,0X10,0X10,0X10,0X10,0X10,0X10,0X10,0X10,0X10,0X10,
// 2075 0X10,0X10,0X10,0X10,0X10,0X10,0X10,0X10,0X75,0XFF,0XDF,0X10,0X10,0X10,0X10,0X55,
// 2076 0XFF,0XDF,0X10,0X10,0X10,0X10,0X34,0XDF,0XFF,0X79,0X10,0X10,0X10,0X10,0X10,0X10,
// 2077 0X10,0X10,0X10,0X10,0X10,0X10,0X10,0X10,0X10,0X10,0X9A,0XFF,0XFF,0XDF,0XDF,0XFF,
// 2078 0XBA,0X10,0X10,0X10,0X10,0X10,0X10,0X10,0X10,0X10,0X10,0X10,0X10,0X10,0X10,0X10,
// 2079 0X10,0X10,0X10,0X10,0X10,0X10,0X10,0X10,0X10,0X10,0X10,0X10,0X10,0X10,0X10,0X10,
// 2080 0X10,0X10,0X10,0X10,0X10,0X10,0X10,0X10,0X10,0X10,0X10,0X10,0X10,0X10,0X10,0X10,
// 2081 0X10,0X10,0X10,0X10,0X10,0X10,0X10,0X10,0X10,0X10,0X10,0X10,0X10,0X10,0X10,0X10,
// 2082 0X10,0X10,0X10,0X10,0X10,0X10,0X10,0X10,0X10,0X10,0X10,0X10,0X10,0X10,0X10,0X10,
// 2083 0X10,0X10,0X10,0X10,0X10,0X10,0X10,0X10,0X10,0X10,0X10,0X10,0X10,0X10,0X10,0X10,
// 2084 0X10,0X10,0X10,0X10,0X10,0X10,0X10,0X10,0X10,0X10,0X10,0X10,0X10,0X10,0X10,0X10,
// 2085 0X10,0X10,0X10,0X10,0X10,0X10,0X10,0X10,0X10,0X10,0X10,0X10,0X10,0X10,0X10,0X10,
// 2086 0X10,0X10,0X10,0X10,0X10,0X10,0X10,0X10,0X10,0X10,0X10,0X10,0X10,0X10,0X10,0X10,
// 2087 0X10,0X10,0X10,0X75,0XDF,0XFF,0XFF,0XFF,0XFF,0XFF,0XFF,0XFF,0XFF,0XFF,0XFF,0XFF,
// 2088 0XFF,0XFF,0XFF,0XFF,0XFF,0XFF,0XFF,0XFF,0XFF,0XFF,0XFF,0XFF,0XFF,0XFF,0XFF,0XFF,
// 2089 0XFF,0XFF,0XFF,0XFF,0XFF,0XFF,0XFF,0XFF,0XFF,0XFF,0XFF,0XFF,0XFF,0XFF,0XFF,0XFF,
// 2090 0XFF,0XFF,0XFF,0XFF,0XFF,0XFF,0XFF,0XFF,0XFF,0XFF,0XFF,0XFF,0XFF,0XFF,0XFF,0XFF,
// 2091 0XFF,0XFF,0XFF,0XFF,0XFF,0XFF,0XFF,0XFF,0XFF,0XFF,0XFF,0XFF,0XFF,0XFF,0XFF,0XFF,
// 2092 0XFF,0XFF,0XDF,0X75,0X10,0X10,0X10,0X10,0X10,0X10,0X10,0X10,0X10,0X10,0X10,0X10,
// 2093 0X10,0X10,0X10,0X10,0X10,0X10,0X10,0X10,0X10,0X10,0X10,0X10,0X10,0X10,0X10,0X10,
// 2094 0X10,0X10,0X10,0X10,0X10,0X10,0X10,0X10,0X10,0X10,0X10,0X10,0X10,0X10,0X10,0X10,
// 2095 0X10,0X10,0X10,0X10,0X10,0X10,0X10,0X10,0X34,0XFF,0XFF,0X34,0X10,0X10,0X10,0X9A,
// 2096 0XFF,0XDF,0X10,0X10,0X10,0X55,0XDF,0XFF,0XFF,0X79,0X10,0X10,0X10,0X10,0X10,0X10,
// 2097 0X10,0X10,0X10,0X10,0X10,0X10,0X10,0X10,0X10,0X10,0XDF,0XFF,0X55,0X10,0X10,0XDF,
// 2098 0XFF,0X55,0X10,0X10,0X10,0X10,0X10,0X10,0X10,0X10,0X10,0X10,0X10,0X10,0X10,0X10,
// 2099 0X10,0X10,0X10,0X10,0X10,0X10,0X10,0X10,0X10,0X10,0X10,0X10,0X10,0X10,0X10,0X10,
// 2100 0X10,0X10,0X10,0X10,0X10,0X10,0X10,0X10,0X10,0X10,0X10,0X10,0X10,0X10,0X10,0X10,
// 2101 0X10,0X10,0X10,0X10,0X10,0X10,0X10,0X10,0X10,0X10,0X10,0X10,0X10,0X10,0X10,0X10,
// 2102 0X10,0X10,0X10,0X10,0X10,0X10,0X10,0X10,0X10,0X10,0X10,0X10,0X10,0X10,0X10,0X10,
// 2103 0X10,0X10,0X10,0X10,0X10,0X10,0X10,0X10,0X10,0X10,0X10,0X10,0X10,0X10,0X10,0X10,
// 2104 0X10,0X10,0X10,0X10,0X10,0X10,0X10,0X10,0X10,0X10,0X10,0X10,0X10,0X10,0X10,0X10,
// 2105 0X10,0X10,0X10,0X10,0X10,0X10,0X10,0X10,0X10,0X10,0X10,0X10,0X10,0X10,0X10,0X10,
// 2106 0X10,0X10,0X10,0X10,0X10,0X10,0X10,0X10,0X10,0X10,0X10,0X10,0X10,0X10,0X10,0X10,
// 2107 0X10,0X10,0X34,0X9A,0XFF,0XFF,0XFF,0XFF,0XFF,0XFF,0XFF,0XFF,0XFF,0XFF,0XFF,0XFF,
// 2108 0XFF,0XFF,0XFF,0XFF,0XFF,0XFF,0XFF,0XFF,0XFF,0XFF,0XFF,0XFF,0XFF,0XFF,0XFF,0XFF,
// 2109 0XFF,0XFF,0XFF,0XFF,0XFF,0XFF,0XFF,0XFF,0XFF,0XFF,0XFF,0XFF,0XFF,0XFF,0XFF,0XFF,
// 2110 0XFF,0XFF,0XFF,0XFF,0XFF,0XFF,0XFF,0XFF,0XFF,0XFF,0XFF,0XFF,0XFF,0XFF,0XFF,0XFF,
// 2111 0XFF,0XFF,0XFF,0XFF,0XFF,0XFF,0XFF,0XFF,0XFF,0XFF,0XFF,0XFF,0XFF,0XFF,0XFF,0XFF,
// 2112 0XFF,0XFF,0XFF,0X9A,0X34,0X10,0X10,0X10,0X10,0X10,0X10,0X10,0X10,0X10,0X10,0X10,
// 2113 0X10,0X10,0X10,0X10,0X10,0X10,0X10,0X10,0X10,0X10,0X10,0X10,0X10,0X10,0X10,0X10,
// 2114 0X10,0X10,0X10,0X10,0X10,0X10,0X10,0X10,0X10,0X10,0X10,0X10,0X10,0X10,0X10,0X10,
// 2115 0X10,0X10,0X10,0X10,0X10,0X10,0X10,0X10,0X10,0XDF,0XFF,0X75,0X10,0X10,0X10,0XDF,
// 2116 0XFF,0X9A,0X10,0X10,0X34,0XFF,0XDF,0XDF,0XFF,0X79,0X10,0X10,0X10,0X10,0X10,0X10,
// 2117 0X10,0X10,0X10,0X10,0X10,0X10,0X10,0X10,0X10,0X9A,0XFF,0XBA,0X10,0X10,0X10,0X75,
// 2118 0XFF,0XDF,0X10,0X10,0X10,0X10,0X10,0X10,0X10,0X10,0X10,0X10,0X10,0X10,0X10,0X10,
// 2119 0X10,0X10,0X10,0X10,0X10,0X10,0X10,0X10,0X10,0X10,0X10,0X10,0X10,0X10,0X10,0X10,
// 2120 0X10,0X10,0X10,0X10,0X10,0X10,0X10,0X10,0X10,0X10,0X10,0X10,0X10,0X10,0X10,0X10,
// 2121 0X10,0X10,0X10,0X10,0X10,0X10,0X10,0X10,0X10,0X10,0X10,0X10,0X10,0X10,0X10,0X10,
// 2122 0X10,0X10,0X10,0X10,0X10,0X10,0X10,0X10,0X10,0X10,0X10,0X10,0X10,0X10,0X10,0X10,
// 2123 0X10,0X10,0X10,0X10,0X10,0X10,0X10,0X10,0X10,0X10,0X10,0X10,0X10,0X10,0X10,0X10,
// 2124 0X10,0X10,0X10,0X10,0X10,0X10,0X10,0X10,0X10,0X10,0X10,0X10,0X10,0X10,0X10,0X10,
// 2125 0X10,0X10,0X10,0X10,0X10,0X10,0X10,0X10,0X10,0X10,0X10,0X10,0X10,0X10,0X10,0X10,
// 2126 0X10,0X10,0X10,0X10,0X10,0X10,0X10,0X10,0X10,0X10,0X10,0X10,0X10,0X10,0X10,0X10,
// 2127 0X10,0X10,0X55,0XDF,0XFF,0XFF,0XFF,0XFF,0XFF,0XFF,0XFF,0XFF,0XFF,0XFF,0XFF,0XFF,
// 2128 0XFF,0XFF,0XFF,0XFF,0XFF,0XFF,0XFF,0XFF,0XFF,0XFF,0XFF,0XFF,0XFF,0XFF,0XFF,0XFF,
// 2129 0XFF,0XFF,0XFF,0XFF,0XFF,0XFF,0XFF,0XFF,0XFF,0XFF,0XFF,0XFF,0XFF,0XFF,0XFF,0XFF,
// 2130 0XFF,0XFF,0XFF,0XFF,0XFF,0XFF,0XFF,0XFF,0XFF,0XFF,0XFF,0XFF,0XFF,0XFF,0XFF,0XFF,
// 2131 0XFF,0XFF,0XFF,0XFF,0XFF,0XFF,0XFF,0XFF,0XFF,0XFF,0XFF,0XFF,0XFF,0XFF,0XFF,0XFF,
// 2132 0XFF,0XFF,0XFF,0XDF,0X55,0X10,0X10,0X10,0X10,0X10,0X10,0X10,0X10,0X10,0X10,0X10,
// 2133 0X10,0X10,0X10,0X10,0X10,0X10,0X10,0X10,0X10,0X10,0X10,0X10,0X10,0X10,0X10,0X10,
// 2134 0X10,0X10,0X10,0X10,0X10,0X10,0X10,0X10,0X10,0X10,0X10,0X10,0X10,0X10,0X10,0X10,
// 2135 0X10,0X10,0X10,0X10,0X10,0X10,0X10,0X10,0X10,0X9A,0XFF,0XDF,0X10,0X10,0X10,0XDF,
// 2136 0XFF,0X34,0X10,0X10,0X34,0XBA,0X10,0XDF,0XFF,0X79,0X10,0X10,0X10,0X10,0X10,0X10,
// 2137 0X10,0X10,0X10,0X10,0X10,0X10,0X10,0X10,0X10,0XDF,0XFF,0X75,0X10,0X10,0X10,0X34,
// 2138 0XFF,0XDF,0X10,0X10,0X10,0X10,0X10,0X10,0X10,0X10,0X10,0X10,0X10,0X10,0X10,0X10,
// 2139 0X10,0X10,0X10,0X10,0X10,0X10,0X10,0X10,0X10,0X10,0X10,0X10,0X10,0X10,0X10,0X10,
// 2140 0X10,0X10,0X10,0X10,0X10,0X10,0X10,0X10,0X10,0X10,0X10,0X10,0X10,0X10,0X10,0X10,
// 2141 0X10,0X10,0X10,0X10,0X10,0X10,0X10,0X10,0X10,0X10,0X10,0X10,0X10,0X10,0X10,0X10,
// 2142 0X10,0X10,0X10,0X10,0X10,0X10,0X10,0X10,0X10,0X10,0X10,0X10,0X10,0X10,0X10,0X10,
// 2143 0X10,0X10,0X10,0X10,0X10,0X10,0X10,0X10,0X10,0X10,0X10,0X10,0X10,0X10,0X10,0X10,
// 2144 0X10,0X10,0X10,0X10,0X10,0X10,0X10,0X10,0X10,0X10,0X10,0X10,0X10,0X10,0X10,0X10,
// 2145 0X10,0X10,0X10,0X10,0X10,0X10,0X10,0X10,0X10,0X10,0X10,0X10,0X10,0X10,0X10,0X10,
// 2146 0X10,0X10,0X10,0X10,0X10,0X10,0X10,0X10,0X10,0X10,0X10,0X10,0X10,0X10,0X10,0X10,
// 2147 0X10,0X10,0X75,0XFF,0XFF,0XFF,0XFF,0XFF,0XFF,0XFF,0XFF,0XFF,0XFF,0XFF,0XFF,0XFF,
// 2148 0XFF,0XFF,0XFF,0XFF,0XFF,0XFF,0XFF,0XFF,0XFF,0XFF,0XFF,0XFF,0XFF,0XFF,0XFF,0XFF,
// 2149 0XFF,0XFF,0XFF,0XFF,0XFF,0XFF,0XFF,0XFF,0XFF,0XFF,0XFF,0XFF,0XFF,0XFF,0XFF,0XFF,
// 2150 0XFF,0XFF,0XFF,0XFF,0XFF,0XFF,0XFF,0XFF,0XFF,0XFF,0XFF,0XFF,0XFF,0XFF,0XFF,0XFF,
// 2151 0XFF,0XFF,0XFF,0XFF,0XFF,0XFF,0XFF,0XFF,0XFF,0XFF,0XFF,0XFF,0XFF,0XFF,0XFF,0XFF,
// 2152 0XFF,0XFF,0XFF,0XFF,0X75,0X10,0X10,0X10,0X10,0X10,0X10,0X10,0X10,0X10,0X10,0X10,
// 2153 0X10,0X10,0X10,0X10,0X10,0X10,0X10,0X10,0X10,0X10,0X10,0X10,0X10,0X10,0X10,0X10,
// 2154 0X10,0X10,0X10,0X10,0X10,0X10,0X10,0X10,0X10,0X10,0X10,0X10,0X10,0X10,0X10,0X10,
// 2155 0X10,0X10,0X10,0X10,0X10,0X10,0X10,0X10,0X10,0X55,0XFF,0XDF,0X10,0X10,0X55,0XFF,
// 2156 0XDF,0X10,0X10,0X10,0X10,0X10,0X10,0XDF,0XFF,0X79,0X10,0X10,0X10,0X10,0X10,0X10,
// 2157 0X10,0X10,0X10,0X10,0X10,0X10,0X10,0X10,0X10,0XDF,0XFF,0X34,0X10,0X10,0X10,0X10,
// 2158 0XDF,0XDF,0X10,0X10,0X10,0X10,0X10,0X10,0X10,0X10,0X10,0X10,0X10,0X10,0X10,0X10,
// 2159 0X10,0X10,0X10,0X10,0X10,0X10,0X10,0X10,0X10,0X10,0X10,0X10,0X10,0X10,0X10,0X10,
// 2160 0X10,0X10,0X10,0X10,0X10,0X10,0X10,0X10,0X10,0X10,0X10,0X10,0X10,0X10,0X10,0X10,
// 2161 0X10,0X10,0X10,0X10,0X10,0X10,0X10,0X10,0X10,0X10,0X10,0X10,0X10,0X10,0X10,0X10,
// 2162 0X10,0X10,0X10,0X10,0X10,0X10,0X10,0X10,0X10,0X10,0X10,0X10,0X10,0X10,0X10,0X10,
// 2163 0X10,0X10,0X10,0X10,0X10,0X10,0X10,0X10,0X10,0X10,0X10,0X10,0X10,0X10,0X10,0X10,
// 2164 0X10,0X10,0X10,0X10,0X10,0X10,0X10,0X10,0X10,0X10,0X10,0X10,0X10,0X10,0X10,0X10,
// 2165 0X10,0X10,0X10,0X10,0X10,0X10,0X10,0X10,0X10,0X10,0X10,0X10,0X10,0X10,0X10,0X10,
// 2166 0X10,0X10,0X10,0X10,0X10,0X10,0X10,0X10,0X10,0X10,0X10,0X10,0X10,0X10,0X10,0X10,
// 2167 0X10,0X34,0X9A,0XFF,0XFF,0XFF,0XFF,0XFF,0XFF,0XFF,0XFF,0XFF,0XFF,0XFF,0XFF,0XFF,
// 2168 0XFF,0XFF,0XFF,0XFF,0XFF,0XFF,0XFF,0XFF,0XFF,0XFF,0XFF,0XFF,0XFF,0XFF,0XFF,0XFF,
// 2169 0XFF,0XFF,0XFF,0XFF,0XFF,0XFF,0XFF,0XFF,0XFF,0XFF,0XFF,0XFF,0XFF,0XFF,0XFF,0XFF,
// 2170 0XFF,0XFF,0XFF,0XFF,0XFF,0XFF,0XFF,0XFF,0XFF,0XFF,0XFF,0XFF,0XFF,0XFF,0XFF,0XFF,
// 2171 0XFF,0XFF,0XFF,0XFF,0XFF,0XFF,0XFF,0XFF,0XFF,0XFF,0XFF,0XFF,0XFF,0XFF,0XFF,0XFF,
// 2172 0XFF,0XFF,0XFF,0XFF,0X9A,0X34,0X10,0X10,0X10,0X10,0X10,0X10,0X10,0X10,0X10,0X10,
// 2173 0X10,0X10,0X10,0X10,0X10,0X10,0X10,0X10,0X10,0X10,0X10,0X10,0X10,0X10,0X10,0X10,
// 2174 0X10,0X10,0X10,0X10,0X10,0X10,0X10,0X10,0X10,0X10,0X10,0X10,0X10,0X10,0X10,0X10,
// 2175 0X10,0X10,0X10,0X10,0X10,0X10,0X10,0X10,0X10,0X10,0XDF,0XFF,0X55,0X10,0X9A,0XFF,
// 2176 0XBA,0X10,0X10,0X10,0X10,0X10,0X10,0XDF,0XFF,0X79,0X10,0X10,0X10,0X10,0X10,0X10,
// 2177 0X10,0X10,0X10,0X10,0X10,0X10,0X10,0X10,0X10,0XDF,0XFF,0X34,0X10,0X10,0X10,0X10,
// 2178 0XDF,0XFF,0X34,0X10,0X10,0X10,0X10,0X10,0X10,0X10,0X10,0X10,0X10,0X10,0X10,0X10,
// 2179 0X10,0X10,0X10,0X10,0X10,0X10,0X10,0X10,0X10,0X10,0X10,0X10,0X10,0X10,0X10,0X10,
// 2180 0X10,0X10,0X10,0X10,0X10,0X10,0X10,0X10,0X10,0X10,0X10,0X10,0X10,0X10,0X10,0X10,
// 2181 0X10,0X10,0X10,0X10,0X10,0X10,0X10,0X10,0X10,0X10,0X10,0X10,0X10,0X10,0X10,0X10,
// 2182 0X10,0X10,0X10,0X10,0X10,0X10,0X10,0X10,0X10,0X10,0X10,0X10,0X10,0X10,0X10,0X10,
// 2183 0X10,0X10,0X10,0X10,0X10,0X10,0X10,0X10,0X10,0X10,0X10,0X10,0X10,0X10,0X10,0X10,
// 2184 0X10,0X10,0X10,0X10,0X10,0X10,0X10,0X10,0X10,0X10,0X10,0X10,0X10,0X10,0X10,0X10,
// 2185 0X10,0X10,0X10,0X10,0X10,0X10,0X10,0X10,0X10,0X10,0X10,0X10,0X10,0X10,0X10,0X10,
// 2186 0X10,0X10,0X10,0X10,0X10,0X10,0X10,0X10,0X10,0X10,0X10,0X10,0X10,0X10,0X10,0X10,
// 2187 0X10,0X55,0XBE,0XFF,0XFF,0XFF,0XFF,0XFF,0XFF,0XFF,0XFF,0XFF,0XFF,0XFF,0XFF,0XFF,
// 2188 0XFF,0XFF,0XFF,0XFF,0XFF,0XFF,0XFF,0XFF,0XFF,0XFF,0XFF,0XFF,0XFF,0XFF,0XFF,0XFF,
// 2189 0XFF,0XFF,0XFF,0XFF,0XFF,0XFF,0XFF,0XFF,0XFF,0XFF,0XFF,0XFF,0XFF,0XFF,0XFF,0XFF,
// 2190 0XFF,0XFF,0XFF,0XFF,0XFF,0XFF,0XFF,0XFF,0XFF,0XFF,0XFF,0XFF,0XFF,0XFF,0XFF,0XFF,
// 2191 0XFF,0XFF,0XFF,0XFF,0XFF,0XFF,0XFF,0XFF,0XFF,0XFF,0XFF,0XFF,0XFF,0XFF,0XFF,0XFF,
// 2192 0XFF,0XFF,0XFF,0XFF,0XBE,0X55,0X10,0X10,0X10,0X10,0X10,0X10,0X10,0X10,0X10,0X10,
// 2193 0X10,0X10,0X10,0X10,0X10,0X10,0X10,0X10,0X10,0X10,0X10,0X10,0X10,0X10,0X10,0X10,
// 2194 0X10,0X10,0X10,0X10,0X10,0X10,0X10,0X10,0X10,0X10,0X10,0X10,0X10,0X10,0X10,0X10,
// 2195 0X10,0X10,0X10,0X10,0X10,0X10,0X10,0X10,0X10,0X10,0XDF,0XFF,0X9A,0X10,0XDF,0XFF,
// 2196 0X55,0X10,0X10,0X10,0X10,0X10,0X10,0XDF,0XFF,0X79,0X10,0X10,0X10,0X10,0X10,0X10,
// 2197 0X10,0X10,0X10,0X10,0X10,0X10,0X10,0X10,0X10,0XDF,0XDF,0X10,0X10,0X10,0X10,0X10,
// 2198 0XDF,0XFF,0X34,0X10,0X10,0X10,0X10,0X10,0X10,0X10,0X10,0X10,0X10,0X10,0X10,0X10,
// 2199 0X10,0X10,0X10,0X10,0X10,0X10,0X10,0X10,0X10,0X10,0X10,0X10,0X10,0X10,0X10,0X10,
// 2200 0X10,0X10,0X10,0X10,0X10,0X10,0X10,0X10,0X10,0X10,0X10,0X10,0X10,0X10,0X10,0X10,
// 2201 0X10,0X10,0X10,0X10,0X10,0X10,0X10,0X10,0X10,0X10,0X10,0X10,0X10,0X10,0X10,0X10,
// 2202 0X10,0X10,0X10,0X10,0X10,0X10,0X10,0X10,0X10,0X10,0X10,0X10,0X10,0X10,0X10,0X10,
// 2203 0X10,0X10,0X10,0X10,0X10,0X10,0X10,0X10,0X10,0X10,0X10,0X10,0X10,0X10,0X10,0X10,
// 2204 0X10,0X10,0X10,0X10,0X10,0X10,0X10,0X10,0X10,0X10,0X10,0X10,0X10,0X10,0X10,0X10,
// 2205 0X10,0X10,0X10,0X10,0X10,0X10,0X10,0X10,0X10,0X10,0X10,0X10,0X10,0X10,0X10,0X10,
// 2206 0X10,0X10,0X10,0X10,0X10,0X10,0X10,0X10,0X10,0X10,0X10,0X10,0X10,0X10,0X10,0X10,
// 2207 0X10,0X79,0XDF,0XFF,0XFF,0XFF,0XFF,0XFF,0XFF,0XFF,0XFF,0XFF,0XFF,0XFF,0XFF,0XFF,
// 2208 0XFF,0XFF,0XFF,0XFF,0XFF,0XFF,0XFF,0XFF,0XFF,0XFF,0XFF,0XFF,0XFF,0XFF,0XFF,0XFF,
// 2209 0XFF,0XFF,0XFF,0XFF,0XFF,0XFF,0XFF,0XFF,0XFF,0XFF,0XFF,0XFF,0XFF,0XFF,0XFF,0XFF,
// 2210 0XFF,0XFF,0XFF,0XFF,0XFF,0XFF,0XFF,0XFF,0XFF,0XFF,0XFF,0XFF,0XFF,0XFF,0XFF,0XFF,
// 2211 0XFF,0XFF,0XFF,0XFF,0XFF,0XFF,0XFF,0XFF,0XFF,0XFF,0XFF,0XFF,0XFF,0XFF,0XFF,0XFF,
// 2212 0XFF,0XFF,0XFF,0XFF,0XDF,0X79,0X10,0X10,0X10,0X10,0X10,0X10,0X10,0X10,0X10,0X10,
// 2213 0X10,0X10,0X10,0X10,0X10,0X10,0X10,0X10,0X10,0X10,0X10,0X10,0X10,0X10,0X10,0X10,
// 2214 0X10,0X10,0X10,0X10,0X10,0X10,0X10,0X10,0X10,0X10,0X10,0X10,0X10,0X10,0X10,0X10,
// 2215 0X10,0X10,0X10,0X10,0X10,0X10,0X10,0X10,0X10,0X10,0X75,0XFF,0XDF,0X10,0XDF,0XDF,
// 2216 0X10,0X10,0X10,0X10,0X10,0X10,0X10,0XDF,0XFF,0X79,0X10,0X10,0X10,0X10,0X10,0X10,
// 2217 0X10,0X10,0X10,0X10,0X10,0X10,0X10,0X10,0X10,0XDF,0XFF,0X34,0X10,0X10,0X10,0X10,
// 2218 0XDF,0XDF,0X10,0X10,0X10,0X10,0X10,0X10,0X10,0X10,0X10,0X10,0X10,0X10,0X10,0X10,
// 2219 0X10,0X10,0X10,0X10,0X10,0X10,0X10,0X10,0X10,0X10,0X10,0X10,0X10,0X10,0X10,0X10,
// 2220 0X10,0X10,0X10,0X10,0X10,0X10,0X10,0X10,0X10,0X10,0X10,0X10,0X10,0X10,0X10,0X10,
// 2221 0X10,0X10,0X10,0X10,0X10,0X10,0X10,0X10,0X10,0X10,0X10,0X10,0X10,0X10,0X10,0X10,
// 2222 0X10,0X10,0X10,0X10,0X10,0X10,0X10,0X10,0X10,0X10,0X10,0X10,0X10,0X10,0X10,0X10,
// 2223 0X10,0X10,0X10,0X10,0X10,0X10,0X10,0X10,0X10,0X10,0X10,0X10,0X10,0X10,0X10,0X10,
// 2224 0X10,0X10,0X10,0X10,0X10,0X10,0X10,0X10,0X10,0X10,0X10,0X10,0X10,0X10,0X10,0X10,
// 2225 0X10,0X10,0X10,0X10,0X10,0X10,0X10,0X10,0X10,0X10,0X10,0X10,0X10,0X10,0X10,0X10,
// 2226 0X10,0X10,0X10,0X10,0X10,0X10,0X10,0X10,0X10,0X10,0X10,0X10,0X10,0X10,0X10,0X10,
// 2227 0X10,0X9A,0XFF,0XFF,0XFF,0XFF,0XFF,0XFF,0XFF,0XFF,0XFF,0XFF,0XFF,0XFF,0XFF,0XFF,
// 2228 0XFF,0XFF,0XFF,0XFF,0XFF,0XFF,0XFF,0XFF,0XFF,0XFF,0XFF,0XFF,0XFF,0XFF,0XFF,0XFF,
// 2229 0XFF,0XFF,0XFF,0XFF,0XFF,0XFF,0XFF,0XFF,0XFF,0XFF,0XFF,0XFF,0XFF,0XFF,0XFF,0XFF,
// 2230 0XFF,0XFF,0XFF,0XFF,0XFF,0XFF,0XFF,0XFF,0XFF,0XFF,0XFF,0XFF,0XFF,0XFF,0XFF,0XFF,
// 2231 0XFF,0XFF,0XFF,0XFF,0XFF,0XFF,0XFF,0XFF,0XFF,0XFF,0XFF,0XFF,0XFF,0XFF,0XFF,0XFF,
// 2232 0XFF,0XFF,0XFF,0XFF,0XFF,0X9A,0X10,0X10,0X10,0X10,0X10,0X10,0X10,0X10,0X10,0X10,
// 2233 0X10,0X10,0X10,0X10,0X10,0X10,0X10,0X10,0X10,0X10,0X10,0X10,0X10,0X10,0X10,0X10,
// 2234 0X10,0X10,0X10,0X10,0X10,0X10,0X10,0X10,0X10,0X10,0X10,0X10,0X10,0X10,0X10,0X10,
// 2235 0X10,0X10,0X10,0X10,0X10,0X10,0X10,0X10,0X10,0X10,0X34,0XFF,0XDF,0X79,0XFF,0XDF,
// 2236 0X10,0X10,0X10,0X10,0X10,0X10,0X10,0XDF,0XFF,0X79,0X10,0X10,0X10,0X10,0X10,0X10,
// 2237 0X10,0X10,0X10,0X10,0X10,0X10,0X10,0X10,0X10,0XDF,0XFF,0X34,0X10,0X10,0X10,0X10,
// 2238 0XDF,0XDF,0X10,0X10,0X10,0X10,0X10,0X10,0X10,0X10,0X10,0X10,0X10,0X10,0X10,0X10,
// 2239 0X10,0X10,0X10,0X10,0X10,0X10,0X10,0X10,0X10,0X10,0X10,0X10,0X10,0X10,0X10,0X10,
// 2240 0X10,0X10,0X10,0X10,0X10,0X10,0X10,0X10,0X10,0X10,0X10,0X10,0X10,0X10,0X10,0X10,
// 2241 0X10,0X10,0X10,0X10,0X10,0X10,0X10,0X10,0X10,0X10,0X10,0X10,0X10,0X10,0X10,0X10,
// 2242 0X10,0X10,0X10,0X10,0X10,0X10,0X10,0X10,0X10,0X10,0X10,0X10,0X10,0X10,0X10,0X10,
// 2243 0X10,0X10,0X10,0X10,0X10,0X10,0X10,0X10,0X10,0X10,0X10,0X10,0X10,0X10,0X10,0X10,
// 2244 0X10,0X10,0X10,0X10,0X10,0X10,0X10,0X10,0X10,0X10,0X10,0X10,0X10,0X10,0X10,0X10,
// 2245 0X10,0X10,0X10,0X10,0X10,0X10,0X10,0X10,0X10,0X10,0X10,0X10,0X10,0X10,0X10,0X10,
// 2246 0X10,0X10,0X10,0X10,0X10,0X10,0X10,0X10,0X10,0X10,0X10,0X10,0X10,0X10,0X10,0X10,
// 2247 0X34,0XBA,0XFF,0XFF,0XFF,0XFF,0XFF,0XFF,0XFF,0XFF,0XFF,0XFF,0XFF,0XFF,0XFF,0XFF,
// 2248 0XFF,0XFF,0XFF,0XFF,0XFF,0XFF,0XFF,0XFF,0XFF,0XFF,0XFF,0XFF,0XFF,0XFF,0XFF,0XFF,
// 2249 0XFF,0XFF,0XFF,0XFF,0XFF,0XFF,0XFF,0XFF,0XFF,0XFF,0XFF,0XFF,0XFF,0XFF,0XFF,0XFF,
// 2250 0XFF,0XFF,0XFF,0XFF,0XFF,0XFF,0XFF,0XFF,0XFF,0XFF,0XFF,0XFF,0XFF,0XFF,0XFF,0XFF,
// 2251 0XFF,0XFF,0XFF,0XFF,0XFF,0XFF,0XFF,0XFF,0XFF,0XFF,0XFF,0XFF,0XFF,0XFF,0XFF,0XFF,
// 2252 0XFF,0XFF,0XFF,0XFF,0XFF,0XBA,0X34,0X10,0X10,0X10,0X10,0X10,0X10,0X10,0X10,0X10,
// 2253 0X10,0X10,0X10,0X10,0X10,0X10,0X10,0X10,0X10,0X10,0X10,0X10,0X10,0X10,0X10,0X10,
// 2254 0X10,0X10,0X10,0X10,0X10,0X10,0X10,0X10,0X10,0X10,0X10,0X10,0X10,0X10,0X10,0X10,
// 2255 0X10,0X10,0X10,0X10,0X10,0X10,0X10,0X10,0X10,0X10,0X10,0XDF,0XFF,0XDF,0XFF,0X9A,
// 2256 0X10,0X10,0X10,0X10,0X10,0X10,0X10,0XDF,0XFF,0X79,0X10,0X10,0X10,0X10,0X10,0X10,
// 2257 0X10,0X10,0X10,0X10,0X10,0X10,0X10,0X10,0X10,0XBA,0XFF,0X9A,0X10,0X10,0X10,0X55,
// 2258 0XFF,0XDF,0X10,0X10,0X10,0X10,0X10,0X10,0X10,0X10,0X10,0X10,0X10,0X10,0X10,0X10,
// 2259 0X10,0X10,0X10,0X10,0X10,0X10,0X10,0X10,0X10,0X10,0X10,0X10,0X10,0X10,0X10,0X10,
// 2260 0X10,0X10,0X10,0X10,0X10,0X10,0X10,0X10,0X10,0X10,0X10,0X10,0X10,0X10,0X10,0X10,
// 2261 0X10,0X10,0X10,0X10,0X10,0X10,0X10,0X10,0X10,0X10,0X10,0X10,0X10,0X10,0X10,0X10,
// 2262 0X10,0X10,0X10,0X10,0X10,0X10,0X10,0X10,0X10,0X10,0X10,0X10,0X10,0X10,0X10,0X10,
// 2263 0X10,0X10,0X10,0X10,0X10,0X10,0X10,0X10,0X10,0X10,0X10,0X10,0X10,0X10,0X10,0X10,
// 2264 0X10,0X10,0X10,0X10,0X10,0X10,0X10,0X10,0X10,0X10,0X10,0X10,0X10,0X10,0X10,0X10,
// 2265 0X10,0X10,0X10,0X10,0X10,0X10,0X10,0X10,0X10,0X10,0X10,0X10,0X10,0X10,0X10,0X10,
// 2266 0X10,0X10,0X10,0X10,0X10,0X10,0X10,0X10,0X10,0X10,0X10,0X10,0X10,0X10,0X10,0X10,
// 2267 0X55,0XBE,0XFF,0XFF,0XFF,0XFF,0XFF,0XFF,0XFF,0XFF,0XFF,0XFF,0XFF,0XFF,0XFF,0XFF,
// 2268 0XFF,0XFF,0XFF,0XFF,0XFF,0XFF,0XFF,0XFF,0XFF,0XFF,0XFF,0XFF,0XFF,0XFF,0XFF,0XFF,
// 2269 0XFF,0XFF,0XFF,0XFF,0XFF,0XFF,0XFF,0XFF,0XFF,0XFF,0XFF,0XFF,0XFF,0XFF,0XFF,0XFF,
// 2270 0XFF,0XFF,0XFF,0XFF,0XFF,0XFF,0XFF,0XFF,0XFF,0XFF,0XFF,0XFF,0XFF,0XFF,0XFF,0XFF,
// 2271 0XFF,0XFF,0XFF,0XFF,0XFF,0XFF,0XFF,0XFF,0XFF,0XFF,0XFF,0XFF,0XFF,0XFF,0XFF,0XFF,
// 2272 0XFF,0XFF,0XFF,0XFF,0XFF,0XBE,0X55,0X10,0X10,0X10,0X10,0X10,0X10,0X10,0X10,0X10,
// 2273 0X10,0X10,0X10,0X10,0X10,0X10,0X10,0X10,0X10,0X10,0X10,0X10,0X10,0X10,0X10,0X10,
// 2274 0X10,0X10,0X10,0X10,0X10,0X10,0X10,0X10,0X10,0X10,0X10,0X10,0X10,0X10,0X10,0X10,
// 2275 0X10,0X10,0X10,0X10,0X10,0X10,0X10,0X10,0X10,0X10,0X10,0X9A,0XFF,0XFF,0XFF,0X34,
// 2276 0X10,0X10,0X10,0X10,0X10,0X10,0X10,0XDF,0XFF,0X79,0X10,0X10,0X10,0X10,0X10,0X10,
// 2277 0X10,0X10,0X10,0X10,0X10,0X10,0X10,0X10,0X10,0X55,0XFF,0XDF,0X10,0X10,0X10,0X9A,
// 2278 0XFF,0X9A,0X10,0X10,0X10,0X10,0X10,0X10,0X10,0X10,0X10,0X10,0X10,0X10,0X10,0X10,
// 2279 0X10,0X10,0X10,0X10,0X10,0X10,0X10,0X10,0X10,0X10,0X10,0X10,0X10,0X10,0X10,0X10,
// 2280 0X10,0X10,0X10,0X10,0X10,0X10,0X10,0X10,0X10,0X10,0X10,0X10,0X10,0X10,0X10,0X10,
// 2281 0X10,0X10,0X10,0X10,0X10,0X10,0X10,0X10,0X10,0X10,0X10,0X10,0X10,0X10,0X10,0X10,
// 2282 0X10,0X10,0X10,0X10,0X10,0X10,0X10,0X10,0X10,0X10,0X10,0X10,0X10,0X10,0X10,0X10,
// 2283 0X10,0X10,0X10,0X10,0X10,0X10,0X10,0X10,0X10,0X10,0X10,0X10,0X10,0X10,0X10,0X10,
// 2284 0X10,0X10,0X10,0X10,0X10,0X10,0X10,0X10,0X10,0X10,0X10,0X10,0X10,0X10,0X10,0X10,
// 2285 0X10,0X10,0X10,0X10,0X10,0X10,0X10,0X10,0X10,0X10,0X10,0X10,0X10,0X10,0X10,0X10,
// 2286 0X10,0X10,0X10,0X10,0X10,0X10,0X10,0X10,0X10,0X10,0X10,0X10,0X10,0X10,0X10,0X10,
// 2287 0X79,0XDF,0XFF,0XFF,0XFF,0XFF,0XFF,0XFF,0XFF,0XFF,0XFF,0XFF,0XFF,0XFF,0XFF,0XFF,
// 2288 0XFF,0XFF,0XFF,0XFF,0XFF,0XFF,0XFF,0XFF,0XFF,0XFF,0XFF,0XFF,0XFF,0XFF,0XFF,0XFF,
// 2289 0XFF,0XFF,0XFF,0XFF,0XFF,0XFF,0XFF,0XFF,0XFF,0XFF,0XFF,0XFF,0XFF,0XFF,0XFF,0XFF,
// 2290 0XFF,0XFF,0XFF,0XFF,0XFF,0XFF,0XFF,0XFF,0XFF,0XFF,0XFF,0XFF,0XFF,0XFF,0XFF,0XFF,
// 2291 0XFF,0XFF,0XFF,0XFF,0XFF,0XFF,0XFF,0XFF,0XFF,0XFF,0XFF,0XFF,0XFF,0XFF,0XFF,0XFF,
// 2292 0XFF,0XFF,0XFF,0XFF,0XFF,0XDF,0X79,0X10,0X10,0X10,0X10,0X10,0X10,0X10,0X10,0X10,
// 2293 0X10,0X10,0X10,0X10,0X10,0X10,0X10,0X10,0X10,0X10,0X10,0X10,0X10,0X10,0X10,0X10,
// 2294 0X10,0X10,0X10,0X10,0X10,0X10,0X10,0X10,0X10,0X10,0X10,0X10,0X10,0X10,0X10,0X10,
// 2295 0X10,0X10,0X10,0X10,0X10,0X10,0X10,0X10,0X10,0X10,0X10,0X55,0XFF,0XFF,0XDF,0X10,
// 2296 0X10,0X10,0X10,0X10,0X10,0X10,0X10,0XDF,0XFF,0X79,0X10,0X10,0X10,0X10,0X10,0X9A,
// 2297 0XDF,0X55,0X10,0X10,0X10,0X10,0X10,0X10,0X10,0X10,0XDF,0XFF,0XDF,0X55,0X79,0XFF,
// 2298 0XFF,0X34,0X10,0X10,0X10,0X10,0X10,0X10,0X10,0X10,0X10,0X10,0X10,0X10,0X10,0X10,
// 2299 0X10,0X10,0X10,0X10,0X10,0X10,0X10,0X10,0X10,0X10,0X10,0X10,0X10,0X10,0X10,0X10,
// 2300 0X10,0X10,0X10,0X10,0X10,0X10,0X10,0X10,0X10,0X10,0X10,0X10,0X10,0X10,0X10,0X10,
// 2301 0X10,0X10,0X10,0X10,0X10,0X10,0X10,0X10,0X10,0X10,0X10,0X10,0X10,0X10,0X10,0X10,
// 2302 0X10,0X10,0X10,0X10,0X10,0X10,0X10,0X10,0X10,0X10,0X10,0X10,0X10,0X10,0X10,0X10,
// 2303 0X10,0X10,0X10,0X10,0X10,0X10,0X10,0X10,0X10,0X10,0X10,0X10,0X10,0X10,0X10,0X10,
// 2304 0X10,0X10,0X10,0X10,0X10,0X10,0X10,0X10,0X10,0X10,0X10,0X10,0X10,0X10,0X10,0X10,
// 2305 0X10,0X10,0X10,0X10,0X10,0X10,0X10,0X10,0X10,0X10,0X10,0X10,0X10,0X10,0X10,0X10,
// 2306 0X10,0X10,0X10,0X10,0X10,0X10,0X10,0X10,0X10,0X10,0X10,0X10,0X10,0X10,0X10,0X10,
// 2307 0X9A,0XDF,0XFF,0XFF,0XFF,0XFF,0XFF,0XFF,0XFF,0XFF,0XFF,0XFF,0XFF,0XFF,0XFF,0XFF,
// 2308 0XFF,0XFF,0XFF,0XFF,0XFF,0XFF,0XFF,0XFF,0XFF,0XFF,0XFF,0XFF,0XFF,0XFF,0XFF,0XFF,
// 2309 0XFF,0XFF,0XFF,0XFF,0XFF,0XFF,0XFF,0XFF,0XFF,0XFF,0XFF,0XFF,0XFF,0XFF,0XFF,0XFF,
// 2310 0XFF,0XFF,0XFF,0XFF,0XFF,0XFF,0XFF,0XFF,0XFF,0XFF,0XFF,0XFF,0XFF,0XFF,0XFF,0XFF,
// 2311 0XFF,0XFF,0XFF,0XFF,0XFF,0XFF,0XFF,0XFF,0XFF,0XFF,0XFF,0XFF,0XFF,0XFF,0XFF,0XFF,
// 2312 0XFF,0XFF,0XFF,0XFF,0XFF,0XDF,0X9A,0X10,0X10,0X10,0X10,0X10,0X10,0X10,0X10,0X10,
// 2313 0X10,0X10,0X10,0X10,0X10,0X10,0X10,0X10,0X10,0X10,0X10,0X10,0X10,0X10,0X10,0X10,
// 2314 0X10,0X10,0X10,0X10,0X10,0X10,0X10,0X10,0X10,0X10,0X10,0X10,0X10,0X10,0X10,0X10,
// 2315 0X10,0X10,0X10,0X10,0X10,0X10,0X10,0X10,0X10,0X10,0X10,0X10,0XDF,0XFF,0XBA,0X10,
// 2316 0X10,0X10,0X10,0X10,0X10,0X10,0X10,0XDF,0XFF,0X79,0X10,0X10,0X10,0X10,0X10,0XDF,
// 2317 0XFF,0XDF,0X10,0X10,0X10,0X10,0X10,0X10,0X10,0X10,0X34,0XDF,0XFF,0XFF,0XFF,0XFF,
// 2318 0X55,0X10,0X10,0X10,0X10,0X10,0X10,0X10,0X10,0X10,0X10,0X10,0X10,0X10,0X10,0X10,
// 2319 0X10,0X10,0X10,0X10,0X10,0X10,0X10,0X10,0X10,0X10,0X10,0X10,0X10,0X10,0X10,0X10,
// 2320 0X10,0X10,0X10,0X10,0X10,0X10,0X10,0X10,0X10,0X10,0X10,0X10,0X10,0X10,0X10,0X10,
// 2321 0X10,0X10,0X10,0X10,0X10,0X10,0X10,0X10,0X10,0X10,0X10,0X10,0X10,0X10,0X10,0X10,
// 2322 0X10,0X10,0X10,0X10,0X10,0X10,0X10,0X10,0X10,0X10,0X10,0X10,0X10,0X10,0X10,0X10,
// 2323 0X10,0X10,0X10,0X10,0X10,0X10,0X10,0X10,0X10,0X10,0X10,0X10,0X10,0X10,0X10,0X10,
// 2324 0X10,0X10,0X10,0X10,0X10,0X10,0X10,0X10,0X10,0X10,0X10,0X10,0X10,0X10,0X10,0X10,
// 2325 0X10,0X10,0X10,0X10,0X10,0X10,0X10,0X10,0X10,0X10,0X10,0X10,0X10,0X10,0X10,0X10,
// 2326 0X10,0X10,0X10,0X10,0X10,0X10,0X10,0X10,0X10,0X10,0X10,0X10,0X10,0X10,0X10,0X10,
// 2327 0XBA,0XFF,0XFF,0XFF,0XFF,0XFF,0XFF,0XFF,0XFF,0XFF,0XFF,0XFF,0XFF,0XFF,0XFF,0XFF,
// 2328 0XFF,0XFF,0XFF,0XFF,0XFF,0XFF,0XFF,0XFF,0XFF,0XFF,0XFF,0XFF,0XFF,0XFF,0XFF,0XFF,
// 2329 0XFF,0XFF,0XFF,0XFF,0XFF,0XFF,0XFF,0XFF,0XFF,0XFF,0XFF,0XFF,0XFF,0XFF,0XFF,0XFF,
// 2330 0XFF,0XFF,0XFF,0XFF,0XFF,0XFF,0XFF,0XFF,0XFF,0XFF,0XFF,0XFF,0XFF,0XFF,0XFF,0XFF,
// 2331 0XFF,0XFF,0XFF,0XFF,0XFF,0XFF,0XFF,0XFF,0XFF,0XFF,0XFF,0XFF,0XFF,0XFF,0XFF,0XFF,
// 2332 0XFF,0XFF,0XFF,0XFF,0XFF,0XFF,0XBA,0X10,0X10,0X10,0X10,0X10,0X10,0X10,0X10,0X10,
// 2333 0X10,0X10,0X10,0X10,0X10,0X10,0X10,0X10,0X10,0X10,0X10,0X10,0X10,0X10,0X10,0X10,
// 2334 0X10,0X10,0X10,0X10,0X10,0X10,0X10,0X10,0X10,0X10,0X10,0X10,0X10,0X10,0X10,0X10,
// 2335 0X10,0X10,0X10,0X10,0X10,0X10,0X10,0X10,0X10,0X10,0X10,0X10,0X9A,0XDF,0X55,0X10,
// 2336 0X10,0X10,0X10,0X10,0X10,0X10,0X10,0X75,0X79,0X55,0X10,0X10,0X10,0X10,0X10,0X55,
// 2337 0XDF,0X55,0X10,0X10,0X10,0X10,0X10,0X10,0X10,0X10,0X10,0X10,0X79,0XDF,0XBA,0X55,
// 2338 0X10,0X10,0X10,0X10,0X10,0X10,0X10,0X10,0X10,0X10,0X10,0X10,0X10,0X10,0X10,0X10,
// 2339 0X10,0X10,0X10,0X10,0X10,0X10,0X10,0X10,0X10,0X10,0X10,0X10,0X10,0X10,0X10,0X10,
// 2340 0X10,0X10,0X10,0X10,0X10,0X10,0X10,0X10,0X10,0X10,0X10,0X10,0X10,0X10,0X10,0X10,
// 2341 0X10,0X10,0X10,0X10,0X10,0X10,0X10,0X10,0X10,0X10,0X10,0X10,0X10,0X10,0X10,0X10,
// 2342 0X10,0X10,0X10,0X10,0X10,0X10,0X10,0X10,0X10,0X10,0X10,0X10,0X10,0X10,0X10,0X10,
// 2343 0X10,0X10,0X10,0X10,0X10,0X10,0X10,0X10,0X10,0X10,0X10,0X10,0X10,0X10,0X10,0X10,
// 2344 0X10,0X10,0X10,0X10,0X10,0X10,0X10,0X10,0X10,0X10,0X10,0X10,0X10,0X10,0X10,0X10,
// 2345 0X10,0X10,0X10,0X10,0X10,0X10,0X10,0X10,0X10,0X10,0X10,0X10,0X10,0X10,0X10,0X10,
// 2346 0X10,0X10,0X10,0X10,0X10,0X10,0X10,0X10,0X10,0X10,0X10,0X10,0X10,0X10,0X10,0X34,
// 2347 0XBE,0XFF,0XFF,0XFF,0XFF,0XFF,0XFF,0XFF,0XFF,0XFF,0XFF,0XFF,0XFF,0XFF,0XFF,0XFF,
// 2348 0XFF,0XFF,0XFF,0XFF,0XFF,0XFF,0XFF,0XFF,0XFF,0XFF,0XFF,0XFF,0XFF,0XFF,0XFF,0XFF,
// 2349 0XFF,0XFF,0XFF,0XFF,0XFF,0XFF,0XFF,0XFF,0XFF,0XFF,0XFF,0XFF,0XFF,0XFF,0XFF,0XFF,
// 2350 0XFF,0XFF,0XFF,0XFF,0XFF,0XFF,0XFF,0XFF,0XFF,0XFF,0XFF,0XFF,0XFF,0XFF,0XFF,0XFF,
// 2351 0XFF,0XFF,0XFF,0XFF,0XFF,0XFF,0XFF,0XFF,0XFF,0XFF,0XFF,0XFF,0XFF,0XFF,0XFF,0XFF,
// 2352 0XFF,0XFF,0XFF,0XFF,0XFF,0XFF,0XBE,0X34,0X10,0X10,0X10,0X10,0X10,0X10,0X10,0X10,
// 2353 0X10,0X10,0X10,0X10,0X10,0X10,0X10,0X10,0X10,0X10,0X10,0X10,0X10,0X10,0X10,0X10,
// 2354 0X10,0X10,0X10,0X10,0X10,0X10,0X10,0X10,0X10,0X10,0X10,0X10,0X10,0X10,0X10,0X10,
// 2355 0X10,0X10,0X10,0X10,0X10,0X10,0X10,0X10,0X10,0X10,0X10,0X10,0X10,0X10,0X10,0X10,
// 2356 0X10,0X10,0X10,0X10,0X10,0X10,0X10,0X10,0X10,0X10,0X10,0X10,0X10,0X10,0X10,0X10,
// 2357 0X10,0X10,0X10,0X10,0X10,0X10,0X10,0X10,0X10,0X10,0X10,0X10,0X10,0X10,0X10,0X10,
// 2358 0X10,0X10,0X10,0X10,0X10,0X10,0X10,0X10,0X10,0X10,0X10,0X10,0X10,0X10,0X10,0X10,
// 2359 0X10,0X10,0X10,0X10,0X10,0X10,0X10,0X10,0X10,0X10,0X10,0X10,0X10,0X10,0X10,0X10,
// 2360 0X10,0X10,0X10,0X10,0X10,0X10,0X10,0X10,0X10,0X10,0X10,0X10,0X10,0X10,0X10,0X10,
// 2361 0X10,0X10,0X10,0X10,0X10,0X10,0X10,0X10,0X10,0X10,0X10,0X10,0X10,0X10,0X10,0X10,
// 2362 0X10,0X10,0X10,0X10,0X10,0X10,0X10,0X10,0X10,0X10,0X10,0X10,0X10,0X10,0X10,0X10,
// 2363 0X10,0X10,0X10,0X10,0X10,0X10,0X10,0X10,0X10,0X10,0X10,0X10,0X10,0X10,0X10,0X10,
// 2364 0X10,0X10,0X10,0X10,0X10,0X10,0X10,0X10,0X10,0X10,0X10,0X10,0X10,0X10,0X10,0X10,
// 2365 0X10,0X10,0X10,0X10,0X10,0X10,0X10,0X10,0X10,0X10,0X10,0X10,0X10,0X10,0X10,0X10,
// 2366 0X10,0X10,0X10,0X10,0X10,0X10,0X10,0X10,0X10,0X10,0X10,0X10,0X10,0X10,0X10,0X34,
// 2367 0XDF,0XFF,0XFF,0XFF,0XFF,0XFF,0XFF,0XFF,0XFF,0XFF,0XFF,0XFF,0XFF,0XFF,0XFF,0XFF,
// 2368 0XFF,0XFF,0XFF,0XFF,0XFF,0XFF,0XFF,0XFF,0XFF,0XFF,0XFF,0XFF,0XFF,0XFF,0XFF,0XFF,
// 2369 0XFF,0XFF,0XFF,0XFF,0XFF,0XFF,0XFF,0XFF,0XFF,0XFF,0XFF,0XFF,0XFF,0XFF,0XFF,0XFF,
// 2370 0XFF,0XFF,0XFF,0XFF,0XFF,0XFF,0XFF,0XFF,0XFF,0XFF,0XFF,0XFF,0XFF,0XFF,0XFF,0XFF,
// 2371 0XFF,0XFF,0XFF,0XFF,0XFF,0XFF,0XFF,0XFF,0XFF,0XFF,0XFF,0XFF,0XFF,0XFF,0XFF,0XFF,
// 2372 0XFF,0XFF,0XFF,0XFF,0XFF,0XFF,0XDF,0X34,0X10,0X10,0X10,0X10,0X10,0X10,0X10,0X10,
// 2373 0X10,0X10,0X10,0X10,0X10,0X10,0X10,0X10,0X10,0X10,0X10,0X10,0X10,0X10,0X10,0X10,
// 2374 0X10,0X10,0X10,0X10,0X10,0X10,0X10,0X10,0X10,0X10,0X10,0X10,0X10,0X10,0X10,0X10,
// 2375 0X10,0X10,0X10,0X10,0X10,0X10,0X10,0X10,0X10,0X10,0X10,0X10,0X10,0X10,0X10,0X10,
// 2376 0X10,0X10,0X10,0X10,0X10,0X10,0X10,0X10,0X10,0X10,0X10,0X10,0X10,0X10,0X10,0X10,
// 2377 0X10,0X10,0X10,0X10,0X10,0X10,0X10,0X10,0X10,0X10,0X10,0X10,0X10,0X10,0X10,0X10,
// 2378 0X10,0X10,0X10,0X10,0X10,0X10,0X10,0X10,0X10,0X10,0X10,0X10,0X10,0X10,0X10,0X10,
// 2379 0X10,0X10,0X10,0X10,0X10,0X10,0X10,0X10,0X10,0X10,0X10,0X10,0X10,0X10,0X10,0X10,
// 2380 0X10,0X10,0X10,0X10,0X10,0X10,0X10,0X10,0X10,0X10,0X10,0X10,0X10,0X10,0X10,0X10,
// 2381 0X10,0X10,0X10,0X10,0X10,0X10,0X10,0X10,0X10,0X10,0X10,0X10,0X10,0X10,0X10,0X10,
// 2382 0X10,0X10,0X10,0X10,0X10,0X10,0X10,0X10,0X10,0X10,0X10,0X10,0X10,0X10,0X10,0X10,
// 2383 0X10,0X10,0X10,0X10,0X10,0X10,0X10,0X10,0X10,0X10,0X10,0X10,0X10,0X10,0X10,0X10,
// 2384 0X10,0X10,0X10,0X10,0X10,0X10,0X10,0X10,0X10,0X10,0X10,0X10,0X10,0X10,0X10,0X10,
// 2385 0X10,0X10,0X10,0X10,0X10,0X10,0X10,0X10,0X10,0X10,0X10,0X10,0X10,0X10,0X10,0X10,
// 2386 0X10,0X10,0X10,0X10,0X10,0X10,0X10,0X10,0X10,0X10,0X10,0X10,0X10,0X10,0X10,0X55,
// 2387 0XDF,0XFF,0XFF,0XFF,0XFF,0XFF,0XFF,0XFF,0XFF,0XFF,0XFF,0XFF,0XFF,0XFF,0XFF,0XFF,
// 2388 0XFF,0XFF,0XFF,0XFF,0XFF,0XFF,0XFF,0XFF,0XFF,0XFF,0XFF,0XFF,0XFF,0XFF,0XFF,0XFF,
// 2389 0XFF,0XFF,0XFF,0XFF,0XFF,0XFF,0XFF,0XFF,0XFF,0XFF,0XFF,0XFF,0XFF,0XFF,0XFF,0XFF,
// 2390 0XFF,0XFF,0XFF,0XFF,0XFF,0XFF,0XFF,0XFF,0XFF,0XFF,0XFF,0XFF,0XFF,0XFF,0XFF,0XFF,
// 2391 0XFF,0XFF,0XFF,0XFF,0XFF,0XFF,0XFF,0XFF,0XFF,0XFF,0XFF,0XFF,0XFF,0XFF,0XFF,0XFF,
// 2392 0XFF,0XFF,0XFF,0XFF,0XFF,0XFF,0XDF,0X55,0X10,0X10,0X10,0X10,0X10,0X10,0X10,0X10,
// 2393 0X10,0X10,0X10,0X10,0X10,0X10,0X10,0X10,0X10,0X10,0X10,0X10,0X10,0X10,0X10,0X10,
// 2394 0X10,0X10,0X10,0X10,0X10,0X10,0X10,0X10,0X10,0X10,0X10,0X10,0X10,0X10,0X10,0X10,
// 2395 0X10,0X10,0X10,0X10,0X10,0X10,0X10,0X10,0X10,0X10,0X10,0X10,0X10,0X10,0X10,0X10,
// 2396 0X10,0X10,0X10,0X10,0X10,0X10,0X10,0X10,0X10,0X10,0X10,0X10,0X10,0X10,0X10,0X10,
// 2397 0X10,0X10,0X10,0X10,0X10,0X10,0X10,0X10,0X10,0X10,0X10,0X10,0X10,0X10,0X10,0X10,
// 2398 0X10,0X10,0X10,0X10,0X10,0X10,0X10,0X10,0X10,0X10,0X10,0X10,0X10,0X10,0X10,0X10,
// 2399 0X10,0X10,0X10,0X10,0X10,0X10,0X10,0X10,0X10,0X10,0X10,0X10,0X10,0X10,0X10,0X10,
// 2400 0X10,0X10,0X10,0X10,0X10,0X10,0X10,0X10,0X10,0X10,0X10,0X10,0X10,0X10,0X10,0X10,
// 2401 0X10,0X10,0X10,0X10,0X10,0X10,0X10,0X10,0X10,0X10,0X10,0X10,0X10,0X10,0X10,0X10,
// 2402 0X10,0X10,0X10,0X10,0X10,0X10,0X10,0X10,0X10,0X10,0X10,0X10,0X10,0X10,0X10,0X10,
// 2403 0X10,0X10,0X10,0X10,0X10,0X10,0X10,0X10,0X10,0X10,0X10,0X10,0X10,0X10,0X10,0X10,
// 2404 0X10,0X10,0X10,0X10,0X10,0X10,0X10,0X10,0X10,0X10,0X10,0X10,0X10,0X10,0X10,0X10,
// 2405 0X10,0X10,0X10,0X10,0X10,0X10,0X10,0X10,0X10,0X10,0X10,0X10,0X10,0X10,0X10,0X10,
// 2406 0X10,0X10,0X10,0X10,0X10,0X10,0X10,0X10,0X10,0X10,0X10,0X10,0X10,0X10,0X10,0X55,
// 2407 0XFF,0XFF,0XFF,0XFF,0XFF,0XFF,0XFF,0XFF,0XFF,0XFF,0XFF,0XFF,0XFF,0XFF,0XFF,0XFF,
// 2408 0XFF,0XFF,0XFF,0XFF,0XFF,0XFF,0XFF,0XFF,0XFF,0XFF,0XFF,0XFF,0XFF,0XFF,0XFF,0XFF,
// 2409 0XFF,0XFF,0XFF,0XFF,0XFF,0XFF,0XFF,0XFF,0XFF,0XFF,0XFF,0XFF,0XFF,0XFF,0XFF,0XFF,
// 2410 0XFF,0XFF,0XFF,0XFF,0XFF,0XFF,0XFF,0XFF,0XFF,0XFF,0XFF,0XFF,0XFF,0XFF,0XFF,0XFF,
// 2411 0XFF,0XFF,0XFF,0XFF,0XFF,0XFF,0XFF,0XFF,0XFF,0XFF,0XFF,0XFF,0XFF,0XFF,0XFF,0XFF,
// 2412 0XFF,0XFF,0XFF,0XFF,0XFF,0XFF,0XFF,0X55,0X10,0X10,0X10,0X10,0X10,0X10,0X10,0X10,
// 2413 0X10,0X10,0X10,0X10,0X10,0X10,0X10,0X10,0X10,0X10,0X10,0X10,0X10,0X10,0X10,0X10,
// 2414 0X10,0X10,0X10,0X10,0X10,0X10,0X10,0X10,0X10,0X10,0X10,0X10,0X10,0X10,0X10,0X10,
// 2415 0X10,0X10,0X10,0X10,0X10,0X10,0X10,0X10,0X10,0X10,0X10,0X10,0X10,0X10,0X10,0X10,
// 2416 0X10,0X10,0X10,0X10,0X10,0X10,0X10,0X10,0X10,0X10,0X10,0X10,0X10,0X10,0X10,0X10,
// 2417 0X10,0X10,0X10,0X10,0X10,0X10,0X10,0X10,0X10,0X10,0X10,0X10,0X10,0X10,0X10,0X10,
// 2418 0X10,0X10,0X10,0X10,0X10,0X10,0X10,0X10,0X10,0X10,0X10,0X10,0X10,0X10,0X10,0X10,
// 2419 0X10,0X10,0X10,0X10,0X10,0X10,0X10,0X10,0X10,0X10,0X10,0X10,0X10,0X10,0X10,0X10,
// 2420 0X10,0X10,0X10,0X10,0X10,0X10,0X10,0X10,0X10,0X10,0X10,0X10,0X10,0X10,0X10,0X10,
// 2421 0X10,0X10,0X10,0X10,0X10,0X10,0X10,0X10,0X10,0X10,0X10,0X10,0X10,0X10,0X10,0X10,
// 2422 0X10,0X10,0X10,0X10,0X10,0X10,0X10,0X10,0X10,0X10,0X10,0X10,0X10,0X10,0X10,0X10,
// 2423 0X10,0X10,0X10,0X10,0X10,0X10,0X10,0X10,0X10,0X10,0X10,0X10,0X10,0X10,0X10,0X10,
// 2424 0X10,0X10,0X10,0X10,0X10,0X10,0X10,0X10,0X10,0X10,0X10,0X10,0X10,0X10,0X10,0X10,
// 2425 0X10,0X10,0X10,0X10,0X10,0X10,0X10,0X10,0X10,0X10,0X10,0X10,0X10,0X10,0X10,0X10,
// 2426 0X10,0X10,0X10,0X10,0X10,0X10,0X10,0X10,0X10,0X10,0X10,0X10,0X10,0X10,0X10,0X75,
// 2427 0XFF,0XFF,0XFF,0XFF,0XFF,0XFF,0XFF,0XFF,0XFF,0XFF,0XFF,0XFF,0XFF,0XFF,0XFF,0XFF,
// 2428 0XFF,0XFF,0XFF,0XFF,0XFF,0XFF,0XFF,0XFF,0XFF,0XFF,0XFF,0XFF,0XFF,0XFF,0XFF,0XFF,
// 2429 0XFF,0XFF,0XFF,0XFF,0XFF,0XFF,0XFF,0XFF,0XFF,0XFF,0XFF,0XFF,0XFF,0XFF,0XFF,0XFF,
// 2430 0XFF,0XFF,0XFF,0XFF,0XFF,0XFF,0XFF,0XFF,0XFF,0XFF,0XFF,0XFF,0XFF,0XFF,0XFF,0XFF,
// 2431 0XFF,0XFF,0XFF,0XFF,0XFF,0XFF,0XFF,0XFF,0XFF,0XFF,0XFF,0XFF,0XFF,0XFF,0XFF,0XFF,
// 2432 0XFF,0XFF,0XFF,0XFF,0XFF,0XFF,0XFF,0X75,0X10,0X10,0X10,0X10,0X10,0X10,0X10,0X10,
// 2433 0X10,0X10,0X10,0X10,0X10,0X10,0X10,0X10,0X10,0X10,0X10,0X10,0X10,0X10,0X10,0X10,
// 2434 0X10,0X10,0X10,0X10,0X10,0X10,0X10,0X10,0X10,0X10,0X10,0X10,0X10,0X10,0X10,0X10,
// 2435 0X10,0X10,0X10,0X10,0X10,0X10,0X10,0X10,0X10,0X10,0X10,0X10,0X10,0X10,0X10,0X10,
// 2436 0X10,0X10,0X10,0X10,0X10,0X10,0X10,0X10,0X10,0X10,0X10,0X10,0X10,0X10,0X10,0X10,
// 2437 0X10,0X10,0X10,0X10,0X10,0X10,0X10,0X10,0X10,0X10,0X10,0X10,0X10,0X10,0X10,0X10,
// 2438 0X10,0X10,0X10,0X10,0X10,0X10,0X10,0X10,0X10,0X10,0X10,0X10,0X10,0X10,0X10,0X10,
// 2439 0X10,0X10,0X10,0X10,0X10,0X10,0X10,0X10,0X10,0X10,0X10,0X10,0X10,0X10,0X10,0X10,
// 2440 0X10,0X10,0X10,0X10,0X10,0X10,0X10,0X10,0X10,0X10,0X10,0X10,0X10,0X10,0X10,0X10,
// 2441 0X10,0X10,0X10,0X10,0X10,0X10,0X10,0X10,0X10,0X10,0X10,0X10,0X10,0X10,0X10,0X10,
// 2442 0X10,0X10,0X10,0X10,0X10,0X10,0X10,0X10,0X10,0X10,0X10,0X10,0X10,0X10,0X10,0X10,
// 2443 0X10,0X10,0X10,0X10,0X10,0X10,0X10,0X10,0X10,0X10,0X10,0X10,0X10,0X10,0X10,0X10,
// 2444 0X10,0X10,0X10,0X10,0X10,0X10,0X10,0X10,0X10,0X10,0X10,0X10,0X10,0X10,0X10,0X10,
// 2445 0X10,0X10,0X10,0X10,0X10,0X10,0X10,0X10,0X10,0X10,0X10,0X10,0X10,0X10,0X10,0X10,
// 2446 0X10,0X10,0X10,0X10,0X10,0X10,0X10,0X10,0X10,0X10,0X10,0X10,0X10,0X10,0X30,0X79,
// 2447 0XFF,0XFF,0XFF,0XFF,0XFF,0XFF,0XFF,0XFF,0XFF,0XFF,0XFF,0XFF,0XFF,0XFF,0XFF,0XFF,
// 2448 0XFF,0XFF,0XFF,0XFF,0XFF,0XFF,0XFF,0XFF,0XFF,0XFF,0XFF,0XFF,0XFF,0XFF,0XFF,0XFF,
// 2449 0XFF,0XFF,0XFF,0XFF,0XFF,0XFF,0XFF,0XFF,0XFF,0XFF,0XFF,0XFF,0XFF,0XFF,0XFF,0XFF,
// 2450 0XFF,0XFF,0XFF,0XFF,0XFF,0XFF,0XFF,0XFF,0XFF,0XFF,0XFF,0XFF,0XFF,0XFF,0XFF,0XFF,
// 2451 0XFF,0XFF,0XFF,0XFF,0XFF,0XFF,0XFF,0XFF,0XFF,0XFF,0XFF,0XFF,0XFF,0XFF,0XFF,0XFF,
// 2452 0XFF,0XFF,0XFF,0XFF,0XFF,0XFF,0XFF,0X79,0X30,0X10,0X10,0X10,0X10,0X10,0X10,0X10,
// 2453 0X10,0X10,0X10,0X10,0X10,0X10,0X10,0X10,0X10,0X10,0X10,0X10,0X10,0X10,0X10,0X10,
// 2454 0X10,0X10,0X10,0X10,0X10,0X10,0X10,0X10,0X10,0X10,0X10,0X10,0X10,0X10,0X10,0X10,
// 2455 0X10,0X10,0X10,0X10,0X10,0X10,0X10,0X10,0X10,0X10,0X10,0X10,0X10,0X10,0X10,0X10,
// 2456 0X10,0X10,0X10,0X10,0X10,0X10,0X10,0X10,0X10,0X10,0X10,0X10,0X10,0X10,0X10,0X10,
// 2457 0X10,0X10,0X10,0X10,0X10,0X10,0X10,0X10,0X10,0X10,0X10,0X10,0X10,0X10,0X10,0X10,
// 2458 0X10,0X10,0X10,0X10,0X10,0X10,0X10,0X10,0X10,0X10,0X10,0X10,0X10,0X10,0X10,0X10,
// 2459 0X10,0X10,0X10,0X10,0X10,0X10,0X10,0X10,0X10,0X10,0X10,0X10,0X10,0X10,0X10,0X10,
// 2460 0X10,0X10,0X10,0X10,0X10,0X10,0X10,0X10,0X10,0X10,0X10,0X10,0X10,0X10,0X10,0X10,
// 2461 0X10,0X10,0X10,0X10,0X10,0X10,0X10,0X10,0X10,0X10,0X10,0X10,0X10,0X10,0X10,0X10,
// 2462 0X10,0X10,0X10,0X10,0X10,0X10,0X10,0X10,0X10,0X10,0X10,0X10,0X10,0X10,0X10,0X10,
// 2463 0X10,0X10,0X10,0X10,0X10,0X10,0X10,0X10,0X10,0X10,0X10,0X10,0X10,0X10,0X10,0X10,
// 2464 0X10,0X10,0X10,0X10,0X10,0X10,0X10,0X10,0X10,0X10,0X10,0X10,0X10,0X10,0X10,0X10,
// 2465 0X10,0X10,0X10,0X10,0X10,0X10,0X10,0X10,0X10,0X10,0X10,0X10,0X10,0X10,0X10,0X10,
// 2466 0X10,0X10,0X10,0X10,0X10,0X10,0X10,0X10,0X10,0X10,0X10,0X10,0X10,0X10,0X34,0X79,
// 2467 0XFF,0XFF,0XFF,0XFF,0XFF,0XFF,0XFF,0XFF,0XFF,0XFF,0XFF,0XFF,0XFF,0XFF,0XFF,0XFF,
// 2468 0XFF,0XFF,0XFF,0XFF,0XFF,0XFF,0XFF,0XFF,0XFF,0XFF,0XFF,0XFF,0XFF,0XFF,0XFF,0XFF,
// 2469 0XFF,0XFF,0XFF,0XFF,0XFF,0XFF,0XFF,0XFF,0XFF,0XFF,0XFF,0XFF,0XFF,0XFF,0XFF,0XFF,
// 2470 0XFF,0XFF,0XFF,0XFF,0XFF,0XFF,0XFF,0XFF,0XFF,0XFF,0XFF,0XFF,0XFF,0XFF,0XFF,0XFF,
// 2471 0XFF,0XFF,0XFF,0XFF,0XFF,0XFF,0XFF,0XFF,0XFF,0XFF,0XFF,0XFF,0XFF,0XFF,0XFF,0XFF,
// 2472 0XFF,0XFF,0XFF,0XFF,0XFF,0XFF,0XFF,0X79,0X34,0X10,0X10,0X10,0X10,0X10,0X10,0X10,
// 2473 0X10,0X10,0X10,0X10,0X10,0X10,0X10,0X10,0X10,0X10,0X10,0X10,0X10,0X10,0X10,0X10,
// 2474 0X10,0X10,0X10,0X10,0X10,0X10,0X10,0X10,0X10,0X10,0X10,0X10,0X10,0X10,0X10,0X10,
// 2475 0X10,0X10,0X10,0X10,0X10,0X10,0X10,0X10,0X10,0X10,0X10,0X10,0X10,0X10,0X10,0X10,
// 2476 0X10,0X10,0X10,0X10,0X10,0X10,0X10,0X10,0X10,0X10,0X10,0X10,0X10,0X10,0X10,0X10,
// 2477 0X10,0X10,0X10,0X10,0X10,0X10,0X10,0X10,0X10,0X10,0X10,0X10,0X10,0X10,0X10,0X10,
// 2478 0X10,0X10,0X10,0X10,0X10,0X10,0X10,0X10,0X10,0X10,0X10,0X10,0X10,0X10,0X10,0X10,
// 2479 0X10,0X10,0X10,0X10,0X10,0X10,0X10,0X10,0X10,0X10,0X10,0X10,0X10,0X10,0X10,0X10,
// 2480 0X10,0X10,0X10,0X10,0X10,0X10,0X10,0X10,0X10,0X10,0X10,0X10,0X10,0X10,0X10,0X10,
// 2481 0X10,0X10,0X10,0X10,0X10,0X10,0X10,0X10,0X10,0X10,0X10,0X10,0X10,0X10,0X10,0X10,
// 2482 0X10,0X10,0X10,0X10,0X10,0X10,0X10,0X10,0X10,0X10,0X10,0X10,0X10,0X10,0X10,0X10,
// 2483 0X10,0X10,0X10,0X10,0X10,0X10,0X10,0X10,0X10,0X10,0X10,0X10,0X10,0X10,0X10,0X10,
// 2484 0X10,0X10,0X10,0X10,0X10,0X10,0X10,0X10,0X10,0X10,0X10,0X10,0X10,0X10,0X10,0X10,
// 2485 0X10,0X10,0X10,0X10,0X10,0X10,0X10,0X10,0X10,0X10,0X10,0X10,0X10,0X10,0X10,0X10,
// 2486 0X10,0X10,0X10,0X10,0X10,0X10,0X10,0X10,0X10,0X10,0X10,0X10,0X10,0X10,0X34,0X9A,
// 2487 0XFF,0XFF,0XFF,0XFF,0XFF,0XFF,0XFF,0XFF,0XFF,0XFF,0XFF,0XFF,0XFF,0XFF,0XFF,0XFF,
// 2488 0XFF,0XFF,0XFF,0XFF,0XFF,0XFF,0XFF,0XFF,0XFF,0XFF,0XFF,0XFF,0XFF,0XFF,0XFF,0XFF,
// 2489 0XFF,0XFF,0XFF,0XFF,0XFF,0XFF,0XFF,0XFF,0XFF,0XFF,0XFF,0XFF,0XFF,0XFF,0XFF,0XFF,
// 2490 0XFF,0XFF,0XFF,0XFF,0XFF,0XFF,0XFF,0XFF,0XFF,0XFF,0XFF,0XFF,0XFF,0XFF,0XFF,0XFF,
// 2491 0XFF,0XFF,0XFF,0XFF,0XFF,0XFF,0XFF,0XFF,0XFF,0XFF,0XFF,0XFF,0XFF,0XFF,0XFF,0XFF,
// 2492 0XFF,0XFF,0XFF,0XFF,0XFF,0XFF,0XFF,0X9A,0X34,0X10,0X10,0X10,0X10,0X10,0X10,0X10,
// 2493 0X10,0X10,0X10,0X10,0X10,0X10,0X10,0X10,0X10,0X10,0X10,0X10,0X10,0X10,0X10,0X10,
// 2494 0X10,0X10,0X10,0X10,0X10,0X10,0X10,0X10,0X10,0X10,0X10,0X10,0X10,0X10,0X10,0X10,
// 2495 0X10,0X10,0X10,0X10,0X10,0X10,0X10,0X10,0X10,0X10,0X10,0X10,0X10,0X10,0X10,0X10,
// 2496 0X10,0X10,0X10,0X10,0X10,0X10,0X10,0X10,0X10,0X10,0X10,0X10,0X10,0X10,0X10,0X10,
// 2497 0X10,0X10,0X10,0X10,0X10,0X10,0X10,0X10,0X10,0X10,0X10,0X10,0X10,0X10,0X10,0X10,
// 2498 0X10,0X10,0X10,0X10,0X10,0X10,0X10,0X10,0X10,0X10,0X10,0X10,0X10,0X10,0X10,0X10,
// 2499 0X10,0X10,0X10,0X10,0X10,0X10,0X10,0X10,0X10,0X10,0X10,0X10,0X10,0X10,0X10,0X10,
// 2500 0X10,0X10,0X10,0X10,0X10,0X10,0X10,0X10,0X10,0X10,0X10,0X10,0X10,0X10,0X10,0X10,
// 2501 0X10,0X10,0X10,0X10,0X10,0X10,0X10,0X10,0X10,0X10,0X10,0X10,0X10,0X10,0X10,0X10,
// 2502 0X10,0X10,0X10,0X10,0X10,0X10,0X10,0X10,0X10,0X10,0X10,0X10,0X10,0X10,0X10,0X10,
// 2503 0X10,0X10,0X10,0X10,0X10,0X10,0X10,0X10,0X10,0X10,0X10,0X10,0X10,0X10,0X10,0X10,
// 2504 0X10,0X10,0X10,0X10,0X10,0X10,0X10,0X10,0X10,0X10,0X10,0X10,0X10,0X10,0X10,0X10,
// 2505 0X10,0X10,0X10,0X10,0X10,0X10,0X10,0X10,0X10,0X10,0X10,0X10,0X10,0X10,0X10,0X10,
// 2506 0X10,0X10,0X10,0X10,0X10,0X10,0X10,0X10,0X10,0X10,0X10,0X10,0X10,0X10,0X34,0X9A,
// 2507 0XFF,0XFF,0XFF,0XFF,0XFF,0XFF,0XFF,0XFF,0XFF,0XFF,0XFF,0XFF,0XFF,0XFF,0XFF,0XFF,
// 2508 0XFF,0XFF,0XFF,0XFF,0XFF,0XFF,0XFF,0XFF,0XFF,0XFF,0XFF,0XFF,0XFF,0XFF,0XFF,0XFF,
// 2509 0XFF,0XFF,0XFF,0XFF,0XFF,0XFF,0XFF,0XFF,0XFF,0XFF,0XFF,0XFF,0XFF,0XFF,0XFF,0XFF,
// 2510 0XFF,0XFF,0XFF,0XFF,0XFF,0XFF,0XFF,0XFF,0XFF,0XFF,0XFF,0XFF,0XFF,0XFF,0XFF,0XFF,
// 2511 0XFF,0XFF,0XFF,0XFF,0XFF,0XFF,0XFF,0XFF,0XFF,0XFF,0XFF,0XFF,0XFF,0XFF,0XFF,0XFF,
// 2512 0XFF,0XFF,0XFF,0XFF,0XFF,0XFF,0XFF,0X9A,0X34,0X10,0X10,0X10,0X10,0X10,0X10,0X10,
// 2513 0X10,0X10,0X10,0X10,0X10,0X10,0X10,0X10,0X10,0X10,0X10,0X10,0X10,0X10,0X10,0X10,
// 2514 0X10,0X10,0X10,0X10,0X10,0X10,0X10,0X10,0X10,0X10,0X10,0X10,0X10,0X10,0X10,0X10,
// 2515 0X10,0X10,0X10,0X10,0X10,0X10,0X10,0X10,0X10,0X10,0X10,0X10,0X10,0X10,0X10,0X10,
// 2516 0X10,0X10,0X10,0X10,0X10,0X10,0X10,0X10,0X10,0X10,0X10,0X10,0X10,0X10,0X10,0X10,
// 2517 0X10,0X10,0X10,0X10,0X10,0X10,0X10,0X10,0X10,0X10,0X10,0X10,0X10,0X10,0X10,0X10,
// 2518 0X10,0X10,0X10,0X10,0X10,0X10,0X10,0X10,0X10,0X10,0X10,0X10,0X10,0X10,0X10,0X10,
// 2519 0X10,0X10,0X10,0X10,0X10,0X10,0X10,0X10,0X10,0X10,0X10,0X10,0X10,0X10,0X10,0X10,
// 2520 0X10,0X10,0X10,0X10,0X10,0X10,0X10,0X10,0X10,0X10,0X10,0X10,0X10,0X10,0X10,0X10,
// 2521 0X10,0X10,0X10,0X10,0X10,0X10,0X10,0X10,0X10,0X10,0X10,0X10,0X10,0X10,0X10,0X10,
// 2522 0X10,0X10,0X10,0X10,0X10,0X10,0X10,0X10,0X10,0X10,0X10,0X10,0X10,0X10,0X10,0X10,
// 2523 0X10,0X10,0X10,0X10,0X10,0X10,0X10,0X10,0X10,0X10,0X10,0X10,0X10,0X10,0X10,0X10,
// 2524 0X10,0X10,0X10,0X10,0X10,0X10,0X10,0X10,0X10,0X10,0X10,0X10,0X10,0X10,0X10,0X10,
// 2525 0X10,0X10,0X10,0X10,0X10,0X10,0X10,0X10,0X10,0X10,0X10,0X10,0X10,0X10,0X10,0X10,
// 2526 0X10,0X10,0X10,0X10,0X10,0X10,0X10,0X10,0X10,0X10,0X10,0X10,0X10,0X10,0X34,0X9A,
// 2527 0XFF,0XFF,0XFF,0XFF,0XFF,0XFF,0XFF,0XFF,0XFF,0XFF,0XFF,0XFF,0XFF,0XFF,0XFF,0XFF,
// 2528 0XFF,0XFF,0XFF,0XFF,0XFF,0XFF,0XFF,0XFF,0XFF,0XFF,0XFF,0XFF,0XFF,0XFF,0XFF,0XFF,
// 2529 0XFF,0XFF,0XFF,0XFF,0XFF,0XFF,0XFF,0XFF,0XFF,0XFF,0XFF,0XFF,0XFF,0XFF,0XFF,0XFF,
// 2530 0XFF,0XFF,0XFF,0XFF,0XFF,0XFF,0XFF,0XFF,0XFF,0XFF,0XFF,0XFF,0XFF,0XFF,0XFF,0XFF,
// 2531 0XFF,0XFF,0XFF,0XFF,0XFF,0XFF,0XFF,0XFF,0XFF,0XFF,0XFF,0XFF,0XFF,0XFF,0XFF,0XFF,
// 2532 0XFF,0XFF,0XFF,0XFF,0XFF,0XFF,0XFF,0X9A,0X34,0X10,0X10,0X10,0X10,0X10,0X10,0X10,
// 2533 0X10,0X10,0X10,0X10,0X10,0X10,0X10,0X10,0X10,0X10,0X10,0X10,0X10,0X10,0X10,0X10,
// 2534 0X10,0X10,0X10,0X10,0X10,0X10,0X10,0X10,0X10,0X10,0X10,0X10,0X10,0X10,0X10,0X10,
// 2535 0X10,0X10,0X10,0X10,0X10,0X10,0X10,0X10,0X10,0X79,0X79,0X79,0X79,0X79,0X79,0X55,
// 2536 0X10,0X10,0X10,0X10,0X10,0X10,0X10,0X10,0X10,0X10,0X10,0X10,0X10,0X10,0X10,0X10,
// 2537 0X10,0X10,0X10,0X10,0X10,0X10,0X10,0X10,0X10,0X10,0X10,0X10,0X10,0X10,0X10,0X10,
// 2538 0X10,0X10,0X10,0X10,0X10,0X10,0X10,0X10,0X10,0X10,0X10,0X10,0X10,0X10,0X10,0X79,
// 2539 0X75,0X10,0X10,0X10,0X10,0X10,0X10,0X10,0X10,0X10,0X10,0X10,0X10,0X10,0X10,0X10,
// 2540 0X10,0X10,0X10,0X10,0X10,0X10,0X10,0X10,0X10,0X10,0X10,0X10,0X10,0X10,0X10,0X79,
// 2541 0X79,0X10,0X10,0X10,0X10,0X10,0X10,0X10,0X10,0X10,0X10,0X10,0X10,0X10,0X10,0X10,
// 2542 0X10,0X10,0X10,0X10,0X10,0X10,0X10,0X10,0X10,0X10,0X10,0X10,0X10,0X10,0X10,0X10,
// 2543 0X10,0X10,0X10,0X10,0X10,0X10,0X10,0X10,0X10,0X10,0X10,0X10,0X10,0X10,0X10,0X10,
// 2544 0X10,0X10,0X10,0X10,0X10,0X10,0X10,0X10,0X10,0X10,0X10,0X10,0X10,0X10,0X10,0X10,
// 2545 0X10,0X10,0X10,0X10,0X10,0X10,0X10,0X10,0X10,0X10,0X10,0X10,0X10,0X10,0X10,0X10,
// 2546 0X10,0X10,0X10,0X10,0X10,0X10,0X10,0X10,0X10,0X10,0X10,0X10,0X10,0X10,0X34,0X9A,
// 2547 0XFF,0XFF,0XFF,0XFF,0XFF,0XFF,0XFF,0XFF,0XFF,0XFF,0XFF,0XFF,0XFF,0XFF,0XFF,0XFF,
// 2548 0XFF,0XFF,0XFF,0XFF,0XFF,0XFF,0XFF,0XFF,0XFF,0XFF,0XFF,0XFF,0XFF,0XFF,0XFF,0XFF,
// 2549 0XFF,0XFF,0XFF,0XFF,0XFF,0XFF,0XFF,0XFF,0XFF,0XFF,0XFF,0XFF,0XFF,0XFF,0XFF,0XFF,
// 2550 0XFF,0XFF,0XFF,0XFF,0XFF,0XFF,0XFF,0XFF,0XFF,0XFF,0XFF,0XFF,0XFF,0XFF,0XFF,0XFF,
// 2551 0XFF,0XFF,0XFF,0XFF,0XFF,0XFF,0XFF,0XFF,0XFF,0XFF,0XFF,0XFF,0XFF,0XFF,0XFF,0XFF,
// 2552 0XFF,0XFF,0XFF,0XFF,0XFF,0XFF,0XFF,0X9A,0X34,0X10,0X10,0X10,0X10,0X10,0X10,0X10,
// 2553 0X10,0X10,0X10,0X10,0X10,0X10,0X10,0X10,0X10,0X10,0X10,0X10,0X10,0X10,0X10,0X10,
// 2554 0X10,0X10,0X10,0X10,0X10,0X10,0X10,0X10,0X10,0X10,0X10,0X10,0X10,0X10,0X10,0X10,
// 2555 0X10,0X10,0X10,0X10,0X10,0X10,0X10,0X10,0X10,0XDF,0XFF,0XFF,0XFF,0XFF,0XFF,0XFF,
// 2556 0X9A,0X10,0X10,0X10,0X10,0X10,0X10,0X10,0X10,0X10,0X10,0X10,0X10,0X10,0X10,0X10,
// 2557 0X10,0X10,0X10,0X10,0X10,0X10,0X10,0X10,0X10,0X10,0X10,0X10,0X10,0X10,0X10,0X10,
// 2558 0X10,0X10,0X10,0X10,0X10,0X10,0X10,0X10,0X10,0X10,0X10,0X10,0X10,0X10,0X34,0XFF,
// 2559 0XDF,0X10,0X10,0X10,0X10,0X10,0X10,0X10,0X10,0X10,0X10,0X10,0X10,0X10,0X10,0X10,
// 2560 0X10,0X10,0X10,0X10,0X10,0X10,0X10,0X10,0X10,0X10,0X10,0X10,0X10,0X10,0X34,0XFF,
// 2561 0XDF,0X10,0X10,0X10,0X10,0X10,0X10,0X10,0X10,0X10,0X10,0X10,0X10,0X10,0X10,0X10,
// 2562 0X10,0X10,0X10,0X10,0X10,0X10,0X10,0X10,0X10,0X10,0X10,0X10,0X10,0X10,0X10,0X10,
// 2563 0X10,0X10,0X10,0X10,0X10,0X10,0X10,0X10,0X10,0X10,0X10,0X10,0X10,0X10,0X10,0X10,
// 2564 0X10,0X10,0X10,0X10,0X10,0X10,0X10,0X10,0X10,0X10,0X10,0X10,0X10,0X10,0X10,0X10,
// 2565 0X10,0X10,0X10,0X10,0X10,0X10,0X10,0X10,0X10,0X10,0X10,0X10,0X10,0X10,0X10,0X10,
// 2566 0X10,0X10,0X10,0X10,0X10,0X10,0X10,0X10,0X10,0X10,0X10,0X10,0X10,0X10,0X34,0X9A,
// 2567 0XFF,0XFF,0XFF,0XFF,0XFF,0XFF,0XFF,0XFF,0XFF,0XFF,0XFF,0XFF,0XFF,0XFF,0XFF,0XFF,
// 2568 0XFF,0XFF,0XFF,0XFF,0XFF,0XFF,0XFF,0XFF,0XFF,0XFF,0XFF,0XFF,0XFF,0XFF,0XFF,0XFF,
// 2569 0XFF,0XFF,0XFF,0XFF,0XFF,0XFF,0XFF,0XFF,0XFF,0XFF,0XFF,0XFF,0XFF,0XFF,0XFF,0XFF,
// 2570 0XFF,0XFF,0XFF,0XFF,0XFF,0XFF,0XFF,0XFF,0XFF,0XFF,0XFF,0XFF,0XFF,0XFF,0XFF,0XFF,
// 2571 0XFF,0XFF,0XFF,0XFF,0XFF,0XFF,0XFF,0XFF,0XFF,0XFF,0XFF,0XFF,0XFF,0XFF,0XFF,0XFF,
// 2572 0XFF,0XFF,0XFF,0XFF,0XFF,0XFF,0XFF,0X9A,0X34,0X10,0X10,0X10,0X10,0X10,0X10,0X10,
// 2573 0X10,0X10,0X10,0X10,0X10,0X10,0X10,0X10,0X10,0X10,0X10,0X10,0X10,0X10,0X10,0X10,
// 2574 0X10,0X10,0X10,0X10,0X10,0X10,0X10,0X10,0X10,0X10,0X10,0X10,0X10,0X10,0X10,0X10,
// 2575 0X10,0X10,0X10,0X10,0X10,0X10,0X10,0X10,0X10,0XDF,0XFF,0X9A,0X79,0X79,0X9A,0XFF,
// 2576 0XFF,0X55,0X10,0X10,0X10,0X10,0X10,0X10,0X10,0X10,0X10,0X10,0X10,0X10,0X10,0X10,
// 2577 0X10,0X10,0X10,0X10,0X10,0X10,0X10,0X10,0X10,0X10,0X10,0X10,0X10,0X10,0X10,0X10,
// 2578 0X10,0X10,0X10,0X10,0X10,0X10,0X10,0X10,0X10,0X10,0X10,0X10,0X10,0X10,0X34,0XFF,
// 2579 0XDF,0X10,0X10,0X10,0X10,0X10,0X10,0X10,0X10,0X10,0X10,0X10,0X10,0X10,0X10,0X10,
// 2580 0X10,0X10,0X10,0X10,0X10,0X10,0X10,0X10,0X10,0X10,0X10,0X10,0X10,0X10,0X34,0XFF,
// 2581 0XDF,0X10,0X10,0X10,0X10,0X10,0X10,0X10,0X10,0X10,0X10,0X10,0X10,0X10,0X10,0X10,
// 2582 0X10,0X10,0X10,0X10,0X10,0X10,0X10,0X10,0X10,0X10,0X10,0X10,0X10,0X10,0X10,0X10,
// 2583 0X10,0X10,0X10,0X10,0X10,0X10,0X10,0X10,0X10,0X10,0X10,0X10,0X10,0X10,0X10,0X10,
// 2584 0X10,0X10,0X10,0X10,0X10,0X10,0X10,0X10,0X10,0X10,0X10,0X10,0X10,0X10,0X10,0X10,
// 2585 0X10,0X10,0X10,0X10,0X10,0X10,0X10,0X10,0X10,0X10,0X10,0X10,0X10,0X10,0X10,0X10,
// 2586 0X10,0X10,0X10,0X10,0X10,0X10,0X10,0X10,0X10,0X10,0X10,0X10,0X10,0X10,0X34,0X9A,
// 2587 0XFF,0XFF,0XFF,0XFF,0XFF,0XFF,0XFF,0XFF,0XFF,0XFF,0XFF,0XFF,0XFF,0XFF,0XFF,0XFF,
// 2588 0XFF,0XFF,0XFF,0XFF,0XFF,0XFF,0XFF,0XFF,0XFF,0XFF,0XFF,0XFF,0XFF,0XFF,0XFF,0XFF,
// 2589 0XFF,0XFF,0XFF,0XFF,0XFF,0XFF,0XFF,0XFF,0XFF,0XFF,0XFF,0XFF,0XFF,0XFF,0XFF,0XFF,
// 2590 0XFF,0XFF,0XFF,0XFF,0XFF,0XFF,0XFF,0XFF,0XFF,0XFF,0XFF,0XFF,0XFF,0XFF,0XFF,0XFF,
// 2591 0XFF,0XFF,0XFF,0XFF,0XFF,0XFF,0XFF,0XFF,0XFF,0XFF,0XFF,0XFF,0XFF,0XFF,0XFF,0XFF,
// 2592 0XFF,0XFF,0XFF,0XFF,0XFF,0XFF,0XFF,0X9A,0X34,0X10,0X10,0X10,0X10,0X10,0X10,0X10,
// 2593 0X10,0X10,0X10,0X10,0X10,0X10,0X10,0X10,0X10,0X10,0X10,0X10,0X10,0X10,0X10,0X10,
// 2594 0X10,0X10,0X10,0X10,0X10,0X10,0X10,0X10,0X10,0X10,0X10,0X10,0X10,0X10,0X10,0X10,
// 2595 0X10,0X10,0X10,0X10,0X10,0X10,0X10,0X10,0X10,0XDF,0XFF,0X34,0X10,0X10,0X10,0XBA,
// 2596 0XFF,0XBA,0X10,0X10,0X10,0X10,0X10,0X10,0X10,0X10,0X10,0X10,0X10,0X10,0X10,0X10,
// 2597 0X10,0X10,0X10,0X10,0X10,0X10,0X10,0X10,0X10,0X10,0X10,0X10,0X10,0X10,0X10,0X10,
// 2598 0X10,0X10,0X10,0X10,0X10,0X10,0X10,0X10,0X10,0X10,0X10,0X10,0X10,0X10,0X34,0XFF,
// 2599 0XDF,0X10,0X10,0X10,0X10,0X10,0X10,0X10,0X10,0X10,0X10,0X10,0X10,0X10,0X10,0X10,
// 2600 0X10,0X10,0X10,0X10,0X10,0X10,0X10,0X10,0X10,0X10,0X10,0X10,0X10,0X10,0X34,0XFF,
// 2601 0XDF,0X10,0X10,0X10,0X10,0X10,0X10,0X10,0X10,0X10,0X10,0X10,0X10,0X10,0X10,0X10,
// 2602 0X10,0X10,0X10,0X10,0X10,0X10,0X10,0X10,0X10,0X10,0X10,0X10,0X10,0X10,0X10,0X10,
// 2603 0X10,0X10,0X10,0X10,0X10,0X10,0X10,0X10,0X10,0X10,0X10,0X10,0X10,0X10,0X10,0X10,
// 2604 0X10,0X10,0X10,0X10,0X10,0X10,0X10,0X10,0X10,0X10,0X10,0X10,0X10,0X10,0X10,0X10,
// 2605 0X10,0X10,0X10,0X10,0X10,0X10,0X10,0X10,0X10,0X10,0X10,0X10,0X10,0X10,0X10,0X10,
// 2606 0X10,0X10,0X10,0X10,0X10,0X10,0X10,0X10,0X10,0X10,0X10,0X10,0X10,0X10,0X34,0X9A,
// 2607 0XFF,0XFF,0XFF,0XFF,0XFF,0XFF,0XFF,0XFF,0XFF,0XFF,0XFF,0XFF,0XFF,0XFF,0XFF,0XFF,
// 2608 0XFF,0XFF,0XFF,0XFF,0XFF,0XFF,0XFF,0XFF,0XFF,0XFF,0XFF,0XFF,0XFF,0XFF,0XFF,0XFF,
// 2609 0XFF,0XFF,0XFF,0XFF,0XFF,0XFF,0XFF,0XFF,0XFF,0XFF,0XFF,0XFF,0XFF,0XFF,0XFF,0XFF,
// 2610 0XFF,0XFF,0XFF,0XFF,0XFF,0XFF,0XFF,0XFF,0XFF,0XFF,0XFF,0XFF,0XFF,0XFF,0XFF,0XFF,
// 2611 0XFF,0XFF,0XFF,0XFF,0XFF,0XFF,0XFF,0XFF,0XFF,0XFF,0XFF,0XFF,0XFF,0XFF,0XFF,0XFF,
// 2612 0XFF,0XFF,0XFF,0XFF,0XFF,0XFF,0XFF,0X9A,0X34,0X10,0X10,0X10,0X10,0X10,0X10,0X10,
// 2613 0X10,0X10,0X10,0X10,0X10,0X10,0X10,0X10,0X10,0X10,0X10,0X10,0X10,0X10,0X10,0X10,
// 2614 0X10,0X10,0X10,0X10,0X10,0X10,0X10,0X10,0X10,0X10,0X10,0X10,0X10,0X10,0X10,0X10,
// 2615 0X10,0X10,0X10,0X10,0X10,0X10,0X10,0X10,0X10,0XDF,0XFF,0X34,0X10,0X10,0X10,0X9A,
// 2616 0XFF,0XDF,0X10,0X10,0X10,0X10,0X10,0X10,0X10,0X10,0X10,0X10,0X10,0X10,0X10,0X10,
// 2617 0X10,0X10,0X10,0X10,0X10,0X10,0X10,0X10,0X10,0X10,0X10,0X10,0X10,0X10,0X10,0X10,
// 2618 0X10,0X10,0X10,0X10,0X10,0X10,0X10,0X10,0X10,0X10,0X10,0X10,0X10,0X10,0X34,0XFF,
// 2619 0XDF,0X10,0X10,0X10,0X10,0X10,0X10,0X10,0X10,0X10,0X10,0X10,0X10,0X10,0X10,0X10,
// 2620 0X10,0X10,0X10,0X10,0X10,0X10,0X10,0X10,0X10,0X10,0X10,0X10,0X10,0X10,0X34,0XFF,
// 2621 0XDF,0X10,0X10,0X10,0X10,0X10,0X10,0X10,0X10,0X10,0X10,0X10,0X10,0X10,0X10,0X10,
// 2622 0X10,0X10,0X10,0X10,0X10,0X10,0X10,0X10,0X10,0X10,0X10,0X10,0X10,0X10,0X10,0X10,
// 2623 0X10,0X10,0X10,0X10,0X10,0X10,0X10,0X10,0X10,0X10,0X10,0X10,0X10,0X10,0X10,0X10,
// 2624 0X10,0X10,0X10,0X10,0X10,0X10,0X10,0X10,0X10,0X10,0X10,0X10,0X10,0X10,0X10,0X10,
// 2625 0X10,0X10,0X10,0X10,0X10,0X10,0X10,0X10,0X10,0X10,0X10,0X10,0X10,0X10,0X10,0X10,
// 2626 0X10,0X10,0X10,0X10,0X10,0X10,0X10,0X10,0X10,0X10,0X10,0X10,0X10,0X10,0X34,0X79,
// 2627 0XFF,0XFF,0XFF,0XFF,0XFF,0XFF,0XFF,0XFF,0XFF,0XFF,0XFF,0XFF,0XFF,0XFF,0XFF,0XFF,
// 2628 0XFF,0XFF,0XFF,0XFF,0XFF,0XFF,0XFF,0XFF,0XFF,0XFF,0XFF,0XFF,0XFF,0XFF,0XFF,0XFF,
// 2629 0XFF,0XFF,0XFF,0XFF,0XFF,0XFF,0XFF,0XFF,0XFF,0XFF,0XFF,0XFF,0XFF,0XFF,0XFF,0XFF,
// 2630 0XFF,0XFF,0XFF,0XFF,0XFF,0XFF,0XFF,0XFF,0XFF,0XFF,0XFF,0XFF,0XFF,0XFF,0XFF,0XFF,
// 2631 0XFF,0XFF,0XFF,0XFF,0XFF,0XFF,0XFF,0XFF,0XFF,0XFF,0XFF,0XFF,0XFF,0XFF,0XFF,0XFF,
// 2632 0XFF,0XFF,0XFF,0XFF,0XFF,0XFF,0XFF,0X79,0X34,0X10,0X10,0X10,0X10,0X10,0X10,0X10,
// 2633 0X10,0X10,0X10,0X10,0X10,0X10,0X10,0X10,0X10,0X10,0X10,0X10,0X10,0X10,0X10,0X10,
// 2634 0X10,0X10,0X10,0X10,0X10,0X10,0X10,0X10,0X10,0X10,0X10,0X10,0X10,0X10,0X10,0X10,
// 2635 0X10,0X10,0X10,0X10,0X10,0X10,0X10,0X10,0X10,0XDF,0XFF,0X34,0X10,0X10,0X10,0XDF,
// 2636 0XFF,0X9A,0X10,0X55,0XDF,0X9A,0X10,0X10,0X10,0X10,0X79,0XDF,0X79,0X10,0X10,0X10,
// 2637 0X10,0X10,0X10,0X10,0X10,0X10,0X10,0X10,0X75,0XDF,0X9A,0X9A,0XDF,0XBA,0X10,0XBA,
// 2638 0XDF,0XBA,0X10,0X10,0X10,0X55,0XBA,0XDF,0XDF,0XDF,0X55,0X10,0X10,0X10,0X34,0XFF,
// 2639 0XDF,0X10,0X10,0X10,0X9A,0XDF,0X9A,0X10,0X10,0X10,0X10,0X55,0XDF,0XDF,0XDF,0X9A,
// 2640 0X10,0X10,0X10,0X10,0X10,0X9A,0XDF,0X34,0X10,0X9A,0XDF,0XBA,0X10,0X10,0X34,0XFF,
// 2641 0XDF,0X9A,0XDF,0XDF,0XDF,0X55,0X10,0X10,0X10,0X10,0X10,0X55,0XDF,0XDF,0XDF,0XBA,
// 2642 0X55,0X10,0X10,0X10,0X10,0X10,0X79,0XDF,0XDF,0XDF,0X9A,0X34,0X10,0X10,0X10,0X10,
// 2643 0X10,0X79,0XDF,0XDF,0XDF,0X79,0X10,0X10,0X10,0X10,0X10,0X10,0X10,0X10,0X10,0X10,
// 2644 0X10,0X10,0X10,0X10,0X10,0X10,0X10,0X10,0X10,0X10,0X10,0X10,0X10,0X10,0X10,0X10,
// 2645 0X10,0X10,0X10,0X10,0X10,0X10,0X10,0X10,0X10,0X10,0X10,0X10,0X10,0X10,0X10,0X10,
// 2646 0X10,0X10,0X10,0X10,0X10,0X10,0X10,0X10,0X10,0X10,0X10,0X10,0X10,0X10,0X34,0X79,
// 2647 0XFF,0XFF,0XFF,0XFF,0XFF,0XFF,0XFF,0XFF,0XFF,0XFF,0XFF,0XFF,0XFF,0XFF,0XFF,0XFF,
// 2648 0XFF,0XFF,0XFF,0XFF,0XFF,0XFF,0XFF,0XFF,0XFF,0XFF,0XFF,0XFF,0XFF,0XFF,0XFF,0XFF,
// 2649 0XFF,0XFF,0XFF,0XFF,0XFF,0XFF,0XFF,0XFF,0XFF,0XFF,0XFF,0XFF,0XFF,0XFF,0XFF,0XFF,
// 2650 0XFF,0XFF,0XFF,0XFF,0XFF,0XFF,0XFF,0XFF,0XFF,0XFF,0XFF,0XFF,0XFF,0XFF,0XFF,0XFF,
// 2651 0XFF,0XFF,0XFF,0XFF,0XFF,0XFF,0XFF,0XFF,0XFF,0XFF,0XFF,0XFF,0XFF,0XFF,0XFF,0XFF,
// 2652 0XFF,0XFF,0XFF,0XFF,0XFF,0XFF,0XFF,0X79,0X34,0X10,0X10,0X10,0X10,0X10,0X10,0X10,
// 2653 0X10,0X10,0X10,0X10,0X10,0X10,0X10,0X10,0X10,0X10,0X10,0X10,0X10,0X10,0X10,0X10,
// 2654 0X10,0X10,0X10,0X10,0X10,0X10,0X10,0X10,0X10,0X10,0X10,0X10,0X10,0X10,0X10,0X10,
// 2655 0X10,0X10,0X10,0X10,0X10,0X10,0X10,0X10,0X10,0XDF,0XFF,0XDF,0XDF,0XDF,0XDF,0XFF,
// 2656 0XDF,0X10,0X10,0X10,0XDF,0XDF,0X10,0X10,0X10,0X10,0XDF,0XFF,0X55,0X10,0X10,0X10,
// 2657 0X10,0X10,0X10,0X10,0X10,0X10,0X10,0X10,0X79,0XFF,0XFF,0XFF,0XFF,0XFF,0XDF,0XFF,
// 2658 0XFF,0XFF,0X9A,0X10,0X55,0XFF,0XFF,0XDF,0XDF,0XFF,0XFF,0X79,0X10,0X10,0X34,0XFF,
// 2659 0XDF,0X10,0X10,0X9A,0XFF,0XDF,0X10,0X10,0X10,0X10,0X9A,0XFF,0XDF,0XDF,0XDF,0XFF,
// 2660 0XDF,0X10,0X10,0X10,0X10,0XDF,0XFF,0X55,0XDF,0XFF,0XFF,0XDF,0X10,0X10,0X34,0XFF,
// 2661 0XFF,0XFF,0XDF,0XDF,0XFF,0XFF,0X79,0X10,0X10,0X10,0X79,0XFF,0XFF,0XDF,0XDF,0XFF,
// 2662 0XFF,0X55,0X10,0X10,0X10,0XBA,0XFF,0XDF,0XDF,0XDF,0XFF,0XDF,0X10,0X10,0X10,0X10,
// 2663 0XDF,0XFF,0XDF,0XDF,0XDF,0XFF,0XDF,0X10,0X10,0X10,0X10,0X10,0X10,0X10,0X10,0X10,
// 2664 0X10,0X10,0X10,0X10,0X10,0X10,0X10,0X10,0X10,0X10,0X10,0X10,0X10,0X10,0X10,0X10,
// 2665 0X10,0X10,0X10,0X10,0X10,0X10,0X10,0X10,0X10,0X10,0X10,0X10,0X10,0X10,0X10,0X10,
// 2666 0X10,0X10,0X10,0X10,0X10,0X10,0X10,0X10,0X10,0X10,0X10,0X10,0X10,0X10,0X10,0X75,
// 2667 0XFF,0XFF,0XFF,0XFF,0XFF,0XFF,0XFF,0XFF,0XFF,0XFF,0XFF,0XFF,0XFF,0XFF,0XFF,0XFF,
// 2668 0XFF,0XFF,0XFF,0XFF,0XFF,0XFF,0XFF,0XFF,0XFF,0XFF,0XFF,0XFF,0XFF,0XFF,0XFF,0XFF,
// 2669 0XFF,0XFF,0XFF,0XFF,0XFF,0XFF,0XFF,0XFF,0XFF,0XFF,0XFF,0XFF,0XFF,0XFF,0XFF,0XFF,
// 2670 0XFF,0XFF,0XFF,0XFF,0XFF,0XFF,0XFF,0XFF,0XFF,0XFF,0XFF,0XFF,0XFF,0XFF,0XFF,0XFF,
// 2671 0XFF,0XFF,0XFF,0XFF,0XFF,0XFF,0XFF,0XFF,0XFF,0XFF,0XFF,0XFF,0XFF,0XFF,0XFF,0XFF,
// 2672 0XFF,0XFF,0XFF,0XFF,0XFF,0XFF,0XFF,0X75,0X10,0X10,0X10,0X10,0X10,0X10,0X10,0X10,
// 2673 0X10,0X10,0X10,0X10,0X10,0X10,0X10,0X10,0X10,0X10,0X10,0X10,0X10,0X10,0X10,0X10,
// 2674 0X10,0X10,0X10,0X10,0X10,0X10,0X10,0X10,0X10,0X10,0X10,0X10,0X10,0X10,0X10,0X10,
// 2675 0X10,0X10,0X10,0X10,0X10,0X10,0X10,0X10,0X10,0XDF,0XFF,0XFF,0XFF,0XFF,0XFF,0XDF,
// 2676 0X75,0X10,0X10,0X10,0XBA,0XFF,0X75,0X10,0X10,0X55,0XFF,0XDF,0X10,0X10,0X10,0X10,
// 2677 0X10,0X10,0X10,0X10,0X10,0X10,0X10,0X10,0X79,0XFF,0XDF,0X55,0X9A,0XFF,0XDF,0X55,
// 2678 0X9A,0XFF,0XDF,0X10,0XDF,0XFF,0X9A,0X10,0X10,0X75,0XFF,0XDF,0X10,0X10,0X34,0XFF,
// 2679 0XDF,0X10,0X79,0XFF,0XDF,0X10,0X10,0X10,0X10,0X55,0XFF,0XDF,0X34,0X10,0X10,0XDF,
// 2680 0XFF,0X9A,0X10,0X10,0X10,0XDF,0XFF,0XDF,0XDF,0X75,0X34,0X34,0X10,0X10,0X34,0XFF,
// 2681 0XFF,0X9A,0X10,0X10,0X9A,0XFF,0XDF,0X10,0X10,0X10,0XDF,0XFF,0X75,0X10,0X10,0X9A,
// 2682 0XFF,0XBA,0X10,0X10,0X34,0XFF,0XDF,0X34,0X10,0X10,0XDF,0XFF,0X75,0X10,0X10,0X9A,
// 2683 0XFF,0XDF,0X10,0X10,0X34,0XDF,0XFF,0X55,0X10,0X10,0X10,0X10,0X10,0X10,0X10,0X10,
// 2684 0X10,0X10,0X10,0X10,0X10,0X10,0X10,0X10,0X10,0X10,0X10,0X10,0X10,0X10,0X10,0X10,
// 2685 0X10,0X10,0X10,0X10,0X10,0X10,0X10,0X10,0X10,0X10,0X10,0X10,0X10,0X10,0X10,0X10,
// 2686 0X10,0X10,0X10,0X10,0X10,0X10,0X10,0X10,0X10,0X10,0X10,0X10,0X10,0X10,0X10,0X55,
// 2687 0XFF,0XFF,0XFF,0XFF,0XFF,0XFF,0XFF,0XFF,0XFF,0XFF,0XFF,0XFF,0XFF,0XFF,0XFF,0XFF,
// 2688 0XFF,0XFF,0XFF,0XFF,0XFF,0XFF,0XFF,0XFF,0XFF,0XFF,0XFF,0XFF,0XFF,0XFF,0XFF,0XFF,
// 2689 0XFF,0XFF,0XFF,0XFF,0XFF,0XFF,0XFF,0XFF,0XFF,0XFF,0XFF,0XFF,0XFF,0XFF,0XFF,0XFF,
// 2690 0XFF,0XFF,0XFF,0XFF,0XFF,0XFF,0XFF,0XFF,0XFF,0XFF,0XFF,0XFF,0XFF,0XFF,0XFF,0XFF,
// 2691 0XFF,0XFF,0XFF,0XFF,0XFF,0XFF,0XFF,0XFF,0XFF,0XFF,0XFF,0XFF,0XFF,0XFF,0XFF,0XFF,
// 2692 0XFF,0XFF,0XFF,0XFF,0XFF,0XFF,0XFF,0X55,0X10,0X10,0X10,0X10,0X10,0X10,0X10,0X10,
// 2693 0X10,0X10,0X10,0X10,0X10,0X10,0X10,0X10,0X10,0X10,0X10,0X10,0X10,0X10,0X10,0X10,
// 2694 0X10,0X10,0X10,0X10,0X10,0X10,0X10,0X10,0X10,0X10,0X10,0X10,0X10,0X10,0X10,0X10,
// 2695 0X10,0X10,0X10,0X10,0X10,0X10,0X10,0X10,0X10,0XDF,0XFF,0X55,0X34,0X34,0X9A,0XFF,
// 2696 0XFF,0X9A,0X10,0X10,0X55,0XFF,0XDF,0X10,0X10,0X9A,0XFF,0X9A,0X10,0X10,0X10,0X10,
// 2697 0X10,0X10,0X10,0X10,0X10,0X10,0X10,0X10,0X79,0XFF,0XDF,0X10,0X79,0XFF,0XDF,0X10,
// 2698 0X79,0XFF,0XDF,0X10,0X34,0X34,0X10,0X10,0X10,0X75,0XFF,0XDF,0X10,0X10,0X34,0XFF,
// 2699 0XDF,0X55,0XFF,0XDF,0X10,0X10,0X10,0X10,0X10,0XDF,0XFF,0XBA,0X79,0X79,0X79,0XBA,
// 2700 0XFF,0XDF,0X10,0X10,0X10,0XDF,0XFF,0XDF,0X34,0X10,0X10,0X10,0X10,0X10,0X34,0XFF,
// 2701 0XDF,0X10,0X10,0X10,0X10,0XDF,0XFF,0X55,0X10,0X10,0X34,0X34,0X10,0X10,0X34,0X9A,
// 2702 0XFF,0XDF,0X10,0X10,0X10,0XDF,0XFF,0X55,0X10,0X10,0X10,0X34,0X10,0X10,0X10,0XDF,
// 2703 0XFF,0X9A,0X79,0X79,0X79,0XDF,0XFF,0X9A,0X10,0X10,0X10,0X10,0X10,0X10,0X10,0X10,
// 2704 0X10,0X10,0X10,0X10,0X10,0X10,0X10,0X10,0X10,0X10,0X10,0X10,0X10,0X10,0X10,0X10,
// 2705 0X10,0X10,0X10,0X10,0X10,0X10,0X10,0X10,0X10,0X10,0X10,0X10,0X10,0X10,0X10,0X10,
// 2706 0X10,0X10,0X10,0X10,0X10,0X10,0X10,0X10,0X10,0X10,0X10,0X10,0X10,0X10,0X10,0X55,
// 2707 0XDF,0XFF,0XFF,0XFF,0XFF,0XFF,0XFF,0XFF,0XFF,0XFF,0XFF,0XFF,0XFF,0XFF,0XFF,0XFF,
// 2708 0XFF,0XFF,0XFF,0XFF,0XFF,0XFF,0XFF,0XFF,0XFF,0XFF,0XFF,0XFF,0XFF,0XFF,0XFF,0XFF,
// 2709 0XFF,0XFF,0XFF,0XFF,0XFF,0XFF,0XFF,0XFF,0XFF,0XFF,0XFF,0XFF,0XFF,0XFF,0XFF,0XFF,
// 2710 0XFF,0XFF,0XFF,0XFF,0XFF,0XFF,0XFF,0XFF,0XFF,0XFF,0XFF,0XFF,0XFF,0XFF,0XFF,0XFF,
// 2711 0XFF,0XFF,0XFF,0XFF,0XFF,0XFF,0XFF,0XFF,0XFF,0XFF,0XFF,0XFF,0XFF,0XFF,0XFF,0XFF,
// 2712 0XFF,0XFF,0XFF,0XFF,0XFF,0XFF,0XDF,0X55,0X10,0X10,0X10,0X10,0X10,0X10,0X10,0X10,
// 2713 0X10,0X10,0X10,0X10,0X10,0X10,0X10,0X10,0X10,0X10,0X10,0X10,0X10,0X10,0X10,0X10,
// 2714 0X10,0X10,0X10,0X10,0X10,0X10,0X10,0X10,0X10,0X10,0X10,0X10,0X10,0X10,0X10,0X10,
// 2715 0X10,0X10,0X10,0X10,0X10,0X10,0X10,0X10,0X10,0XDF,0XFF,0X34,0X10,0X10,0X10,0X79,
// 2716 0XFF,0XDF,0X10,0X10,0X10,0XDF,0XFF,0X34,0X10,0XDF,0XFF,0X34,0X10,0X10,0X10,0X10,
// 2717 0X10,0X10,0X10,0X10,0X10,0X10,0X10,0X10,0X79,0XFF,0XDF,0X10,0X79,0XFF,0XDF,0X10,
// 2718 0X79,0XFF,0XDF,0X10,0X10,0X75,0XDF,0XDF,0XDF,0XFF,0XFF,0XDF,0X10,0X10,0X34,0XFF,
// 2719 0XDF,0XFF,0XDF,0XFF,0X55,0X10,0X10,0X10,0X10,0XDF,0XFF,0XFF,0XFF,0XFF,0XFF,0XFF,
// 2720 0XFF,0XDF,0X10,0X10,0X10,0XDF,0XFF,0X79,0X10,0X10,0X10,0X10,0X10,0X10,0X34,0XFF,
// 2721 0XDF,0X10,0X10,0X10,0X10,0XDF,0XFF,0X79,0X10,0X10,0X10,0X9A,0XDF,0XDF,0XFF,0XFF,
// 2722 0XFF,0XDF,0X10,0X10,0X10,0X9A,0XFF,0XFF,0XDF,0XDF,0X9A,0X10,0X10,0X10,0X34,0XFF,
// 2723 0XFF,0XFF,0XFF,0XFF,0XFF,0XFF,0XFF,0XDF,0X10,0X10,0X10,0X10,0X10,0X10,0X10,0X10,
// 2724 0X10,0X10,0X10,0X10,0X10,0X10,0X10,0X10,0X10,0X10,0X10,0X10,0X10,0X10,0X10,0X10,
// 2725 0X10,0X10,0X10,0X10,0X10,0X10,0X10,0X10,0X10,0X10,0X10,0X10,0X10,0X10,0X10,0X10,
// 2726 0X10,0X10,0X10,0X10,0X10,0X10,0X10,0X10,0X10,0X10,0X10,0X10,0X10,0X10,0X10,0X34,
// 2727 0XDF,0XFF,0XFF,0XFF,0XFF,0XFF,0XFF,0XFF,0XFF,0XFF,0XFF,0XFF,0XFF,0XFF,0XFF,0XFF,
// 2728 0XFF,0XFF,0XFF,0XFF,0XFF,0XFF,0XFF,0XFF,0XFF,0XFF,0XFF,0XFF,0XFF,0XFF,0XFF,0XFF,
// 2729 0XFF,0XFF,0XFF,0XFF,0XFF,0XFF,0XFF,0XFF,0XFF,0XFF,0XFF,0XFF,0XFF,0XFF,0XFF,0XFF,
// 2730 0XFF,0XFF,0XFF,0XFF,0XFF,0XFF,0XFF,0XFF,0XFF,0XFF,0XFF,0XFF,0XFF,0XFF,0XFF,0XFF,
// 2731 0XFF,0XFF,0XFF,0XFF,0XFF,0XFF,0XFF,0XFF,0XFF,0XFF,0XFF,0XFF,0XFF,0XFF,0XFF,0XFF,
// 2732 0XFF,0XFF,0XFF,0XFF,0XFF,0XFF,0XDF,0X34,0X10,0X10,0X10,0X10,0X10,0X10,0X10,0X10,
// 2733 0X10,0X10,0X10,0X10,0X10,0X10,0X10,0X10,0X10,0X10,0X10,0X10,0X10,0X10,0X10,0X10,
// 2734 0X10,0X10,0X10,0X10,0X10,0X10,0X10,0X10,0X10,0X10,0X10,0X10,0X10,0X10,0X10,0X10,
// 2735 0X10,0X10,0X10,0X10,0X10,0X10,0X10,0X10,0X10,0XDF,0XFF,0X34,0X10,0X10,0X10,0X34,
// 2736 0XFF,0XFF,0X34,0X10,0X10,0X9A,0XFF,0X9A,0X55,0XFF,0XDF,0X10,0X10,0X10,0X10,0X10,
// 2737 0X10,0X10,0X10,0X10,0X10,0X10,0X10,0X10,0X79,0XFF,0XDF,0X10,0X79,0XFF,0XDF,0X10,
// 2738 0X79,0XFF,0XDF,0X10,0XDF,0XFF,0XDF,0XDF,0X9A,0X55,0XDF,0XDF,0X10,0X10,0X34,0XFF,
// 2739 0XFF,0XDF,0X55,0XDF,0XDF,0X10,0X10,0X10,0X10,0XDF,0XFF,0X9A,0X34,0X34,0X34,0X34,
// 2740 0X34,0X34,0X10,0X10,0X10,0XDF,0XFF,0X34,0X10,0X10,0X10,0X10,0X10,0X10,0X34,0XFF,
// 2741 0XDF,0X10,0X10,0X10,0X10,0XDF,0XFF,0X79,0X10,0X10,0XDF,0XFF,0XDF,0XDF,0X9A,0X75,
// 2742 0XFF,0XDF,0X10,0X10,0X10,0X10,0X55,0XBA,0XDF,0XDF,0XFF,0XDF,0X55,0X10,0X34,0XFF,
// 2743 0XFF,0X55,0X34,0X34,0X34,0X34,0X34,0X34,0X10,0X10,0X10,0X10,0X10,0X10,0X10,0X10,
// 2744 0X10,0X10,0X10,0X10,0X10,0X10,0X10,0X10,0X10,0X10,0X10,0X10,0X10,0X10,0X10,0X10,
// 2745 0X10,0X10,0X10,0X10,0X10,0X10,0X10,0X10,0X10,0X10,0X10,0X10,0X10,0X10,0X10,0X10,
// 2746 0X10,0X10,0X10,0X10,0X10,0X10,0X10,0X10,0X10,0X10,0X10,0X10,0X10,0X10,0X10,0X34,
// 2747 0XBE,0XFF,0XFF,0XFF,0XFF,0XFF,0XFF,0XFF,0XFF,0XFF,0XFF,0XFF,0XFF,0XFF,0XFF,0XFF,
// 2748 0XFF,0XFF,0XFF,0XFF,0XFF,0XFF,0XFF,0XFF,0XFF,0XFF,0XFF,0XFF,0XFF,0XFF,0XFF,0XFF,
// 2749 0XFF,0XFF,0XFF,0XFF,0XFF,0XFF,0XFF,0XFF,0XFF,0XFF,0XFF,0XFF,0XFF,0XFF,0XFF,0XFF,
// 2750 0XFF,0XFF,0XFF,0XFF,0XFF,0XFF,0XFF,0XFF,0XFF,0XFF,0XFF,0XFF,0XFF,0XFF,0XFF,0XFF,
// 2751 0XFF,0XFF,0XFF,0XFF,0XFF,0XFF,0XFF,0XFF,0XFF,0XFF,0XFF,0XFF,0XFF,0XFF,0XFF,0XFF,
// 2752 0XFF,0XFF,0XFF,0XFF,0XFF,0XFF,0XBE,0X34,0X10,0X10,0X10,0X10,0X10,0X10,0X10,0X10,
// 2753 0X10,0X10,0X10,0X10,0X10,0X10,0X10,0X10,0X10,0X10,0X10,0X10,0X10,0X10,0X10,0X10,
// 2754 0X10,0X10,0X10,0X10,0X10,0X10,0X10,0X10,0X10,0X10,0X10,0X10,0X10,0X10,0X10,0X10,
// 2755 0X10,0X10,0X10,0X10,0X10,0X10,0X10,0X10,0X10,0XDF,0XFF,0X34,0X10,0X10,0X10,0X75,
// 2756 0XFF,0XDF,0X10,0X10,0X10,0X55,0XFF,0XDF,0XBA,0XFF,0X75,0X10,0X10,0X10,0X10,0X10,
// 2757 0X10,0X10,0X10,0X10,0X10,0X10,0X10,0X10,0X79,0XFF,0XDF,0X10,0X79,0XFF,0XDF,0X10,
// 2758 0X79,0XFF,0XDF,0X34,0XFF,0XDF,0X10,0X10,0X10,0X10,0XDF,0XDF,0X10,0X10,0X34,0XFF,
// 2759 0XDF,0X10,0X10,0X9A,0XFF,0X9A,0X10,0X10,0X10,0XDF,0XFF,0X9A,0X10,0X10,0X10,0X34,
// 2760 0XDF,0XBA,0X10,0X10,0X10,0XDF,0XFF,0X34,0X10,0X10,0X10,0X10,0X10,0X10,0X34,0XFF,
// 2761 0XDF,0X10,0X10,0X10,0X10,0XDF,0XFF,0X55,0X10,0X79,0XFF,0XDF,0X10,0X10,0X10,0X55,
// 2762 0XFF,0XDF,0X10,0X10,0X55,0X79,0X75,0X10,0X10,0X10,0X9A,0XFF,0XBA,0X10,0X10,0XDF,
// 2763 0XFF,0X55,0X10,0X10,0X10,0X75,0XDF,0X9A,0X10,0X10,0X10,0X10,0X10,0X10,0X10,0X10,
// 2764 0X10,0X10,0X10,0X10,0X10,0X10,0X10,0X10,0X10,0X10,0X10,0X10,0X10,0X10,0X10,0X10,
// 2765 0X10,0X10,0X10,0X10,0X10,0X10,0X10,0X10,0X10,0X10,0X10,0X10,0X10,0X10,0X10,0X10,
// 2766 0X10,0X10,0X10,0X10,0X10,0X10,0X10,0X10,0X10,0X10,0X10,0X10,0X10,0X10,0X10,0X10,
// 2767 0XBA,0XFF,0XFF,0XFF,0XFF,0XFF,0XFF,0XFF,0XFF,0XFF,0XFF,0XFF,0XFF,0XFF,0XFF,0XFF,
// 2768 0XFF,0XFF,0XFF,0XFF,0XFF,0XFF,0XFF,0XFF,0XFF,0XFF,0XFF,0XFF,0XFF,0XFF,0XFF,0XFF,
// 2769 0XFF,0XFF,0XFF,0XFF,0XFF,0XFF,0XFF,0XFF,0XFF,0XFF,0XFF,0XFF,0XFF,0XFF,0XFF,0XFF,
// 2770 0XFF,0XFF,0XFF,0XFF,0XFF,0XFF,0XFF,0XFF,0XFF,0XFF,0XFF,0XFF,0XFF,0XFF,0XFF,0XFF,
// 2771 0XFF,0XFF,0XFF,0XFF,0XFF,0XFF,0XFF,0XFF,0XFF,0XFF,0XFF,0XFF,0XFF,0XFF,0XFF,0XFF,
// 2772 0XFF,0XFF,0XFF,0XFF,0XFF,0XFF,0XBA,0X10,0X10,0X10,0X10,0X10,0X10,0X10,0X10,0X10,
// 2773 0X10,0X10,0X10,0X10,0X10,0X10,0X10,0X10,0X10,0X10,0X10,0X10,0X10,0X10,0X10,0X10,
// 2774 0X10,0X10,0X10,0X10,0X10,0X10,0X10,0X10,0X10,0X10,0X10,0X10,0X10,0X10,0X10,0X10,
// 2775 0X10,0X10,0X10,0X10,0X10,0X10,0X10,0X10,0X10,0XDF,0XFF,0X55,0X34,0X34,0X55,0XDF,
// 2776 0XFF,0XDF,0X10,0X10,0X10,0X10,0XDF,0XFF,0XFF,0XDF,0X10,0X10,0X10,0X10,0X10,0X10,
// 2777 0X10,0X10,0X10,0X10,0X10,0X10,0X10,0X10,0X79,0XFF,0XDF,0X10,0X79,0XFF,0XDF,0X10,
// 2778 0X79,0XFF,0XDF,0X34,0XFF,0XDF,0X10,0X10,0X55,0XDF,0XFF,0XDF,0X10,0X10,0X34,0XFF,
// 2779 0XDF,0X10,0X10,0X10,0XDF,0XDF,0X34,0X10,0X10,0X55,0XFF,0XDF,0X55,0X10,0X10,0X9A,
// 2780 0XFF,0XDF,0X10,0X10,0X10,0XDF,0XFF,0X34,0X10,0X10,0X10,0X10,0X10,0X10,0X34,0XFF,
// 2781 0XFF,0X9A,0X10,0X10,0X9A,0XFF,0XDF,0X10,0X10,0X79,0XFF,0XDF,0X10,0X10,0X55,0XDF,
// 2782 0XFF,0XDF,0X10,0X10,0X55,0XFF,0XDF,0X10,0X10,0X10,0X9A,0XFF,0XDF,0X10,0X10,0X9A,
// 2783 0XFF,0XDF,0X10,0X10,0X10,0XDF,0XFF,0X9A,0X10,0X10,0X10,0X10,0X10,0X10,0X10,0X10,
// 2784 0X10,0X10,0X10,0X10,0X10,0X10,0X10,0X10,0X10,0X10,0X10,0X10,0X10,0X10,0X10,0X10,
// 2785 0X10,0X10,0X10,0X10,0X10,0X10,0X10,0X10,0X10,0X10,0X10,0X10,0X10,0X10,0X10,0X10,
// 2786 0X10,0X10,0X10,0X10,0X10,0X10,0X10,0X10,0X10,0X10,0X10,0X10,0X10,0X10,0X10,0X10,
// 2787 0X9A,0XDF,0XFF,0XFF,0XFF,0XFF,0XFF,0XFF,0XFF,0XFF,0XFF,0XFF,0XFF,0XFF,0XFF,0XFF,
// 2788 0XFF,0XFF,0XFF,0XFF,0XFF,0XFF,0XFF,0XFF,0XFF,0XFF,0XFF,0XFF,0XFF,0XFF,0XFF,0XFF,
// 2789 0XFF,0XFF,0XFF,0XFF,0XFF,0XFF,0XFF,0XFF,0XFF,0XFF,0XFF,0XFF,0XFF,0XFF,0XFF,0XFF,
// 2790 0XFF,0XFF,0XFF,0XFF,0XFF,0XFF,0XFF,0XFF,0XFF,0XFF,0XFF,0XFF,0XFF,0XFF,0XFF,0XFF,
// 2791 0XFF,0XFF,0XFF,0XFF,0XFF,0XFF,0XFF,0XFF,0XFF,0XFF,0XFF,0XFF,0XFF,0XFF,0XFF,0XFF,
// 2792 0XFF,0XFF,0XFF,0XFF,0XFF,0XDF,0X9A,0X10,0X10,0X10,0X10,0X10,0X10,0X10,0X10,0X10,
// 2793 0X10,0X10,0X10,0X10,0X10,0X10,0X10,0X10,0X10,0X10,0X10,0X10,0X10,0X10,0X10,0X10,
// 2794 0X10,0X10,0X10,0X10,0X10,0X10,0X10,0X10,0X10,0X10,0X10,0X10,0X10,0X10,0X10,0X10,
// 2795 0X10,0X10,0X10,0X10,0X10,0X10,0X10,0X10,0X10,0XDF,0XFF,0XFF,0XFF,0XFF,0XFF,0XFF,
// 2796 0XDF,0X34,0X10,0X10,0X10,0X10,0X9A,0XFF,0XFF,0XBA,0X10,0X10,0X10,0X10,0X10,0X10,
// 2797 0X10,0X10,0X10,0X10,0X10,0X10,0X10,0X10,0X79,0XFF,0XDF,0X10,0X79,0XFF,0XDF,0X10,
// 2798 0X79,0XFF,0XDF,0X10,0XDF,0XFF,0XDF,0XDF,0XFF,0XDF,0XFF,0XDF,0X10,0X10,0X34,0XFF,
// 2799 0XDF,0X10,0X10,0X10,0X79,0XFF,0XBA,0X10,0X10,0X10,0X9A,0XFF,0XFF,0XDF,0XDF,0XFF,
// 2800 0XDF,0X55,0X10,0X10,0X10,0XDF,0XFF,0X34,0X10,0X10,0X10,0X10,0X10,0X10,0X34,0XFF,
// 2801 0XFF,0XFF,0XDF,0XDF,0XFF,0XFF,0X79,0X10,0X10,0X55,0XFF,0XFF,0XDF,0XDF,0XFF,0XDF,
// 2802 0XFF,0XDF,0X10,0X10,0X10,0XDF,0XFF,0XDF,0XDF,0XDF,0XFF,0XFF,0X55,0X10,0X10,0X10,
// 2803 0XDF,0XFF,0XDF,0XDF,0XDF,0XFF,0XDF,0X10,0X10,0X10,0X10,0X10,0X10,0X10,0X10,0X10,
// 2804 0X10,0X10,0X10,0X10,0X10,0X10,0X10,0X10,0X10,0X10,0X10,0X10,0X10,0X10,0X10,0X10,
// 2805 0X10,0X10,0X10,0X10,0X10,0X10,0X10,0X10,0X10,0X10,0X10,0X10,0X10,0X10,0X10,0X10,
// 2806 0X10,0X10,0X10,0X10,0X10,0X10,0X10,0X10,0X10,0X10,0X10,0X10,0X10,0X10,0X10,0X10,
// 2807 0X79,0XDF,0XFF,0XFF,0XFF,0XFF,0XFF,0XFF,0XFF,0XFF,0XFF,0XFF,0XFF,0XFF,0XFF,0XFF,
// 2808 0XFF,0XFF,0XFF,0XFF,0XFF,0XFF,0XFF,0XFF,0XFF,0XFF,0XFF,0XFF,0XFF,0XFF,0XFF,0XFF,
// 2809 0XFF,0XFF,0XFF,0XFF,0XFF,0XFF,0XFF,0XFF,0XFF,0XFF,0XFF,0XFF,0XFF,0XFF,0XFF,0XFF,
// 2810 0XFF,0XFF,0XFF,0XFF,0XFF,0XFF,0XFF,0XFF,0XFF,0XFF,0XFF,0XFF,0XFF,0XFF,0XFF,0XFF,
// 2811 0XFF,0XFF,0XFF,0XFF,0XFF,0XFF,0XFF,0XFF,0XFF,0XFF,0XFF,0XFF,0XFF,0XFF,0XFF,0XFF,
// 2812 0XFF,0XFF,0XFF,0XFF,0XFF,0XDF,0X79,0X10,0X10,0X10,0X10,0X10,0X10,0X10,0X10,0X10,
// 2813 0X10,0X10,0X10,0X10,0X10,0X10,0X10,0X10,0X10,0X10,0X10,0X10,0X10,0X10,0X10,0X10,
// 2814 0X10,0X10,0X10,0X10,0X10,0X10,0X10,0X10,0X10,0X10,0X10,0X10,0X10,0X10,0X10,0X10,
// 2815 0X10,0X10,0X10,0X10,0X10,0X10,0X10,0X10,0X10,0XBA,0XDF,0XDF,0XDF,0XDF,0XDF,0X75,
// 2816 0X10,0X10,0X10,0X10,0X10,0X10,0X10,0XDF,0XFF,0X55,0X10,0X10,0X10,0X10,0X10,0X10,
// 2817 0X10,0X10,0X10,0X10,0X10,0X10,0X10,0X10,0X75,0XDF,0X9A,0X10,0X75,0XDF,0X9A,0X10,
// 2818 0X75,0XDF,0X9A,0X10,0X34,0XBA,0XDF,0XDF,0XDF,0X55,0XBA,0XDF,0X55,0X10,0X34,0XDF,
// 2819 0X9A,0X10,0X10,0X10,0X10,0XBA,0XDF,0X55,0X10,0X10,0X10,0X79,0XDF,0XDF,0XDF,0XBA,
// 2820 0X34,0X10,0X10,0X10,0X10,0X9A,0XDF,0X34,0X10,0X10,0X10,0X10,0X10,0X10,0X34,0XDF,
// 2821 0XBA,0X9A,0XDF,0XDF,0XDF,0X55,0X10,0X10,0X10,0X10,0X55,0XDF,0XDF,0XDF,0XBA,0X34,
// 2822 0XDF,0XDF,0X10,0X10,0X10,0X10,0X9A,0XDF,0XDF,0XDF,0XDF,0X55,0X10,0X10,0X10,0X10,
// 2823 0X10,0X9A,0XDF,0XDF,0XDF,0X9A,0X10,0X10,0X10,0X10,0X10,0X10,0X10,0X10,0X10,0X10,
// 2824 0X10,0X10,0X10,0X10,0X10,0X10,0X10,0X10,0X10,0X10,0X10,0X10,0X10,0X10,0X10,0X10,
// 2825 0X10,0X10,0X10,0X10,0X10,0X10,0X10,0X10,0X10,0X10,0X10,0X10,0X10,0X10,0X10,0X10,
// 2826 0X10,0X10,0X10,0X10,0X10,0X10,0X10,0X10,0X10,0X10,0X10,0X10,0X10,0X10,0X10,0X10,
// 2827 0X55,0XDF,0XFF,0XFF,0XFF,0XFF,0XFF,0XFF,0XFF,0XFF,0XFF,0XFF,0XFF,0XFF,0XFF,0XFF,
// 2828 0XFF,0XFF,0XFF,0XFF,0XFF,0XFF,0XFF,0XFF,0XFF,0XFF,0XFF,0XFF,0XFF,0XFF,0XFF,0XFF,
// 2829 0XFF,0XFF,0XFF,0XFF,0XFF,0XFF,0XFF,0XFF,0XFF,0XFF,0XFF,0XFF,0XFF,0XFF,0XFF,0XFF,
// 2830 0XFF,0XFF,0XFF,0XFF,0XFF,0XFF,0XFF,0XFF,0XFF,0XFF,0XFF,0XFF,0XFF,0XFF,0XFF,0XFF,
// 2831 0XFF,0XFF,0XFF,0XFF,0XFF,0XFF,0XFF,0XFF,0XFF,0XFF,0XFF,0XFF,0XFF,0XFF,0XFF,0XFF,
// 2832 0XFF,0XFF,0XFF,0XFF,0XFF,0XDF,0X55,0X10,0X10,0X10,0X10,0X10,0X10,0X10,0X10,0X10,
// 2833 0X10,0X10,0X10,0X10,0X10,0X10,0X10,0X10,0X10,0X10,0X10,0X10,0X10,0X10,0X10,0X10,
// 2834 0X10,0X10,0X10,0X10,0X10,0X10,0X10,0X10,0X10,0X10,0X10,0X10,0X10,0X10,0X10,0X10,
// 2835 0X10,0X10,0X10,0X10,0X10,0X10,0X10,0X10,0X10,0X10,0X10,0X10,0X10,0X10,0X10,0X10,
// 2836 0X10,0X10,0X10,0X10,0X34,0X10,0X55,0XFF,0XDF,0X10,0X10,0X10,0X10,0X10,0X10,0X10,
// 2837 0X10,0X10,0X10,0X10,0X10,0X10,0X10,0X10,0X10,0X10,0X10,0X10,0X10,0X10,0X10,0X10,
// 2838 0X10,0X10,0X10,0X10,0X10,0X10,0X10,0X10,0X10,0X10,0X10,0X10,0X10,0X10,0X10,0X10,
// 2839 0X10,0X10,0X10,0X10,0X10,0X10,0X10,0X10,0X10,0X10,0X10,0X10,0X10,0X10,0X10,0X10,
// 2840 0X10,0X10,0X10,0X10,0X10,0X10,0X10,0X10,0X10,0X10,0X10,0X10,0X10,0X10,0X10,0X10,
// 2841 0X10,0X10,0X10,0X10,0X10,0X10,0X10,0X10,0X10,0X10,0X10,0X10,0X10,0X10,0X10,0X10,
// 2842 0X10,0X10,0X10,0X10,0X10,0X10,0X10,0X10,0X10,0X10,0X10,0X10,0X10,0X10,0X10,0X10,
// 2843 0X10,0X10,0X10,0X10,0X10,0X10,0X10,0X10,0X10,0X10,0X10,0X10,0X10,0X10,0X10,0X10,
// 2844 0X10,0X10,0X10,0X10,0X10,0X10,0X10,0X10,0X10,0X10,0X10,0X10,0X10,0X10,0X10,0X10,
// 2845 0X10,0X10,0X10,0X10,0X10,0X10,0X10,0X10,0X10,0X10,0X10,0X10,0X10,0X10,0X10,0X10,
// 2846 0X10,0X10,0X10,0X10,0X10,0X10,0X10,0X10,0X10,0X10,0X10,0X10,0X10,0X10,0X10,0X10,
// 2847 0X34,0XBA,0XFF,0XFF,0XFF,0XFF,0XFF,0XFF,0XFF,0XFF,0XFF,0XFF,0XFF,0XFF,0XFF,0XFF,
// 2848 0XFF,0XFF,0XFF,0XFF,0XFF,0XFF,0XFF,0XFF,0XFF,0XFF,0XFF,0XFF,0XFF,0XFF,0XFF,0XFF,
// 2849 0XFF,0XFF,0XFF,0XFF,0XFF,0XFF,0XFF,0XFF,0XFF,0XFF,0XFF,0XFF,0XFF,0XFF,0XFF,0XFF,
// 2850 0XFF,0XFF,0XFF,0XFF,0XFF,0XFF,0XFF,0XFF,0XFF,0XFF,0XFF,0XFF,0XFF,0XFF,0XFF,0XFF,
// 2851 0XFF,0XFF,0XFF,0XFF,0XFF,0XFF,0XFF,0XFF,0XFF,0XFF,0XFF,0XFF,0XFF,0XFF,0XFF,0XFF,
// 2852 0XFF,0XFF,0XFF,0XFF,0XFF,0XBA,0X34,0X10,0X10,0X10,0X10,0X10,0X10,0X10,0X10,0X10,
// 2853 0X10,0X10,0X10,0X10,0X10,0X10,0X10,0X10,0X10,0X10,0X10,0X10,0X10,0X10,0X10,0X10,
// 2854 0X10,0X10,0X10,0X10,0X10,0X10,0X10,0X10,0X10,0X10,0X10,0X10,0X10,0X10,0X10,0X10,
// 2855 0X10,0X10,0X10,0X10,0X10,0X10,0X10,0X10,0X10,0X10,0X10,0X10,0X10,0X10,0X10,0X10,
// 2856 0X10,0X10,0X10,0X10,0X79,0XDF,0XFF,0XFF,0X79,0X10,0X10,0X10,0X10,0X10,0X10,0X10,
// 2857 0X10,0X10,0X10,0X10,0X10,0X10,0X10,0X10,0X10,0X10,0X10,0X10,0X10,0X10,0X10,0X10,
// 2858 0X10,0X10,0X10,0X10,0X10,0X10,0X10,0X10,0X10,0X10,0X10,0X10,0X10,0X10,0X10,0X10,
// 2859 0X10,0X10,0X10,0X10,0X10,0X10,0X10,0X10,0X10,0X10,0X10,0X10,0X10,0X10,0X10,0X10,
// 2860 0X10,0X10,0X10,0X10,0X10,0X10,0X10,0X10,0X10,0X10,0X10,0X10,0X10,0X10,0X10,0X10,
