///////////////////////////////////////////////////////////////////////////////
//
// IAR ANSI C/C++ Compiler V7.10.1.6676/W32 for ARM       13/Apr/2020  10:57:01
// Copyright 1999-2014 IAR Systems AB.
//
//    Cpu mode     =  thumb
//    Endian       =  little
//    Source file  =  
//        D:\MKS-Robin-Nano-Firmware-v2.x.x\MKS-Robin-Nano-Firmware\Middlewares\Third_Party\Marlin\stepper.cpp
//    Command line =  
//        D:\MKS-Robin-Nano-Firmware-v2.x.x\MKS-Robin-Nano-Firmware\Middlewares\Third_Party\Marlin\stepper.cpp
//        -D USE_HAL_DRIVER -D STM32F103xE -D STM32F10X_HD -D USE_HAL_LIB -D
//        MKS_ROBIN_NANO -D TFT35 -lC
//        D:\MKS-Robin-Nano-Firmware-v2.x.x\MKS-Robin-Nano-Firmware\EWARM\mksRobinNano/List\
//        -lA
//        D:\MKS-Robin-Nano-Firmware-v2.x.x\MKS-Robin-Nano-Firmware\EWARM\mksRobinNano/List\
//        --diag_suppress Pa050 -o
//        D:\MKS-Robin-Nano-Firmware-v2.x.x\MKS-Robin-Nano-Firmware\EWARM\mksRobinNano/Obj\
//        --debug --endian=little --cpu=Cortex-M3 -e --char_is_signed
//        --fpu=None --dlib_config "C:\Program Files (x86)\IAR Systems\Embedded
//        Workbench 7.0\arm\INC\c\DLib_Config_Full.h" -I
//        D:\MKS-Robin-Nano-Firmware-v2.x.x\MKS-Robin-Nano-Firmware\EWARM/../Inc\
//        -I
//        D:\MKS-Robin-Nano-Firmware-v2.x.x\MKS-Robin-Nano-Firmware\EWARM/../Src\
//        -I
//        D:\MKS-Robin-Nano-Firmware-v2.x.x\MKS-Robin-Nano-Firmware\EWARM/../Drivers/STM32F1xx_HAL_Driver/Inc\
//        -I
//        D:\MKS-Robin-Nano-Firmware-v2.x.x\MKS-Robin-Nano-Firmware\EWARM/../Drivers/STM32F1xx_HAL_Driver/Inc/Legacy\
//        -I
//        D:\MKS-Robin-Nano-Firmware-v2.x.x\MKS-Robin-Nano-Firmware\EWARM/../Middlewares/Third_Party/FatFs/src/drivers\
//        -I
//        D:\MKS-Robin-Nano-Firmware-v2.x.x\MKS-Robin-Nano-Firmware\EWARM/../Middlewares/ST/STM32_USB_Host_Library/Core/Inc\
//        -I
//        D:\MKS-Robin-Nano-Firmware-v2.x.x\MKS-Robin-Nano-Firmware\EWARM/../Middlewares/ST/STM32_USB_Host_Library/Class/MSC/Inc\
//        -I
//        D:\MKS-Robin-Nano-Firmware-v2.x.x\MKS-Robin-Nano-Firmware\EWARM/../Drivers/CMSIS/Device/ST/STM32F1xx/Include\
//        -I
//        D:\MKS-Robin-Nano-Firmware-v2.x.x\MKS-Robin-Nano-Firmware\EWARM/../Middlewares/Third_Party/FatFs/src\
//        -I
//        D:\MKS-Robin-Nano-Firmware-v2.x.x\MKS-Robin-Nano-Firmware\EWARM/../Middlewares/Third_Party/Marlin\
//        -I
//        D:\MKS-Robin-Nano-Firmware-v2.x.x\MKS-Robin-Nano-Firmware\EWARM/../Drivers/CMSIS/Include\
//        -I
//        D:\MKS-Robin-Nano-Firmware-v2.x.x\MKS-Robin-Nano-Firmware\EWARM/../Drivers/BSP/variant\
//        -I
//        D:\MKS-Robin-Nano-Firmware-v2.x.x\MKS-Robin-Nano-Firmware\EWARM/../Drivers/BSP/Components/at24cxx\
//        -I
//        D:\MKS-Robin-Nano-Firmware-v2.x.x\MKS-Robin-Nano-Firmware\EWARM/../Drivers/BSP/Components/w25qxx\
//        -I
//        D:\MKS-Robin-Nano-Firmware-v2.x.x\MKS-Robin-Nano-Firmware\EWARM/../Drivers/BSP/Components/lcd\
//        -I
//        D:\MKS-Robin-Nano-Firmware-v2.x.x\MKS-Robin-Nano-Firmware\EWARM/../Drivers/STM32F10x_StdPeriph_Driver/inc\
//        -I
//        D:\MKS-Robin-Nano-Firmware-v2.x.x\MKS-Robin-Nano-Firmware\EWARM/../Drivers/libstmf4/include\
//        -I
//        D:\MKS-Robin-Nano-Firmware-v2.x.x\MKS-Robin-Nano-Firmware\EWARM/../Middlewares/arduino/stm32/cores/arduino\
//        -I
//        D:\MKS-Robin-Nano-Firmware-v2.x.x\MKS-Robin-Nano-Firmware\EWARM/../User/ui\
//        -I
//        D:\MKS-Robin-Nano-Firmware-v2.x.x\MKS-Robin-Nano-Firmware\EWARM/../User/ui/Multi_language\
//        -I
//        D:\MKS-Robin-Nano-Firmware-v2.x.x\MKS-Robin-Nano-Firmware\EWARM/../User/ui/QRENCODE\
//        -I
//        D:\MKS-Robin-Nano-Firmware-v2.x.x\MKS-Robin-Nano-Firmware\EWARM\..\Middlewares\GUI\
//        -Oh --eec++ -I "C:\Program Files (x86)\IAR Systems\Embedded Workbench
//        7.0\arm\CMSIS\Include\"
//    List file    =  
//        D:\MKS-Robin-Nano-Firmware-v2.x.x\MKS-Robin-Nano-Firmware\EWARM\mksRobinNano/List\stepper.s
//
///////////////////////////////////////////////////////////////////////////////

        RTMODEL "__CPP_Language", "EC++"
        RTMODEL "__SystemLibrary", "DLib"
        RTMODEL "__dlib_file_descriptor", "1"
        RTMODEL "__dlib_full_locale_support", "1"
        AAPCS BASE,INTERWORK
        PRESERVE8
        REQUIRE8

        #define SHT_PROGBITS 0x1

        EXTERN HAL_GPIO_ReadPin
        EXTERN HAL_GPIO_WritePin
        EXTERN HAL_TIM_Base_Start_IT
        EXTERN HAL_TIM_Base_Stop_IT
        EXTERN Serial3
        EXTERN _Z20disable_all_steppersv
        EXTERN _Z27enqueue_and_echo_commands_PPKc
        EXTERN _Z4idlev
        EXTERN _ZN10USARTClass5writeEh
        EXTERN _ZN11Temperature11in_temp_isrE
        EXTERN _ZN5Print5printEli
        EXTERN _ZN7Planner11steps_to_mmE
        EXTERN _ZN7Planner12block_bufferE
        EXTERN _ZN7Planner17block_buffer_headE
        EXTERN _ZN7Planner17block_buffer_tailE
        EXTERN _ZN8Endstops15z_probe_enabledE
        EXTERN _ZN8Endstops16old_endstop_bitsE
        EXTERN _ZN8Endstops4initEv
        EXTERN _ZN8Endstops6updateEv
        EXTERN _ZN8Endstops7enabledE
        EXTERN __aeabi_f2iz
        EXTERN __aeabi_fmul
        EXTERN __aeabi_i2f
        EXTERN axis_known_position
        EXTERN endstops
        EXTERN gArrayGpioPin
        EXTERN gArrayGpioPort
        EXTERN gCfgItems
        EXTERN htim2
        EXTERN htim4
        EXTERN mksCfg
        EXTERN mksTmp

        PUBLIC IsrStepperHandler
        PUBLIC _ZN7Stepper10quick_stopEv
        PUBLIC _ZN7Stepper10step_loopsE
        PUBLIC _ZN7Stepper11synchronizeEv
        PUBLIC _ZN7Stepper12set_positionERK8AxisEnumRKl
        PUBLIC _ZN7Stepper12set_positionERKlS1_S1_S1_
        PUBLIC _ZN7Stepper13OCR1A_nominalE
        PUBLIC _ZN7Stepper13acc_step_rateE
        PUBLIC _ZN7Stepper13current_blockE
        PUBLIC _ZN7Stepper14StepperHandlerEv
        PUBLIC _ZN7Stepper14count_positionE
        PUBLIC _ZN7Stepper14locked_z_motorE
        PUBLIC _ZN7Stepper14set_directionsEv
        PUBLIC _ZN7Stepper14set_e_positionERKl
        PUBLIC _ZN7Stepper15count_directionE
        PUBLIC _ZN7Stepper15locked_z2_motorE
        PUBLIC _ZN7Stepper16report_positionsEv
        PUBLIC _ZN7Stepper17acceleration_timeE
        PUBLIC _ZN7Stepper17deceleration_timeE
        PUBLIC _ZN7Stepper17endstop_triggeredE8AxisEnum
        PUBLIC _ZN7Stepper17performing_homingE
        PUBLIC _ZN7Stepper18endstops_trigstepsE
        PUBLIC _ZN7Stepper18finish_and_disableEv
        PUBLIC _ZN7Stepper18step_loops_nominalE
        PUBLIC _ZN7Stepper19calc_timer_intervalEt
        PUBLIC _ZN7Stepper19last_direction_bitsE
        PUBLIC _ZN7Stepper20get_axis_position_mmE8AxisEnum
        PUBLIC _ZN7Stepper21step_events_completedE
        PUBLIC _ZN7Stepper22waitUntilEndOfAllMovesEv
        PUBLIC _ZN7Stepper23cleaning_buffer_counterE
        PUBLIC _ZN7Stepper24waitUntilEndOfAllBuffersEv
        PUBLIC _ZN7Stepper4initEv
        PUBLIC _ZN7Stepper7wake_upEv
        PUBLIC _ZN7Stepper8babystepE8AxisEnumb
        PUBLIC _ZN7Stepper8positionE8AxisEnum
        PUBLIC _ZN7Stepper9counter_EE
        PUBLIC _ZN7Stepper9counter_XE
        PUBLIC _ZN7Stepper9counter_YE
        PUBLIC _ZN7Stepper9counter_ZE
        PUBLIC _ZTI5Print
        PUBLIC _ZZN7Stepper25trapezoid_generator_resetEvE13last_extruder
        PUBLIC stepper
        
          CFI Names cfiNames0
          CFI StackFrame CFA R13 DATA
          CFI Resource R0:32, R1:32, R2:32, R3:32, R4:32, R5:32, R6:32, R7:32
          CFI Resource R8:32, R9:32, R10:32, R11:32, R12:32, R13:32, R14:32
          CFI EndNames cfiNames0
        
          CFI Common cfiCommon0 Using cfiNames0
          CFI CodeAlign 2
          CFI DataAlign 4
          CFI ReturnAddress R14 CODE
          CFI CFA R13+0
          CFI R0 Undefined
          CFI R1 Undefined
          CFI R2 Undefined
          CFI R3 Undefined
          CFI R4 SameValue
          CFI R5 SameValue
          CFI R6 SameValue
          CFI R7 SameValue
          CFI R8 SameValue
          CFI R9 SameValue
          CFI R10 SameValue
          CFI R11 SameValue
          CFI R12 Undefined
          CFI R14 SameValue
          CFI EndCommon cfiCommon0
        
// D:\MKS-Robin-Nano-Firmware-v2.x.x\MKS-Robin-Nano-Firmware\Middlewares\Third_Party\Marlin\stepper.cpp
//    1 /**
//    2  * Marlin 3D Printer Firmware
//    3  * Copyright (C) 2016 MarlinFirmware [https://github.com/MarlinFirmware/Marlin]
//    4  *
//    5  * Based on Sprinter and grbl.
//    6  * Copyright (C) 2011 Camiel Gubbels / Erik van der Zalm
//    7  *
//    8  * This program is free software: you can redistribute it and/or modify
//    9  * it under the terms of the GNU General Public License as published by
//   10  * the Free Software Foundation, either version 3 of the License, or
//   11  * (at your option) any later version.
//   12  *
//   13  * This program is distributed in the hope that it will be useful,
//   14  * but WITHOUT ANY WARRANTY; without even the implied warranty of
//   15  * MERCHANTABILITY or FITNESS FOR A PARTICULAR PURPOSE.  See the
//   16  * GNU General Public License for more details.
//   17  *
//   18  * You should have received a copy of the GNU General Public License
//   19  * along with this program.  If not, see <http://www.gnu.org/licenses/>.
//   20  *
//   21  */
//   22 
//   23 /**
//   24  * stepper.cpp - A singleton object to execute motion plans using stepper motors
//   25  * Marlin Firmware
//   26  *
//   27  * Derived from Grbl
//   28  * Copyright (c) 2009-2011 Simen Svale Skogsrud
//   29  *
//   30  * Grbl is free software: you can redistribute it and/or modify
//   31  * it under the terms of the GNU General Public License as published by
//   32  * the Free Software Foundation, either version 3 of the License, or
//   33  * (at your option) any later version.
//   34  *
//   35  * Grbl is distributed in the hope that it will be useful,
//   36  * but WITHOUT ANY WARRANTY; without even the implied warranty of
//   37  * MERCHANTABILITY or FITNESS FOR A PARTICULAR PURPOSE.  See the
//   38  * GNU General Public License for more details.
//   39  *
//   40  * You should have received a copy of the GNU General Public License
//   41  * along with Grbl.  If not, see <http://www.gnu.org/licenses/>.
//   42  */
//   43 
//   44 /* The timer calculations of this module informed by the 'RepRap cartesian firmware' by Zack Smith
//   45    and Philipp Tiefenbacher. */
//   46 
//   47 #include "Marlin.h"
//   48 #include "stepper.h"

        SECTION `.text`:CODE:REORDER:NOROOT(2)
        SECTION_GROUP _ZN7Stepper19calc_timer_intervalEt
          CFI Block cfiBlock0 Using cfiCommon0
          CFI Function _ZN7Stepper19calc_timer_intervalEt
          CFI NoCalls
        THUMB
// __interwork __softfp unsigned short Stepper::calc_timer_interval(unsigned short)
_ZN7Stepper19calc_timer_intervalEt:
        MOVW     R2,#+40001
        CMP      R0,R2
        ITEE     GE 
        MOVWGE   R0,#+40000
        MOVWLT   R2,#+20001
        CMPLT    R0,R2
        BLT.N    ??calc_timer_interval_0
        LSRS     R0,R0,#+2
        MOVS     R1,#+4
        B.N      ??calc_timer_interval_1
??calc_timer_interval_0:
        MOVW     R2,#+10001
        CMP      R0,R2
        ITTE     GE 
        LSRGE    R0,R0,#+1
        MOVGE    R1,#+2
        MOVLT    R1,#+1
??calc_timer_interval_1:
        LDR.N    R2,??calc_timer_interval_2
        STRB     R1,[R2, #+8]
        ADD      R2,R0,R0, LSL #+3
        LDR.N    R1,??calc_timer_interval_2+0x4  ;; 0x44aa200
        LSLS     R0,R2,#+2
        SDIV     R0,R1,R0
        UXTH     R0,R0
        CMP      R0,#+100
        IT       LT 
        MOVLT    R0,#+100
        BX       LR               ;; return
        Nop      
        DATA
??calc_timer_interval_2:
        DC32     _ZN7Stepper15count_directionE
        DC32     0x44aa200
          CFI EndBlock cfiBlock0

        SECTION `.data`:DATA:REORDER:NOROOT(0)
        SECTION_GROUP _ZZN7Stepper25trapezoid_generator_resetEvE13last_extruder
// __absolute int8_t Stepper::trapezoid_generator_reset()::last_extruder
_ZZN7Stepper25trapezoid_generator_resetEvE13last_extruder:
        DATA
        DC8 -1
//   49 #include "endstops.h"
//   50 #include "planner.h"
//   51 #include "temperature.h"
//   52 #include "ultralcd.h"
//   53 #include "language.h"
//   54 #include "cardreader.h"
//   55 #include "mks_cfg.h"
//   56 //#include "speed_lookuptable.h"
//   57 #include "tim.h"
//   58 
//   59 #if ENABLED(AUTO_BED_LEVELING_UBL) && ENABLED(ULTIPANEL)
//   60   #include "ubl.h"
//   61 #endif
//   62 
//   63 #if HAS_DIGIPOTSS
//   64   #include <SPI.h>
//   65 #endif
//   66 

        SECTION `.bss`:DATA:REORDER:NOROOT(2)
//   67 Stepper stepper; // Singleton
stepper:
        DS8 4
//   68 
//   69 // public:
//   70 
//   71 block_t* Stepper::current_block = NULL;  // A pointer to the block currently being traced
//   72 
//   73 #if ENABLED(ABORT_ON_ENDSTOP_HIT_FEATURE_ENABLED)
//   74   bool Stepper::abort_on_endstop_hit = false;
//   75 #endif
//   76 
//   77 #if 1//ENABLED(X_DUAL_ENDSTOPS) || ENABLED(Y_DUAL_ENDSTOPS) || ENABLED(Z_DUAL_ENDSTOPS)
//   78   bool Stepper::performing_homing = false;
//   79 #endif
//   80 
//   81 #if HAS_MOTOR_CURRENT_PWM
//   82   uint32_t Stepper::motor_current_setting[3]; // Initialized by settings.load()
//   83 #endif
//   84 
//   85 // private:
//   86 
//   87 uint8_t Stepper::last_direction_bits = 0;        // The next stepping-bits to be output
//   88 int16_t Stepper::cleaning_buffer_counter = 0;
//   89 
//   90 #if ENABLED(X_DUAL_ENDSTOPS)
//   91   bool Stepper::locked_x_motor = false, Stepper::locked_x2_motor = false;
//   92 #endif
//   93 #if ENABLED(Y_DUAL_ENDSTOPS)
//   94   bool Stepper::locked_y_motor = false, Stepper::locked_y2_motor = false;
//   95 #endif
//   96 #if 1//ENABLED(Z_DUAL_ENDSTOPS)
//   97   bool Stepper::locked_z_motor = false, Stepper::locked_z2_motor = false;
//   98 #endif
//   99 
//  100 long Stepper::counter_X = 0,
//  101      Stepper::counter_Y = 0,
//  102      Stepper::counter_Z = 0,
//  103      Stepper::counter_E = 0;
//  104 
//  105 volatile uint32_t Stepper::step_events_completed = 0; // The number of step events executed in the current block
//  106 
//  107 #if ENABLED(LIN_ADVANCE)
//  108 
//  109   constexpr uint16_t ADV_NEVER = 65535;
//  110 
//  111   uint16_t Stepper::nextMainISR = 0,
//  112            Stepper::nextAdvanceISR = ADV_NEVER,
//  113            Stepper::eISR_Rate = ADV_NEVER;
//  114 
//  115   volatile int Stepper::e_steps[E_STEPPERS];
//  116   int Stepper::final_estep_rate,
//  117       Stepper::current_estep_rate[E_STEPPERS],
//  118       Stepper::current_adv_steps[E_STEPPERS];
//  119 
//  120   /**
//  121    * See https://github.com/MarlinFirmware/Marlin/issues/5699#issuecomment-309264382
//  122    *
//  123    * This fix isn't perfect and may lose steps - but better than locking up completely
//  124    * in future the planner should slow down if advance stepping rate would be too high
//  125    */
//  126   FORCE_INLINE uint16_t adv_rate(const int steps, const uint16_t timer, const uint8_t loops) {
//  127     if (steps) {
//  128       const uint16_t rate = (timer * loops) / abs(steps);
//  129       //return constrain(rate, 1, ADV_NEVER - 1)
//  130       return rate ? rate : 1;
//  131     }
//  132     return ADV_NEVER;
//  133   }
//  134 
//  135 #endif // LIN_ADVANCE
//  136 
//  137 long Stepper::acceleration_time, Stepper::deceleration_time;
//  138 
//  139 volatile long Stepper::count_position[NUM_AXIS] = { 0 };
//  140 volatile signed char Stepper::count_direction[NUM_AXIS] = { 1, 1, 1, 1 };
//  141 
//  142 #if ENABLED(MIXING_EXTRUDER)
//  143   long Stepper::counter_m[MIXING_STEPPERS];
//  144 #endif
//  145 
//  146 uint8_t Stepper::step_loops, Stepper::step_loops_nominal;
//  147 
//  148 uint16_t Stepper::OCR1A_nominal,
//  149          Stepper::acc_step_rate; // needed for deceleration start point
//  150 
//  151 volatile long Stepper::endstops_trigsteps[XYZ];
//  152 
//  153 #if 1//ENABLED(X_DUAL_ENDSTOPS) || ENABLED(Y_DUAL_ENDSTOPS) || ENABLED(Z_DUAL_ENDSTOPS)
//  154   #define LOCKED_X_MOTOR  locked_x_motor
//  155   #define LOCKED_Y_MOTOR  locked_y_motor
//  156   #define LOCKED_Z_MOTOR  locked_z_motor
//  157   #define LOCKED_X2_MOTOR locked_x2_motor
//  158   #define LOCKED_Y2_MOTOR locked_y2_motor
//  159   #define LOCKED_Z2_MOTOR locked_z2_motor
//  160   #define DUAL_ENDSTOP_APPLY_STEP(AXIS,v)                                                                                                             \ 
//  161     if (performing_homing) {                                                                                                                          \ 
//  162       if (AXIS##_HOME_DIR < 0) {                                                                                                                      \ 
//  163         if (!(TEST(endstops.old_endstop_bits, AXIS##_MIN) && (count_direction[AXIS##_AXIS] < 0)) && !LOCKED_##AXIS##_MOTOR) AXIS##_STEP_WRITE(v);     \ 
//  164         if (!(TEST(endstops.old_endstop_bits, AXIS##2_MIN) && (count_direction[AXIS##_AXIS] < 0)) && !LOCKED_##AXIS##2_MOTOR) AXIS##2_STEP_WRITE(v);  \ 
//  165       }                                                                                                                                               \ 
//  166       else {                                                                                                                                          \ 
//  167         if (!(TEST(endstops.old_endstop_bits, AXIS##_MAX) && (count_direction[AXIS##_AXIS] > 0)) && !LOCKED_##AXIS##_MOTOR) AXIS##_STEP_WRITE(v);     \ 
//  168         if (!(TEST(endstops.old_endstop_bits, AXIS##2_MAX) && (count_direction[AXIS##_AXIS] > 0)) && !LOCKED_##AXIS##2_MOTOR) AXIS##2_STEP_WRITE(v);  \ 
//  169       }                                                                                                                                               \ 
//  170     }                                                                                                                                                 \ 
//  171     else {                                                                                                                                            \ 
//  172       AXIS##_STEP_WRITE(v);                                                                                                                           \ 
//  173       AXIS##2_STEP_WRITE(v);                                                                                                                          \ 
//  174     }
//  175 #endif
//  176 
//  177 #if ENABLED(X_DUAL_STEPPER_DRIVERS)
//  178   #define X_APPLY_DIR(v,Q) do{ X_DIR_WRITE(v); X2_DIR_WRITE((v) != INVERT_X2_VS_X_DIR); }while(0)
//  179   #if ENABLED(DUAL_X_CARRIAGE)
//  180     #define X_APPLY_DIR(v,ALWAYS) \ 
//  181       if (extruder_duplication_enabled || ALWAYS) { \ 
//  182         X_DIR_WRITE(v); \ 
//  183         X2_DIR_WRITE(v); \ 
//  184       } \ 
//  185       else { \ 
//  186         if (current_block->active_extruder) X2_DIR_WRITE(v); else X_DIR_WRITE(v); \ 
//  187       }
//  188     #define X_APPLY_STEP(v,ALWAYS) \ 
//  189       if (extruder_duplication_enabled || ALWAYS) { \ 
//  190         X_STEP_WRITE(v); \ 
//  191         X2_STEP_WRITE(v); \ 
//  192       } \ 
//  193       else { \ 
//  194         if (current_block->active_extruder) X2_STEP_WRITE(v); else X_STEP_WRITE(v); \ 
//  195       }
//  196   #elif ENABLED(X_DUAL_ENDSTOPS)
//  197     #define X_APPLY_STEP(v,Q) DUAL_ENDSTOP_APPLY_STEP(X,v)
//  198   #else
//  199     #define X_APPLY_STEP(v,Q) do{ X_STEP_WRITE(v); X2_STEP_WRITE(v); }while(0)
//  200   #endif
//  201 #else
//  202   #define X_APPLY_DIR(v,Q) X_DIR_WRITE(v)
//  203   #define X_APPLY_STEP(v,Q) X_STEP_WRITE(v)
//  204 #endif
//  205 
//  206 #if ENABLED(Y_DUAL_STEPPER_DRIVERS)
//  207   #define Y_APPLY_DIR(v,Q) do{ Y_DIR_WRITE(v); Y2_DIR_WRITE((v) != INVERT_Y2_VS_Y_DIR); }while(0)
//  208   #if ENABLED(Y_DUAL_ENDSTOPS)
//  209     #define Y_APPLY_STEP(v,Q) DUAL_ENDSTOP_APPLY_STEP(Y,v)
//  210   #else
//  211     #define Y_APPLY_STEP(v,Q) do{ Y_STEP_WRITE(v); Y2_STEP_WRITE(v); }while(0)
//  212   #endif
//  213 #else
//  214   #define Y_APPLY_DIR(v,Q) Y_DIR_WRITE(v)
//  215   #define Y_APPLY_STEP(v,Q) Y_STEP_WRITE(v)
//  216 #endif
//  217 /*
//  218 #if ENABLED(Z_DUAL_STEPPER_DRIVERS)
//  219   #define Z_APPLY_DIR(v,Q) do{ Z_DIR_WRITE(v); Z2_DIR_WRITE(v); }while(0)
//  220   #if ENABLED(Z_DUAL_ENDSTOPS)
//  221     #define Z_APPLY_STEP(v,Q) DUAL_ENDSTOP_APPLY_STEP(Z,v)
//  222   #else
//  223     #define Z_APPLY_STEP(v,Q) do{ Z_STEP_WRITE(v); Z2_STEP_WRITE(v); }while(0)
//  224   #endif
//  225 #else
//  226   #define Z_APPLY_DIR(v,Q) Z_DIR_WRITE(v)
//  227   #define Z_APPLY_STEP(v,Q) Z_STEP_WRITE(v)
//  228 #endif
//  229 */
//  230 
//  231 #define Z_APPLY_DIR(v,Q) do{ Z_DIR_WRITE(v); if(Z_DUAL_STEPPER_DRIVERS==1)Z2_DIR_WRITE(v); }while(0)
//  232 #if 0//ENABLED(Z_DUAL_ENDSTOPS)
//  233   #define Z_APPLY_STEP(v,Q) DUAL_ENDSTOP_APPLY_STEP(Z,v)
//  234 #else
//  235   #define Z_APPLY_STEP(v,Q) if(Z_DUAL_ENDSTOPS==1){DUAL_ENDSTOP_APPLY_STEP(Z,v)}else{do{ Z_STEP_WRITE(v); if(Z_DUAL_STEPPER_DRIVERS==1)Z2_STEP_WRITE(v); }while(0);}
//  236 #endif
//  237 
//  238 
//  239 #if DISABLED(MIXING_EXTRUDER)
//  240   #define E_APPLY_STEP(v,Q) E_STEP_WRITE(v)
//  241 #endif
//  242 
//  243 // intRes = longIn1 * longIn2 >> 24
//  244 // uses:
//  245 // r26 to store 0
//  246 // r27 to store bits 16-23 of the 48bit result. The top bit is used to round the two byte result.
//  247 // note that the lower two bytes and the upper byte of the 48bit result are not calculated.
//  248 // this can cause the result to be out by one as the lower bytes may cause carries into the upper ones.
//  249 // B0 A0 are bits 24-39 and are the returned value
//  250 // C1 B1 A1 is longIn1
//  251 // D2 C2 B2 A2 is longIn2
//  252 //
//  253 #define MultiU24X32toH16(intRes, longIn1, longIn2)  intRes = (uint16_t)((((uint64_t)longIn1 * (uint64_t)longIn2)>> 24)& 0XFFFF);
//  254 /*
//  255 #define MultiU24X32toH16(intRes, longIn1, longIn2) \ 
//  256   asm volatile ( \ 
//  257                  "clr r26 \n\t" \ 
//  258                  "mul %A1, %B2 \n\t" \ 
//  259                  "mov r27, r1 \n\t" \ 
//  260                  "mul %B1, %C2 \n\t" \ 
//  261                  "movw %A0, r0 \n\t" \ 
//  262                  "mul %C1, %C2 \n\t" \ 
//  263                  "add %B0, r0 \n\t" \ 
//  264                  "mul %C1, %B2 \n\t" \ 
//  265                  "add %A0, r0 \n\t" \ 
//  266                  "adc %B0, r1 \n\t" \ 
//  267                  "mul %A1, %C2 \n\t" \ 
//  268                  "add r27, r0 \n\t" \ 
//  269                  "adc %A0, r1 \n\t" \ 
//  270                  "adc %B0, r26 \n\t" \ 
//  271                  "mul %B1, %B2 \n\t" \ 
//  272                  "add r27, r0 \n\t" \ 
//  273                  "adc %A0, r1 \n\t" \ 
//  274                  "adc %B0, r26 \n\t" \ 
//  275                  "mul %C1, %A2 \n\t" \ 
//  276                  "add r27, r0 \n\t" \ 
//  277                  "adc %A0, r1 \n\t" \ 
//  278                  "adc %B0, r26 \n\t" \ 
//  279                  "mul %B1, %A2 \n\t" \ 
//  280                  "add r27, r1 \n\t" \ 
//  281                  "adc %A0, r26 \n\t" \ 
//  282                  "adc %B0, r26 \n\t" \ 
//  283                  "lsr r27 \n\t" \ 
//  284                  "adc %A0, r26 \n\t" \ 
//  285                  "adc %B0, r26 \n\t" \ 
//  286                  "mul %D2, %A1 \n\t" \ 
//  287                  "add %A0, r0 \n\t" \ 
//  288                  "adc %B0, r1 \n\t" \ 
//  289                  "mul %D2, %B1 \n\t" \ 
//  290                  "add %B0, r0 \n\t" \ 
//  291                  "clr r1 \n\t" \ 
//  292                  : \ 
//  293                  "=&r" (intRes) \ 
//  294                  : \ 
//  295                  "d" (longIn1), \ 
//  296                  "d" (longIn2) \ 
//  297                  : \ 
//  298                  "r26" , "r27" \ 
//  299                )
//  300 */
//  301 // Some useful constants
//  302 
//  303 /**
//  304  *         __________________________
//  305  *        /|                        |\     _________________         ^
//  306  *       / |                        | \   /|               |\        |
//  307  *      /  |                        |  \ / |               | \       s
//  308  *     /   |                        |   |  |               |  \      p
//  309  *    /    |                        |   |  |               |   \     e
//  310  *   +-----+------------------------+---+--+---------------+----+    e
//  311  *   |               BLOCK 1            |      BLOCK 2          |    d
//  312  *
//  313  *                           time ----->
//  314  *
//  315  *  The trapezoid is the shape the speed curve over time. It starts at block->initial_rate, accelerates
//  316  *  first block->accelerate_until step_events_completed, then keeps going at constant speed until
//  317  *  step_events_completed reaches block->decelerate_after after which it decelerates until the trapezoid generator is reset.
//  318  *  The slope of acceleration is calculated using v = u + at where t is the accumulated timer values of the steps so far.
//  319  */

        SECTION `.text`:CODE:NOROOT(1)
          CFI Block cfiBlock1 Using cfiCommon0
          CFI Function _ZN7Stepper7wake_upEv
          CFI NoCalls
        THUMB
//  320 void Stepper::wake_up() {
//  321   // TCNT1 = 0;
//  322   ENABLE_STEPPER_DRIVER_INTERRUPT();
_ZN7Stepper7wake_upEv:
        B.N      ?Subroutine0
          CFI EndBlock cfiBlock1
//  323 }
//  324 
//  325 /**
//  326  * Set the stepper direction of each axis
//  327  *
//  328  *   COREXY: X_AXIS=A_AXIS and Y_AXIS=B_AXIS
//  329  *   COREXZ: X_AXIS=A_AXIS and Z_AXIS=C_AXIS
//  330  *   COREYZ: Y_AXIS=B_AXIS and Z_AXIS=C_AXIS
//  331  */

        SECTION `.text`:CODE:NOROOT(1)
          CFI Block cfiBlock2 Using cfiCommon0
          CFI Function _ZN7Stepper14set_directionsEv
        THUMB
//  332 void Stepper::set_directions() {
_ZN7Stepper14set_directionsEv:
        PUSH     {R3-R7,LR}
          CFI R14 Frame(CFA, -4)
          CFI R7 Frame(CFA, -8)
          CFI R6 Frame(CFA, -12)
          CFI R5 Frame(CFA, -16)
          CFI R4 Frame(CFA, -20)
          CFI CFA R13+24
//  333 
//  334   #define SET_STEP_DIR(AXIS) \ 
//  335     if (motor_direction(AXIS ##_AXIS)) { \ 
//  336       AXIS ##_APPLY_DIR(INVERT_## AXIS ##_DIR, false); \ 
//  337       count_direction[AXIS ##_AXIS] = -1; \ 
//  338     } \ 
//  339     else { \ 
//  340       AXIS ##_APPLY_DIR(!INVERT_## AXIS ##_DIR, false); \ 
//  341       count_direction[AXIS ##_AXIS] = 1; \ 
//  342     }
//  343 
//  344   #if HAS_X_DIR
//  345     SET_STEP_DIR(X); // A
        LDR.W    R7,??DataTable19
        LDR.W    R4,??DataTable19_1
        LDR.W    R5,??DataTable19_2
        LDR.W    R6,??DataTable20
        LDRB     R2,[R7, #+5]
        LDR      R0,[R4, #+0]
        LDRH     R1,[R5, #+0]
        LDRB     R3,[R6, #+0]
        LSLS     R2,R2,#+31
        BMI.N    ??set_directions_0
        SUBS     R2,R3,#+1
        SBCS     R2,R2,R2
        LSRS     R2,R2,#+31
        SXTB     R2,R2
          CFI FunCall HAL_GPIO_WritePin
        BL       HAL_GPIO_WritePin
        MOVS     R0,#+1
        B.N      ??set_directions_1
??set_directions_0:
        SXTB     R2,R3
          CFI FunCall HAL_GPIO_WritePin
        BL       HAL_GPIO_WritePin
        MOV      R0,#-1
??set_directions_1:
        STRB     R0,[R7, #+0]
//  346   #endif
//  347   #if HAS_Y_DIR
//  348     SET_STEP_DIR(Y); // B
        LDRB     R2,[R7, #+5]
        LDR      R0,[R4, #+20]
        LDRH     R1,[R5, #+10]
        LDRB     R3,[R6, #+1]
        LSLS     R2,R2,#+30
        BMI.N    ??set_directions_2
        SUBS     R2,R3,#+1
        SBCS     R2,R2,R2
        LSRS     R2,R2,#+31
        SXTB     R2,R2
          CFI FunCall HAL_GPIO_WritePin
        BL       HAL_GPIO_WritePin
        MOVS     R0,#+1
        B.N      ??set_directions_3
??set_directions_2:
        SXTB     R2,R3
          CFI FunCall HAL_GPIO_WritePin
        BL       HAL_GPIO_WritePin
        MOV      R0,#-1
??set_directions_3:
        STRB     R0,[R7, #+1]
//  349   #endif
//  350   #if HAS_Z_DIR
//  351     SET_STEP_DIR(Z); // C
        LDRB     R0,[R7, #+5]
        LSLS     R0,R0,#+29
        BMI.N    ??set_directions_4
        LDRB     R0,[R6, #+2]
        LDRH     R1,[R5, #+20]
        SUBS     R2,R0,#+1
        SBCS     R2,R2,R2
        LSRS     R2,R2,#+31
        LDR      R0,[R4, #+40]
        SXTB     R2,R2
          CFI FunCall HAL_GPIO_WritePin
        BL       HAL_GPIO_WritePin
        LDRB     R0,[R6, #+257]
        CMP      R0,#+1
        BNE.N    ??set_directions_5
        LDRB     R0,[R6, #+2]
        LDRH     R1,[R5, #+36]
        SUBS     R2,R0,#+1
        SBCS     R2,R2,R2
        LSRS     R2,R2,#+31
        LDR      R0,[R4, #+72]
        SXTB     R2,R2
          CFI FunCall HAL_GPIO_WritePin
        BL       HAL_GPIO_WritePin
??set_directions_5:
        MOVS     R0,#+1
??set_directions_6:
        STRB     R0,[R7, #+2]
        LDR      R0,[R7, #+32]
        LDRB     R1,[R7, #+5]
        LDRB     R0,[R0, #+1]
        LSLS     R1,R1,#+28
        BMI.N    ??set_directions_7
//  352   #endif
//  353 
//  354   #if DISABLED(LIN_ADVANCE)
//  355     if (motor_direction(E_AXIS)) {
//  356       REV_E_DIR();
//  357       count_direction[E_AXIS] = -1;
//  358     }
//  359     else {
//  360       NORM_E_DIR();
        CBNZ.N   R0,??set_directions_8
        LDRB     R0,[R6, #+3]
        LDRH     R1,[R5, #+30]
        SUBS     R2,R0,#+1
        SBCS     R2,R2,R2
        LSRS     R2,R2,#+31
        LDR      R0,[R4, #+60]
        SXTB     R2,R2
        B.N      ??set_directions_9
??set_directions_4:
        LDRSB    R2,[R6, #+2]
        LDRH     R1,[R5, #+20]
        LDR      R0,[R4, #+40]
          CFI FunCall HAL_GPIO_WritePin
        BL       HAL_GPIO_WritePin
        LDRB     R0,[R6, #+257]
        CMP      R0,#+1
        BNE.N    ??set_directions_10
        LDRSB    R2,[R6, #+2]
        LDRH     R1,[R5, #+36]
        LDR      R0,[R4, #+72]
          CFI FunCall HAL_GPIO_WritePin
        BL       HAL_GPIO_WritePin
??set_directions_10:
        MOV      R0,#-1
        B.N      ??set_directions_6
??set_directions_7:
        CBNZ.N   R0,??set_directions_11
        LDRSB    R2,[R6, #+3]
        LDRH     R1,[R5, #+30]
        LDR      R0,[R4, #+60]
        B.N      ??set_directions_12
??set_directions_11:
        LDRSB    R2,[R6, #+4]
        LDRH     R1,[R5, #+36]
        LDR      R0,[R4, #+72]
??set_directions_12:
          CFI FunCall HAL_GPIO_WritePin
        BL       HAL_GPIO_WritePin
        MOV      R0,#-1
        B.N      ??set_directions_13
??set_directions_8:
        LDRB     R0,[R6, #+4]
        LDRH     R1,[R5, #+36]
        SUBS     R2,R0,#+1
        SBCS     R2,R2,R2
        LSRS     R2,R2,#+31
        LDR      R0,[R4, #+72]
        SXTB     R2,R2
??set_directions_9:
          CFI FunCall HAL_GPIO_WritePin
        BL       HAL_GPIO_WritePin
//  361       count_direction[E_AXIS] = 1;
        MOVS     R0,#+1
??set_directions_13:
        STRB     R0,[R7, #+3]
//  362     }
//  363   #endif // !LIN_ADVANCE
//  364     //HAL_Delay(2);
//  365 }
        POP      {R0,R4-R7,PC}    ;; return
          CFI EndBlock cfiBlock2
//  366 
//  367 #if ENABLED(ENDSTOP_INTERRUPTS_FEATURE)
//  368   extern volatile uint8_t e_hit;
//  369 #endif
//  370 
//  371 /**
//  372  * Stepper Driver Interrupt
//  373  *
//  374  * Directly pulses the stepper motors at high frequency.
//  375  * Timer 1 runs at a base frequency of 2MHz, with this ISR using OCR1A compare mode.
//  376  *
//  377  * OCR1A   Frequency
//  378  *     1     2 MHz
//  379  *    50    40 KHz
//  380  *   100    20 KHz - capped max rate
//  381  *   200    10 KHz - nominal max rate
//  382  *  2000     1 KHz - sleep rate
//  383  *  4000   500  Hz - init rate
//  384  */
//  385  /*
//  386 ISR(TIMER1_COMPA_vect) {
//  387   #if ENABLED(LIN_ADVANCE)
//  388     Stepper::advance_isr_scheduler();
//  389   #else
//  390     Stepper::isr();
//  391   #endif
//  392 }
//  393 */
//  394 
//  395 //#define _ENABLE_ISRs() do { cli(); if (thermalManager.in_temp_isr) CBI(TIMSK0, OCIE0B); else SBI(TIMSK0, OCIE0B); ENABLE_STEPPER_DRIVER_INTERRUPT(); } while(0)
//  396 #define _ENABLE_ISRs() do { sei(); if (thermalManager.in_temp_isr) HAL_TIM_Base_Stop_IT(&htim4); else HAL_TIM_Base_Start_IT(&htim4); ENABLE_STEPPER_DRIVER_INTERRUPT(); } while(0)
//  397 

        SECTION `.text`:CODE:NOROOT(2)
          CFI Block cfiBlock3 Using cfiCommon0
          CFI Function IsrStepperHandler
          CFI FunCall _ZN7Stepper14StepperHandlerEv
        THUMB
//  398 void IsrStepperHandler() { 
IsrStepperHandler:
        Nop      
        Nop      
          CFI EndBlock cfiBlock3
//  399 #if ENABLED(ADVANCE) || ENABLED(LIN_ADVANCE)
//  400 		Stepper::advance_isr_scheduler();
//  401 #else
//  402 		Stepper::StepperHandler(); 
        REQUIRE _ZN7Stepper14StepperHandlerEv
        ;; // Fall through to label Stepper::StepperHandler()
//  403 #endif
//  404   }
//  405 

        SECTION `.text`:CODE:NOROOT(2)
          CFI Block cfiBlock4 Using cfiCommon0
          CFI Function _ZN7Stepper14StepperHandlerEv
        THUMB
//  406 void Stepper::StepperHandler() {
_ZN7Stepper14StepperHandlerEv:
        PUSH     {R3-R11,LR}
          CFI R14 Frame(CFA, -4)
          CFI R11 Frame(CFA, -8)
          CFI R10 Frame(CFA, -12)
          CFI R9 Frame(CFA, -16)
          CFI R8 Frame(CFA, -20)
          CFI R7 Frame(CFA, -24)
          CFI R6 Frame(CFA, -28)
          CFI R5 Frame(CFA, -32)
          CFI R4 Frame(CFA, -36)
          CFI CFA R13+40
//  407 
//  408 
//  409   uint16_t ocr_val;
//  410 
//  411   #define ENDSTOP_NOMINAL_OCR_VAL 3000 // Check endstops every 1.5ms to guarantee two stepper ISRs within 5ms for BLTouch
//  412   #define OCR_VAL_TOLERANCE       1000 // First max delay is 2.0ms, last min delay is 0.5ms, all others 1.5ms
//  413 
//  414   #if DISABLED(LIN_ADVANCE)
//  415     // Disable Timer0 ISRs and enable global ISR again to capture UART events (incoming chars)
//  416     //CBI(TIMSK0, OCIE0B); // Temperature ISR
//  417     HAL_TIM_Base_Stop_IT(&htim4);		//1?¡À?2a???D???
        LDR.W    R10,??DataTable20_1
        MOV      R0,R10
          CFI FunCall HAL_TIM_Base_Stop_IT
        BL       HAL_TIM_Base_Stop_IT
        LDR.W    R0,??DataTable20_2
//  418     DISABLE_STEPPER_DRIVER_INTERRUPT();
          CFI FunCall HAL_TIM_Base_Stop_IT
        BL       HAL_TIM_Base_Stop_IT
//  419     sei();
//  420   #endif
//  421 
//  422   #define _SPLIT(L) (ocr_val = (uint16_t)L)
//  423   #if ENABLED(ENDSTOP_INTERRUPTS_FEATURE)
//  424 
//  425     #define SPLIT(L) _SPLIT(L)
//  426 
//  427   #else // !ENDSTOP_INTERRUPTS_FEATURE : Sample endstops between stepping ISRs
//  428 
//  429     static uint32_t step_remaining = 0;
//  430 
//  431     #define SPLIT(L) do { \ 
//  432       _SPLIT(L); \ 
//  433       if (ENDSTOPS_ENABLED && L > ENDSTOP_NOMINAL_OCR_VAL) { \ 
//  434         const uint16_t remainder = (uint16_t)L % (ENDSTOP_NOMINAL_OCR_VAL); \ 
//  435         ocr_val = (remainder < OCR_VAL_TOLERANCE) ? ENDSTOP_NOMINAL_OCR_VAL + remainder : ENDSTOP_NOMINAL_OCR_VAL; \ 
//  436         step_remaining = (uint16_t)L - ocr_val; \ 
//  437       } \ 
//  438     }while(0)
//  439 
//  440     if (step_remaining && ENDSTOPS_ENABLED) {   // Just check endstops - not yet time for a step
        LDR.W    R5,??DataTable19
        cpsie i
        LDR      R0,[R5, #+76]
        CBZ.N    R0,??StepperHandler_0
        LDR.W    R0,??DataTable20_3
        LDRB     R0,[R0, #+0]
        CMP      R0,#+0
        ITTT     EQ 
        LDREQ.W  R0,??DataTable20_4
        LDRBEQ   R0,[R0, #+0]
        CMPEQ    R0,#+0
        BEQ.N    ??StepperHandler_0
//  441       endstops.update();
          CFI FunCall _ZN8Endstops6updateEv
        BL       _ZN8Endstops6updateEv
//  442 
//  443       // Next ISR either for endstops or stepping
//  444       ocr_val = step_remaining <= ENDSTOP_NOMINAL_OCR_VAL ? step_remaining : ENDSTOP_NOMINAL_OCR_VAL;
        LDR      R0,[R5, #+76]
        MOVW     R1,#+3001
        CMP      R0,R1
        ITE      CC 
        MOVCC    R1,R0
        MOVWCS   R1,#+3000
//  445       step_remaining -= ocr_val;
        UXTH     R1,R1
        SUBS     R0,R0,R1
        STR      R0,[R5, #+76]
//  446       _NEXT_ISR(ocr_val);
        LDR.W    R0,??DataTable20_2
        LDR      R0,[R0, #+0]
        STR      R1,[R0, #+44]
        LDR      R1,[R0, #+44]
        LDR      R2,[R0, #+36]
        CMP      R1,R2
        BCS.N    ??StepperHandler_1
        LDR      R1,[R0, #+44]
        SUBS     R1,R1,#+1
        STR      R1,[R0, #+36]
//  447       NOLESS(OCR1A, TCNT1 + 16);
??StepperHandler_1:
        LDR      R1,[R0, #+44]
        LDR      R2,[R0, #+36]
        ADDS     R2,R2,#+16
        CMP      R1,R2
        BCS.N    ??StepperHandler_2
        LDR      R1,[R0, #+36]
        ADDS     R1,R1,#+16
        STR      R1,[R0, #+44]
//  448       _ENABLE_ISRs(); // re-enable ISRs
??StepperHandler_2:
        cpsie i
        B.N      ??StepperHandler_3
//  449       return;
//  450     }
//  451 
//  452   #endif // !ENDSTOP_INTERRUPTS_FEATURE
//  453 
//  454   //
//  455   // When cleaning, discard the current block and run fast
//  456   //
//  457   if (cleaning_buffer_counter) {
??StepperHandler_0:
        LDRSH    R2,[R5, #+10]
        CMP      R2,#+0
        BEQ.N    ??StepperHandler_4
//  458     if (cleaning_buffer_counter < 0) {          // Count up for endstop hit
        LDR.W    R0,??DataTable20_5
        LDR.W    R1,??DataTable20_6
        BPL.N    ??StepperHandler_5
//  459       if (current_block) planner.discard_current_block(); // Discard the active block that led to the trigger
        LDR      R2,[R5, #+32]
        CMP      R2,#+0
        ITTT     NE 
        LDRBNE   R2,[R1, #+0]
        LDRBNE   R3,[R0, #+0]
        CMPNE    R2,R3
        BEQ.N    ??StepperHandler_6
        LDRB     R2,[R0, #+0]
        ADDS     R2,R2,#+1
        AND      R2,R2,#0xF
        STRB     R2,[R0, #+0]
//  460       if (!planner.discard_continued_block())   // Discard next CONTINUED block
??StepperHandler_6:
        LDRB     R2,[R1, #+0]
        LDRB     R3,[R0, #+0]
        CMP      R2,R3
        BEQ.N    ??StepperHandler_7
        LDRB     R2,[R0, #+0]
        LDR.W    R6,??DataTable20_7
        MOVS     R3,#+84
        MLA      R2,R3,R2,R6
        LDRB     R2,[R2, #+0]
        LSLS     R2,R2,#+27
        BPL.N    ??StepperHandler_7
        LDRB     R1,[R1, #+0]
        LDRB     R2,[R0, #+0]
        CMP      R1,R2
        BEQ.N    ??StepperHandler_8
        LDRB     R1,[R0, #+0]
        ADDS     R1,R1,#+1
        AND      R1,R1,#0xF
        STRB     R1,[R0, #+0]
        B.N      ??StepperHandler_8
//  461         cleaning_buffer_counter = 0;            // Keep discarding until non-CONTINUED
??StepperHandler_7:
        MOVS     R0,#+0
        STRH     R0,[R5, #+10]
        B.N      ??StepperHandler_8
//  462     }
//  463     else {
//  464       planner.discard_current_block();
??StepperHandler_5:
        LDRB     R1,[R1, #+0]
        LDRB     R3,[R0, #+0]
        CMP      R1,R3
        BEQ.N    ??StepperHandler_9
        LDRB     R1,[R0, #+0]
        ADDS     R1,R1,#+1
        AND      R1,R1,#0xF
        STRB     R1,[R0, #+0]
//  465       --cleaning_buffer_counter;                // Count down for abort print
??StepperHandler_9:
        SUBS     R0,R2,#+1
        STRH     R0,[R5, #+10]
//  466       #if ENABLED(SD_FINISHED_STEPPERRELEASE) && defined(SD_FINISHED_RELEASECOMMAND)
//  467         if (!cleaning_buffer_counter) enqueue_and_echo_commands_P(PSTR(SD_FINISHED_RELEASECOMMAND));
        SXTH     R0,R0
        CBNZ.N   R0,??StepperHandler_8
        ADR.W    R0,`?<Constant "M84 X Y Z E">`
          CFI FunCall _Z27enqueue_and_echo_commands_PPKc
        BL       _Z27enqueue_and_echo_commands_PPKc
//  468       #endif
//  469     }
//  470     current_block = NULL;                       // Prep to get a new block after cleaning
??StepperHandler_8:
        MOVS     R0,#+0
        STR      R0,[R5, #+32]
//  471     _NEXT_ISR(200);                             // Run at max speed - 10 KHz
        MOVS     R1,#+200
        LDR.W    R0,??DataTable20_2
        LDR      R0,[R0, #+0]
        STR      R1,[R0, #+44]
        LDR      R1,[R0, #+44]
        LDR      R2,[R0, #+36]
        CMP      R1,R2
        BCS.N    ??StepperHandler_10
        LDR      R1,[R0, #+44]
        SUBS     R1,R1,#+1
        STR      R1,[R0, #+36]
//  472     _ENABLE_ISRs();
??StepperHandler_10:
        cpsie i
        B.N      ??StepperHandler_3
//  473     return;
//  474   }
//  475 
//  476   // If there is no current block, attempt to pop one from the buffer
//  477   if (!current_block) {
??StepperHandler_4:
        LDR      R0,[R5, #+32]
        CMP      R0,#+0
        BNE.N    ??StepperHandler_11
//  478     // Anything in the buffer?
//  479     if ((current_block = planner.get_current_block())) {
        LDR.W    R0,??DataTable20_6
        LDRB     R1,[R0, #+0]
        LDR.W    R0,??DataTable20_5
        LDRB     R2,[R0, #+0]
        CMP      R1,R2
        IT       EQ 
        MOVEQ    R0,#+0
        BEQ.N    ??StepperHandler_12
        LDRB     R0,[R0, #+0]
        LDR.W    R2,??DataTable20_7
        MOVS     R1,#+84
        MLA      R0,R1,R0,R2
        LDRB     R1,[R0, #+0]
        ORR      R1,R1,#0x8
        STRB     R1,[R0, #+0]
??StepperHandler_12:
        STR      R0,[R5, #+32]
        CMP      R0,#+0
        BEQ.N    ??StepperHandler_13
//  480       trapezoid_generator_reset();
        LDRB     R1,[R0, #+36]
        LDRB     R3,[R5, #+5]
        LDR.W    R2,??DataTable20_12
        CMP      R1,R3
        ITTT     EQ 
        LDRBEQ   R3,[R0, #+1]
        LDRSBEQ  R6,[R2, #+0]
        CMPEQ    R3,R6
        BEQ.N    ??StepperHandler_14
        STRB     R1,[R5, #+5]
        LDRSB    R0,[R0, #+1]
        STRB     R0,[R2, #+0]
          CFI FunCall _ZN7Stepper14set_directionsEv
        BL       _ZN7Stepper14set_directionsEv
??StepperHandler_14:
        MOVS     R0,#+0
        LDR      R6,[R5, #+32]
        STR      R0,[R5, #+60]
        LDR      R0,[R6, #+60]
        UXTH     R0,R0
          CFI FunCall _ZN7Stepper19calc_timer_intervalEt
        BL       _ZN7Stepper19calc_timer_intervalEt
        STRH     R0,[R5, #+12]
        LDRB     R0,[R5, #+8]
        STRB     R0,[R5, #+9]
        LDR      R0,[R6, #+64]
        STRH     R0,[R5, #+14]
        LDRH     R0,[R5, #+14]
          CFI FunCall _ZN7Stepper19calc_timer_intervalEt
        BL       _ZN7Stepper19calc_timer_intervalEt
        STR      R0,[R5, #+56]
        LDR.W    R0,??DataTable20_2
        LDR      R0,[R0, #+0]
        LDR      R1,[R5, #+56]
        STR      R1,[R0, #+44]
        LDR      R1,[R0, #+44]
        LDR      R2,[R0, #+36]
        CMP      R1,R2
        BCS.N    ??StepperHandler_15
        LDR      R1,[R0, #+44]
        SUBS     R1,R1,#+1
        STR      R1,[R0, #+36]
//  481 
//  482       // Initialize Bresenham counters to 1/2 the ceiling
//  483       counter_X = counter_Y = counter_Z = counter_E = -(current_block->step_event_count >> 1);
??StepperHandler_15:
        LDR      R0,[R6, #+20]
        LSRS     R0,R0,#+1
        RSBS     R0,R0,#+0
        STR      R0,[R5, #+48]
        STR      R0,[R5, #+44]
        STR      R0,[R5, #+40]
        STR      R0,[R5, #+36]
//  484 
//  485       #if ENABLED(MIXING_EXTRUDER)
//  486         MIXING_STEPPERS_LOOP(i)
//  487           counter_m[i] = -(current_block->mix_event_count[i] >> 1);
//  488       #endif
//  489 
//  490       step_events_completed = 0;
        MOVS     R0,#+0
        STR      R0,[R5, #+52]
??StepperHandler_11:
        LDR.W    R0,??DataTable20_3
        LDRB     R0,[R0, #+0]
        CMP      R0,#+0
        ITTTE    EQ 
        LDREQ.W  R0,??DataTable20_4
        LDRBEQ   R0,[R0, #+0]
        CMPEQ    R0,#+0
//  491 
//  492       #if ENABLED(ENDSTOP_INTERRUPTS_FEATURE)
//  493         e_hit = 2; // Needed for the case an endstop is already triggered before the new move begins.
//  494                    // No 'change' can be detected.
//  495       #endif
//  496 
//  497       #if ENABLED(Z_LATE_ENABLE)
//  498         if (current_block->steps[Z_AXIS] > 0) {
//  499           enable_Z();
//  500           _NEXT_ISR(2000); // Run at slow speed - 1 KHz
//  501           _ENABLE_ISRs(); // re-enable ISRs
//  502           return;
//  503         }
//  504       #endif
//  505     }
//  506     else {
//  507       _NEXT_ISR(2000); // Run at slow speed - 1 KHz
//  508       _ENABLE_ISRs(); // re-enable ISRs
//  509       return;
//  510     }
//  511   }
//  512 
//  513   // Update endstops state, if enabled
//  514   #if ENABLED(ENDSTOP_INTERRUPTS_FEATURE)
//  515     if (e_hit && ENDSTOPS_ENABLED) {
//  516       endstops.update();
//  517       e_hit--;
//  518     }
//  519   #else
//  520     if (ENDSTOPS_ENABLED) endstops.update();
          CFI FunCall _ZN8Endstops6updateEv
        BLNE     _ZN8Endstops6updateEv
//  521   #endif
//  522 
//  523   // Take multiple steps per interrupt (For high speed moves)
//  524   bool all_steps_done = false;
//  525   for (uint8_t i = step_loops; i--;) {
        LDRB     R11,[R5, #+8]
        LDR.W    R8,??DataTable20_13
        LDR.W    R9,??DataTable20_14
        LDR.W    R4,??DataTable19_1
        LDR.W    R7,??DataTable19_2
        MOVS     R6,#+0
??StepperHandler_16:
        UXTB     R0,R11
        CMP      R0,#+0
        BEQ.W    ??StepperHandler_17
//  526     #if ENABLED(LIN_ADVANCE)
//  527 
//  528       counter_E += current_block->steps[E_AXIS];
//  529       if (counter_E > 0) {
//  530         counter_E -= current_block->step_event_count;
//  531         #if DISABLED(MIXING_EXTRUDER)
//  532           // Don't step E here for mixing extruder
//  533           count_position[E_AXIS] += count_direction[E_AXIS];
//  534           motor_direction(E_AXIS) ? --e_steps[TOOL_E_INDEX] : ++e_steps[TOOL_E_INDEX];
//  535         #endif
//  536       }
//  537 
//  538       #if ENABLED(MIXING_EXTRUDER)
//  539         // Step mixing steppers proportionally
//  540         const bool dir = motor_direction(E_AXIS);
//  541         MIXING_STEPPERS_LOOP(j) {
//  542           counter_m[j] += current_block->steps[E_AXIS];
//  543           if (counter_m[j] > 0) {
//  544             counter_m[j] -= current_block->mix_event_count[j];
//  545             dir ? --e_steps[j] : ++e_steps[j];
//  546           }
//  547         }
//  548       #endif
//  549 
//  550     #endif // LIN_ADVANCE
//  551 
//  552     #define _COUNTER(AXIS) counter_## AXIS          
//  553     #define _APPLY_STEP(AXIS) AXIS ##_APPLY_STEP    
//  554     #define _INVERT_STEP_PIN(AXIS) INVERT_## AXIS ##_STEP_PIN 
//  555 
//  556     // Advance the Bresenham counter; start a pulse if the axis needs a step
//  557     #define PULSE_START(AXIS) \ 
//  558       _COUNTER(AXIS) += current_block->steps[_AXIS(AXIS)]; \ 
//  559       if (_COUNTER(AXIS) > 0) { _APPLY_STEP(AXIS)(!_INVERT_STEP_PIN(AXIS),0); for(volatile int i_axis=0;i_axis<gCfgItems.pulseDelay;i_axis++);}
//  560 
//  561     // Stop an active pulse, reset the Bresenham counter, update the position
//  562     #define PULSE_STOP(AXIS) \ 
//  563       if (_COUNTER(AXIS) > 0) { \ 
//  564         _COUNTER(AXIS) -= current_block->step_event_count; \ 
//  565         count_position[_AXIS(AXIS)] += count_direction[_AXIS(AXIS)]; \ 
//  566         _APPLY_STEP(AXIS)(_INVERT_STEP_PIN(AXIS),0); for(volatile int i_axis=0;i_axis<gCfgItems.pulseDelay;i_axis++);\ 
//  567       }
//  568 
//  569     // Advance the Bresenham counter; start a pulse if the axis needs a step
//  570     #define Z_PULSE_START(AXIS) \ 
//  571       _COUNTER(AXIS) += current_block->steps[_AXIS(AXIS)]; \ 
//  572       if (_COUNTER(AXIS) > 0) { Z_APPLY_STEP(!_INVERT_STEP_PIN(AXIS),0);for(volatile int iz_axis=0;iz_axis<gCfgItems.pulseDelay;iz_axis++);}
//  573 
//  574     // Stop an active pulse, reset the Bresenham counter, update the position
//  575     #define Z_PULSE_STOP(AXIS) \ 
//  576       if (_COUNTER(AXIS) > 0) { \ 
//  577         _COUNTER(AXIS) -= current_block->step_event_count; \ 
//  578         count_position[_AXIS(AXIS)] += count_direction[_AXIS(AXIS)]; \ 
//  579         Z_APPLY_STEP(_INVERT_STEP_PIN(AXIS),0); for(volatile int i_axis=0;i_axis<gCfgItems.pulseDelay;i_axis++);\ 
//  580       }
//  581 
//  582     /**
//  583      * Estimate the number of cycles that the stepper logic already takes
//  584      * up between the start and stop of the X stepper pulse.
//  585      *
//  586      * Currently this uses very modest estimates of around 5 cycles.
//  587      * True values may be derived by careful testing.
//  588      *
//  589      * Once any delay is added, the cost of the delay code itself
//  590      * may be subtracted from this value to get a more accurate delay.
//  591      * Delays under 20 cycles (1.25Âµs) will be very accurate, using NOPs.
//  592      * Longer delays use a loop. The resolution is 8 cycles.
//  593      */
//  594 #if 0     
//  595     #if HAS_X_STEP
//  596       #define _CYCLE_APPROX_1 5
//  597     #else
//  598       #define _CYCLE_APPROX_1 0
//  599     #endif
//  600     #if ENABLED(X_DUAL_STEPPER_DRIVERS)
//  601       #define _CYCLE_APPROX_2 _CYCLE_APPROX_1 + 4
//  602     #else
//  603       #define _CYCLE_APPROX_2 _CYCLE_APPROX_1
//  604     #endif
//  605     #if HAS_Y_STEP
//  606       #define _CYCLE_APPROX_3 _CYCLE_APPROX_2 + 5
//  607     #else
//  608       #define _CYCLE_APPROX_3 _CYCLE_APPROX_2
//  609     #endif
//  610     #if ENABLED(Y_DUAL_STEPPER_DRIVERS)
//  611       #define _CYCLE_APPROX_4 _CYCLE_APPROX_3 + 4
//  612     #else
//  613       #define _CYCLE_APPROX_4 _CYCLE_APPROX_3
//  614     #endif
//  615     #if HAS_Z_STEP
//  616       #define _CYCLE_APPROX_5 _CYCLE_APPROX_4 + 5
//  617     #else
//  618       #define _CYCLE_APPROX_5 _CYCLE_APPROX_4
//  619     #endif
//  620     #if ENABLED(Z_DUAL_STEPPER_DRIVERS)
//  621       #define _CYCLE_APPROX_6 _CYCLE_APPROX_5 + 4
//  622     #else
//  623       #define _CYCLE_APPROX_6 _CYCLE_APPROX_5
//  624     #endif
//  625     #if DISABLED(LIN_ADVANCE)
//  626       #if ENABLED(MIXING_EXTRUDER)
//  627         #define _CYCLE_APPROX_7 _CYCLE_APPROX_6 + (MIXING_STEPPERS) * 6
//  628       #else
//  629         #define _CYCLE_APPROX_7 _CYCLE_APPROX_6 + 5
//  630       #endif
//  631     #else
//  632       #define _CYCLE_APPROX_7 _CYCLE_APPROX_6
//  633     #endif
//  634 
//  635     #define CYCLES_EATEN_XYZE _CYCLE_APPROX_7
//  636     #define EXTRA_CYCLES_XYZE (STEP_PULSE_CYCLES - (CYCLES_EATEN_XYZE))
//  637 #endif
//  638 
//  639     #define EXTRA_CYCLES_XYZE (0)
//  640 
//  641     /**
//  642      * If a minimum pulse time was specified get the timer 0 value.
//  643      *
//  644      * TCNT0 has an 8x prescaler, so it increments every 8 cycles.
//  645      * That's every 0.5Âµs on 16MHz and every 0.4Âµs on 20MHz.
//  646      * 20 counts of TCNT0 -by itself- is a good pulse delay.
//  647      * 10Âµs = 160 or 200 cycles.
//  648      */
//  649     #if EXTRA_CYCLES_XYZE > 20
//  650       uint32_t pulse_start = TCNT0;
//  651     #endif
//  652 
//  653     #if HAS_X_STEP
//  654       PULSE_START(X);
        LDR      R1,[R5, #+32]
        LDR      R1,[R1, #+4]
        SUB      R11,R0,#+1
        LDR      R0,[R5, #+36]
        ADDS     R0,R1,R0
        STR      R0,[R5, #+36]
        CMP      R0,#+1
        BLT.N    ??StepperHandler_18
        LDRH     R1,[R7, #+2]
        LDR      R0,[R4, #+4]
        MOVS     R2,#+1
          CFI FunCall HAL_GPIO_WritePin
        BL       HAL_GPIO_WritePin
        STR      R6,[SP, #+0]
        B.N      ??StepperHandler_19
??StepperHandler_13:
        LDR.W    R0,??DataTable20_2
        LDR      R0,[R0, #+0]
        MOV      R1,#+2000
        STR      R1,[R0, #+44]
        LDR      R1,[R0, #+44]
        LDR      R2,[R0, #+36]
        CMP      R1,R2
        BCS.N    ??StepperHandler_20
        LDR      R1,[R0, #+44]
        SUBS     R1,R1,#+1
        STR      R1,[R0, #+36]
??StepperHandler_20:
        cpsie i
        B.N      ??StepperHandler_3
??StepperHandler_21:
        LDR      R0,[SP, #+0]
        ADDS     R0,R0,#+1
        STR      R0,[SP, #+0]
??StepperHandler_19:
        LDR      R0,[SP, #+0]
        LDRH     R1,[R9, #+700]
        CMP      R0,R1
        BLT.N    ??StepperHandler_21
//  655     #endif
//  656     #if HAS_Y_STEP
//  657       PULSE_START(Y);
??StepperHandler_18:
        LDR      R1,[R5, #+32]
        LDR      R0,[R5, #+40]
        LDR      R1,[R1, #+8]
        ADDS     R0,R1,R0
        STR      R0,[R5, #+40]
        CMP      R0,#+1
        BLT.N    ??StepperHandler_22
        LDRH     R1,[R7, #+12]
        LDR      R0,[R4, #+24]
        MOVS     R2,#+1
          CFI FunCall HAL_GPIO_WritePin
        BL       HAL_GPIO_WritePin
        STR      R6,[SP, #+0]
        B.N      ??StepperHandler_23
??StepperHandler_24:
        LDR      R0,[SP, #+0]
        ADDS     R0,R0,#+1
        STR      R0,[SP, #+0]
??StepperHandler_23:
        LDR      R0,[SP, #+0]
        LDRH     R1,[R9, #+700]
        CMP      R0,R1
        BLT.N    ??StepperHandler_24
//  658     #endif
//  659     #if HAS_Z_STEP
//  660       Z_PULSE_START(Z);
??StepperHandler_22:
        LDR      R1,[R5, #+32]
        LDR      R0,[R5, #+44]
        LDR      R1,[R1, #+12]
        ADDS     R0,R1,R0
        STR      R0,[R5, #+44]
        CMP      R0,#+1
        BLT.N    ??StepperHandler_25
        LDR.W    R0,??DataTable20_15
        LDRB     R0,[R0, #+1]
        CMP      R0,#+1
        BNE.N    ??StepperHandler_26
        LDRB     R0,[R5, #+4]
        CBZ.N    R0,??StepperHandler_27
        LDR.W    R0,??DataTable20
        LDRSB    R0,[R0, #+7]
        CMP      R0,#+0
        LDRB     R0,[R8, #+0]
        BPL.N    ??StepperHandler_28
        LSLS     R0,R0,#+29
        ITT      MI 
        LDRSBMI  R0,[R5, #+2]
        CMPMI    R0,#+0
        BMI.N    ??StepperHandler_29
        LDRB     R0,[R5, #+6]
        CBNZ.N   R0,??StepperHandler_29
        LDRH     R1,[R7, #+22]
        LDR      R0,[R4, #+44]
        MOVS     R2,#+1
          CFI FunCall HAL_GPIO_WritePin
        BL       HAL_GPIO_WritePin
??StepperHandler_29:
        LDRH     R0,[R8, #+0]
        LSLS     R0,R0,#+20
        BPL.N    ??StepperHandler_30
        LDRSB    R0,[R5, #+2]
        CMP      R0,#+0
        BMI.N    ??StepperHandler_31
        B.N      ??StepperHandler_30
??StepperHandler_28:
        LSLS     R0,R0,#+25
        BPL.N    ??StepperHandler_32
        LDRSB    R0,[R5, #+2]
        CMP      R0,#+1
        BGE.N    ??StepperHandler_33
??StepperHandler_32:
        LDRB     R0,[R5, #+6]
        CBNZ.N   R0,??StepperHandler_33
        LDRH     R1,[R7, #+22]
        LDR      R0,[R4, #+44]
        MOVS     R2,#+1
          CFI FunCall HAL_GPIO_WritePin
        BL       HAL_GPIO_WritePin
??StepperHandler_33:
        LDRH     R0,[R8, #+0]
        LSLS     R0,R0,#+19
        BPL.N    ??StepperHandler_30
        LDRSB    R0,[R5, #+2]
        CMP      R0,#+1
        BGE.N    ??StepperHandler_31
??StepperHandler_30:
        LDRB     R0,[R5, #+7]
        CBNZ.N   R0,??StepperHandler_31
        B.N      ??StepperHandler_34
??StepperHandler_27:
        LDRH     R1,[R7, #+22]
        LDR      R0,[R4, #+44]
        MOVS     R2,#+1
          CFI FunCall HAL_GPIO_WritePin
        BL       HAL_GPIO_WritePin
        B.N      ??StepperHandler_34
??StepperHandler_26:
        LDRH     R1,[R7, #+22]
        LDR      R0,[R4, #+44]
        MOVS     R2,#+1
          CFI FunCall HAL_GPIO_WritePin
        BL       HAL_GPIO_WritePin
        LDR.W    R0,??DataTable20
        LDRB     R0,[R0, #+257]
        CMP      R0,#+1
        BNE.N    ??StepperHandler_31
??StepperHandler_34:
        LDRH     R1,[R7, #+38]
        LDR      R0,[R4, #+76]
        MOVS     R2,#+1
          CFI FunCall HAL_GPIO_WritePin
        BL       HAL_GPIO_WritePin
??StepperHandler_31:
        STR      R6,[SP, #+0]
        B.N      ??StepperHandler_35
??StepperHandler_36:
        LDR      R0,[SP, #+0]
        ADDS     R0,R0,#+1
        STR      R0,[SP, #+0]
??StepperHandler_35:
        LDR      R0,[SP, #+0]
        LDRH     R1,[R9, #+700]
        CMP      R0,R1
        BLT.N    ??StepperHandler_36
//  661     #endif
//  662 
//  663     // For non-advance use linear interpolation for E also
//  664     #if DISABLED(LIN_ADVANCE)
//  665       #if ENABLED(MIXING_EXTRUDER)
//  666         // Keep updating the single E axis
//  667         counter_E += current_block->steps[E_AXIS];
//  668         // Tick the counters used for this mix
//  669         MIXING_STEPPERS_LOOP(j) {
//  670           // Step mixing steppers (proportionally)
//  671           counter_m[j] += current_block->steps[E_AXIS];
//  672           // Step when the counter goes over zero
//  673           if (counter_m[j] > 0) En_STEP_WRITE(j, !INVERT_E_STEP_PIN);
//  674         }
//  675       #else // !MIXING_EXTRUDER
//  676         PULSE_START(E);
??StepperHandler_25:
        LDR      R0,[R5, #+32]
        LDR      R1,[R5, #+48]
        LDR      R2,[R0, #+16]
        ADDS     R1,R2,R1
        STR      R1,[R5, #+48]
        CMP      R1,#+1
        BLT.N    ??StepperHandler_37
        LDRB     R0,[R0, #+1]
        CBNZ.N   R0,??StepperHandler_38
        LDRH     R1,[R7, #+32]
        LDR      R0,[R4, #+64]
        MOVS     R2,#+1
        B.N      ??StepperHandler_39
??StepperHandler_38:
        LDRH     R1,[R7, #+38]
        LDR      R0,[R4, #+76]
        MOVS     R2,#+1
??StepperHandler_39:
          CFI FunCall HAL_GPIO_WritePin
        BL       HAL_GPIO_WritePin
        STR      R6,[SP, #+0]
        B.N      ??StepperHandler_40
??StepperHandler_41:
        LDR      R0,[SP, #+0]
        ADDS     R0,R0,#+1
        STR      R0,[SP, #+0]
??StepperHandler_40:
        LDR      R0,[SP, #+0]
        LDRH     R1,[R9, #+700]
        CMP      R0,R1
        BLT.N    ??StepperHandler_41
//  677       #endif
//  678     #endif // !LIN_ADVANCE
//  679 
//  680     // For minimum pulse time wait before stopping pulses
//  681     #if EXTRA_CYCLES_XYZE > 20
//  682       while (EXTRA_CYCLES_XYZE > (uint32_t)(TCNT0 - pulse_start) * (INT0_PRESCALER)) { /* nada */ }
//  683       pulse_start = TCNT0;
//  684     #elif EXTRA_CYCLES_XYZE > 0
//  685       DELAY_NOPS(EXTRA_CYCLES_XYZE);
//  686     #endif
//  687 
//  688     #if HAS_X_STEP
//  689       PULSE_STOP(X);
??StepperHandler_37:
        LDR      R0,[R5, #+36]
        CMP      R0,#+1
        BLT.N    ??StepperHandler_42
        LDR      R1,[R5, #+32]
        LDR      R1,[R1, #+20]
        SUBS     R0,R0,R1
        STR      R0,[R5, #+36]
        MOVS     R2,#+0
        LDRSB    R0,[R5, R6]
        LDR      R1,[R5, #+16]
        ADDS     R0,R0,R1
        STR      R0,[R5, #+16]
        LDRH     R1,[R7, #+2]
        LDR      R0,[R4, #+4]
          CFI FunCall HAL_GPIO_WritePin
        BL       HAL_GPIO_WritePin
        STR      R6,[SP, #+0]
        B.N      ??StepperHandler_43
??StepperHandler_44:
        LDR      R0,[SP, #+0]
        ADDS     R0,R0,#+1
        STR      R0,[SP, #+0]
??StepperHandler_43:
        LDR      R0,[SP, #+0]
        LDRH     R1,[R9, #+700]
        CMP      R0,R1
        BLT.N    ??StepperHandler_44
//  690     #endif
//  691     #if HAS_Y_STEP
//  692       PULSE_STOP(Y);
??StepperHandler_42:
        LDR      R0,[R5, #+40]
        CMP      R0,#+1
        BLT.N    ??StepperHandler_45
        LDR      R1,[R5, #+32]
        LDR      R1,[R1, #+20]
        SUBS     R0,R0,R1
        STR      R0,[R5, #+40]
        MOVS     R2,#+0
        LDRSB    R0,[R5, #+1]
        LDR      R1,[R5, #+20]
        ADDS     R0,R0,R1
        STR      R0,[R5, #+20]
        LDRH     R1,[R7, #+12]
        LDR      R0,[R4, #+24]
          CFI FunCall HAL_GPIO_WritePin
        BL       HAL_GPIO_WritePin
        STR      R6,[SP, #+0]
        B.N      ??StepperHandler_46
??StepperHandler_47:
        LDR      R0,[SP, #+0]
        ADDS     R0,R0,#+1
        STR      R0,[SP, #+0]
??StepperHandler_46:
        LDR      R0,[SP, #+0]
        LDRH     R1,[R9, #+700]
        CMP      R0,R1
        BLT.N    ??StepperHandler_47
//  693     #endif
//  694     #if HAS_Z_STEP
//  695       Z_PULSE_STOP(Z);
??StepperHandler_45:
        LDR      R0,[R5, #+44]
        CMP      R0,#+1
        BLT.N    ??StepperHandler_48
        LDR      R1,[R5, #+32]
        LDR      R1,[R1, #+20]
        SUBS     R0,R0,R1
        STR      R0,[R5, #+44]
        LDRSB    R0,[R5, #+2]
        LDR      R1,[R5, #+24]
        ADDS     R0,R0,R1
        STR      R0,[R5, #+24]
        LDR.W    R0,??DataTable20_15
        LDRB     R0,[R0, #+1]
        CMP      R0,#+1
        BNE.N    ??StepperHandler_49
        LDRB     R0,[R5, #+4]
        CBZ.N    R0,??StepperHandler_50
        LDR.W    R0,??DataTable20
        LDRSB    R0,[R0, #+7]
        CMP      R0,#+0
        LDRB     R0,[R8, #+0]
        BPL.N    ??StepperHandler_51
        LSLS     R0,R0,#+29
        ITT      MI 
        LDRSBMI  R0,[R5, #+2]
        CMPMI    R0,#+0
        BMI.N    ??StepperHandler_52
        LDRB     R0,[R5, #+6]
        CBNZ.N   R0,??StepperHandler_52
        LDRH     R1,[R7, #+22]
        LDR      R0,[R4, #+44]
        MOVS     R2,#+0
          CFI FunCall HAL_GPIO_WritePin
        BL       HAL_GPIO_WritePin
??StepperHandler_52:
        LDRH     R0,[R8, #+0]
        LSLS     R0,R0,#+20
        BPL.N    ??StepperHandler_53
        LDRSB    R0,[R5, #+2]
        CMP      R0,#+0
        BMI.N    ??StepperHandler_54
        B.N      ??StepperHandler_53
??StepperHandler_51:
        LSLS     R0,R0,#+25
        BPL.N    ??StepperHandler_55
        LDRSB    R0,[R5, #+2]
        CMP      R0,#+1
        BGE.N    ??StepperHandler_56
??StepperHandler_55:
        LDRB     R0,[R5, #+6]
        CBNZ.N   R0,??StepperHandler_56
        LDRH     R1,[R7, #+22]
        LDR      R0,[R4, #+44]
        MOVS     R2,#+0
          CFI FunCall HAL_GPIO_WritePin
        BL       HAL_GPIO_WritePin
??StepperHandler_56:
        LDRH     R0,[R8, #+0]
        LSLS     R0,R0,#+19
        BPL.N    ??StepperHandler_53
        LDRSB    R0,[R5, #+2]
        CMP      R0,#+1
        BGE.N    ??StepperHandler_54
??StepperHandler_53:
        LDRB     R0,[R5, #+7]
        CBNZ.N   R0,??StepperHandler_54
        B.N      ??StepperHandler_57
??StepperHandler_50:
        LDRH     R1,[R7, #+22]
        LDR      R0,[R4, #+44]
        MOVS     R2,#+0
          CFI FunCall HAL_GPIO_WritePin
        BL       HAL_GPIO_WritePin
        B.N      ??StepperHandler_57
??StepperHandler_49:
        LDRH     R1,[R7, #+22]
        LDR      R0,[R4, #+44]
        MOVS     R2,#+0
          CFI FunCall HAL_GPIO_WritePin
        BL       HAL_GPIO_WritePin
        LDR.W    R0,??DataTable20
        LDRB     R0,[R0, #+257]
        CMP      R0,#+1
        BNE.N    ??StepperHandler_54
??StepperHandler_57:
        LDRH     R1,[R7, #+38]
        LDR      R0,[R4, #+76]
        MOVS     R2,#+0
          CFI FunCall HAL_GPIO_WritePin
        BL       HAL_GPIO_WritePin
??StepperHandler_54:
        STR      R6,[SP, #+0]
        B.N      ??StepperHandler_58
??StepperHandler_59:
        LDR      R0,[SP, #+0]
        ADDS     R0,R0,#+1
        STR      R0,[SP, #+0]
??StepperHandler_58:
        LDR      R0,[SP, #+0]
        LDRH     R1,[R9, #+700]
        CMP      R0,R1
        BLT.N    ??StepperHandler_59
//  696     #endif
//  697 
//  698     #if DISABLED(LIN_ADVANCE)
//  699       #if ENABLED(MIXING_EXTRUDER)
//  700         // Always step the single E axis
//  701         if (counter_E > 0) {
//  702           counter_E -= current_block->step_event_count;
//  703           count_position[E_AXIS] += count_direction[E_AXIS];
//  704         }
//  705         MIXING_STEPPERS_LOOP(j) {
//  706           if (counter_m[j] > 0) {
//  707             counter_m[j] -= current_block->mix_event_count[j];
//  708             En_STEP_WRITE(j, INVERT_E_STEP_PIN);
//  709           }
//  710         }
//  711       #else // !MIXING_EXTRUDER
//  712         PULSE_STOP(E);
??StepperHandler_48:
        LDR      R1,[R5, #+48]
        CMP      R1,#+1
        BLT.N    ??StepperHandler_60
        LDR      R0,[R5, #+32]
        LDR      R2,[R0, #+20]
        SUBS     R1,R1,R2
        STR      R1,[R5, #+48]
        LDRSB    R1,[R5, #+3]
        LDR      R2,[R5, #+28]
        ADDS     R1,R1,R2
        STR      R1,[R5, #+28]
        MOV      R2,R6
        LDRB     R0,[R0, #+1]
        CMP      R0,#+0
        ITTEE    EQ 
        LDRHEQ   R1,[R7, #+32]
        LDREQ    R0,[R4, #+64]
        LDRHNE   R1,[R7, #+38]
        LDRNE    R0,[R4, #+76]
          CFI FunCall HAL_GPIO_WritePin
        BL       HAL_GPIO_WritePin
        STR      R6,[SP, #+0]
        B.N      ??StepperHandler_61
??StepperHandler_62:
        LDR      R0,[SP, #+0]
        ADDS     R0,R0,#+1
        STR      R0,[SP, #+0]
??StepperHandler_61:
        LDR      R0,[SP, #+0]
        LDRH     R1,[R9, #+700]
        CMP      R0,R1
        BLT.N    ??StepperHandler_62
//  713       #endif
//  714     #endif // !LIN_ADVANCE
//  715 
//  716     if (++step_events_completed >= current_block->step_event_count) {
??StepperHandler_60:
        LDR      R0,[R5, #+52]
        ADDS     R0,R0,#+1
        STR      R0,[R5, #+52]
        LDR      R1,[R5, #+32]
        LDR      R1,[R1, #+20]
        CMP      R0,R1
        BCC.W    ??StepperHandler_16
//  717       all_steps_done = true;
        MOVS     R6,#+1
//  718       break;
//  719     }
//  720 
//  721     // For minimum pulse time wait after stopping pulses also
//  722     #if EXTRA_CYCLES_XYZE > 20
//  723       if (i) while (EXTRA_CYCLES_XYZE > (uint32_t)(TCNT0 - pulse_start) * (INT0_PRESCALER)) { /* nada */ }
//  724     #elif EXTRA_CYCLES_XYZE > 0
//  725       if (i) DELAY_NOPS(EXTRA_CYCLES_XYZE);
//  726     #endif
//  727 
//  728   } // steps_loop
//  729 
//  730   #if ENABLED(LIN_ADVANCE)
//  731 
//  732     if (current_block->use_advance_lead) {
//  733       const int delta_adv_steps = current_estep_rate[TOOL_E_INDEX] - current_adv_steps[TOOL_E_INDEX];
//  734       current_adv_steps[TOOL_E_INDEX] += delta_adv_steps;
//  735       #if ENABLED(MIXING_EXTRUDER)
//  736         // Mixing extruders apply advance lead proportionally
//  737         MIXING_STEPPERS_LOOP(j)
//  738           e_steps[j] += delta_adv_steps * current_block->step_event_count / current_block->mix_event_count[j];
//  739       #else
//  740         // For most extruders, advance the single E stepper
//  741         e_steps[TOOL_E_INDEX] += delta_adv_steps;
//  742       #endif
//  743     }
//  744     // If we have esteps to execute, fire the next advance_isr "now"
//  745     if (e_steps[TOOL_E_INDEX]) nextAdvanceISR = 0;
//  746 
//  747   #endif // LIN_ADVANCE
//  748 
//  749   // Calculate new timer value
//  750   if (step_events_completed <= (uint32_t)current_block->accelerate_until) {
??StepperHandler_17:
        LDR      R2,[R5, #+32]
        LDR      R0,[R2, #+24]
        LDR      R1,[R5, #+52]
        CMP      R0,R1
        BCC.N    ??StepperHandler_63
//  751 
//  752     MultiU24X32toH16(acc_step_rate, acceleration_time, current_block->acceleration_rate);
//  753     acc_step_rate += current_block->initial_rate;
        LDR      R11,[R5, #+56]
        LDR      R0,[R2, #+32]
        SMULL    R0,R1,R0,R11
        LSRS     R0,R0,#+24
        ORR      R0,R0,R1, LSL #+8
        LDR      R1,[R2, #+64]
        ADDS     R0,R1,R0
//  754 
//  755     // upper limit
//  756     NOMORE(acc_step_rate, current_block->nominal_rate);
        LDR      R1,[R2, #+60]
        UXTH     R0,R0
        CMP      R1,R0
        IT       CC 
        MOVCC    R0,R1
        STRH     R0,[R5, #+14]
//  757 
//  758     // step_rate to timer interval
//  759     const uint16_t interval = calc_timer_interval(acc_step_rate);
        LDRH     R0,[R5, #+14]
          CFI FunCall _ZN7Stepper19calc_timer_intervalEt
        BL       _ZN7Stepper19calc_timer_intervalEt
//  760 
//  761     SPLIT(interval);  // split step into multiple ISRs if larger than ENDSTOP_NOMINAL_OCR_VAL
        LDR.W    R2,??DataTable20_3
        LDRB     R2,[R2, #+0]
        MOV      R1,R0
        CMP      R2,#+0
        ITTT     EQ 
        LDREQ.W  R2,??DataTable20_4
        LDRBEQ   R2,[R2, #+0]
        CMPEQ    R2,#+0
        BEQ.N    ??StepperHandler_64
        MOVW     R2,#+3001
        CMP      R0,R2
        BLT.N    ??StepperHandler_64
        MOVW     R1,#+3000
        MOV      R2,R1
        SDIV     R2,R0,R2
        MLS      R2,R1,R2,R0
        UXTH     R2,R2
        CMP      R2,#+1000
        IT       LT 
        ADDWLT   R1,R2,#+3000
        UXTH     R1,R1
        SUBS     R2,R0,R1
        STR      R2,[R5, #+76]
//  762     _NEXT_ISR(ocr_val);
??StepperHandler_64:
        LDR.W    R2,??DataTable20_2
        LDR      R2,[R2, #+0]
        STR      R1,[R2, #+44]
        LDR      R1,[R2, #+44]
        LDR      R3,[R2, #+36]
        CMP      R1,R3
        BCS.N    ??StepperHandler_65
        LDR      R1,[R2, #+44]
        SUBS     R1,R1,#+1
        STR      R1,[R2, #+36]
//  763 
//  764     acceleration_time += interval;
??StepperHandler_65:
        ADD      R0,R0,R11
        STR      R0,[R5, #+56]
        B.N      ??StepperHandler_66
//  765 
//  766     #if ENABLED(LIN_ADVANCE)
//  767 
//  768       if (current_block->use_advance_lead) {
//  769         #if ENABLED(MIXING_EXTRUDER)
//  770           MIXING_STEPPERS_LOOP(j)
//  771             current_estep_rate[j] = ((uint32_t)acc_step_rate * current_block->abs_adv_steps_multiplier8 * current_block->step_event_count / current_block->mix_event_count[j]) >> 17;
//  772         #else
//  773           current_estep_rate[TOOL_E_INDEX] = ((uint32_t)acc_step_rate * current_block->abs_adv_steps_multiplier8) >> 17;
//  774         #endif
//  775       }
//  776       eISR_Rate = adv_rate(e_steps[TOOL_E_INDEX], interval, step_loops);
//  777 
//  778     #endif // LIN_ADVANCE
//  779   }
//  780   else if (step_events_completed > (uint32_t)current_block->decelerate_after) {
??StepperHandler_63:
        LDR      R0,[R2, #+28]
        LDR      R1,[R5, #+52]
        CMP      R0,R1
        BCS.N    ??StepperHandler_67
//  781     uint16_t step_rate;
//  782     MultiU24X32toH16(step_rate, deceleration_time, current_block->acceleration_rate);
        LDR      R11,[R5, #+60]
        LDR      R0,[R2, #+32]
        SMULL    R0,R1,R0,R11
        LSRS     R0,R0,#+24
        ORR      R0,R0,R1, LSL #+8
//  783 
//  784     if (step_rate < acc_step_rate) { // Still decelerating?
        LDRH     R1,[R5, #+14]
        UXTH     R0,R0
        CMP      R0,R1
        BCS.N    ??StepperHandler_68
//  785       step_rate = acc_step_rate - step_rate;
        SUBS     R0,R1,R0
//  786       NOLESS(step_rate, current_block->final_rate);
        LDR      R1,[R2, #+68]
        UXTH     R0,R0
        CMP      R0,R1
        BCS.N    ??StepperHandler_69
        MOV      R0,R1
        B.N      ??StepperHandler_69
//  787     }
//  788     else
//  789       step_rate = current_block->final_rate;
??StepperHandler_68:
        LDR      R0,[R2, #+68]
//  790 
//  791     // step_rate to timer interval
//  792     const uint16_t interval = calc_timer_interval(step_rate);
??StepperHandler_69:
        UXTH     R0,R0
          CFI FunCall _ZN7Stepper19calc_timer_intervalEt
        BL       _ZN7Stepper19calc_timer_intervalEt
//  793 
//  794     SPLIT(interval);  // split step into multiple ISRs if larger than ENDSTOP_NOMINAL_OCR_VAL
        LDR.W    R2,??DataTable20_3
        LDRB     R2,[R2, #+0]
        MOV      R1,R0
        CMP      R2,#+0
        ITTT     EQ 
        LDREQ.W  R2,??DataTable20_4
        LDRBEQ   R2,[R2, #+0]
        CMPEQ    R2,#+0
        BEQ.N    ??StepperHandler_70
        MOVW     R2,#+3001
        CMP      R0,R2
        BLT.N    ??StepperHandler_70
        MOVW     R1,#+3000
        MOV      R2,R1
        SDIV     R2,R0,R2
        MLS      R2,R1,R2,R0
        UXTH     R2,R2
        CMP      R2,#+1000
        IT       LT 
        ADDWLT   R1,R2,#+3000
        UXTH     R1,R1
        SUBS     R2,R0,R1
        STR      R2,[R5, #+76]
//  795     _NEXT_ISR(ocr_val);
??StepperHandler_70:
        LDR.W    R2,??DataTable20_2
        LDR      R2,[R2, #+0]
        STR      R1,[R2, #+44]
        LDR      R1,[R2, #+44]
        LDR      R3,[R2, #+36]
        CMP      R1,R3
        BCS.N    ??StepperHandler_71
        LDR      R1,[R2, #+44]
        SUBS     R1,R1,#+1
        STR      R1,[R2, #+36]
//  796 
//  797     deceleration_time += interval;
??StepperHandler_71:
        ADD      R0,R0,R11
        STR      R0,[R5, #+60]
        B.N      ??StepperHandler_66
//  798 
//  799     #if ENABLED(LIN_ADVANCE)
//  800 
//  801       if (current_block->use_advance_lead) {
//  802         #if ENABLED(MIXING_EXTRUDER)
//  803           MIXING_STEPPERS_LOOP(j)
//  804             current_estep_rate[j] = ((uint32_t)step_rate * current_block->abs_adv_steps_multiplier8 * current_block->step_event_count / current_block->mix_event_count[j]) >> 17;
//  805         #else
//  806           current_estep_rate[TOOL_E_INDEX] = ((uint32_t)step_rate * current_block->abs_adv_steps_multiplier8) >> 17;
//  807         #endif
//  808       }
//  809       eISR_Rate = adv_rate(e_steps[TOOL_E_INDEX], interval, step_loops);
//  810 
//  811     #endif // LIN_ADVANCE
//  812   }
//  813   else {
//  814 
//  815     #if ENABLED(LIN_ADVANCE)
//  816 
//  817       if (current_block->use_advance_lead)
//  818         current_estep_rate[TOOL_E_INDEX] = final_estep_rate;
//  819 
//  820       eISR_Rate = adv_rate(e_steps[TOOL_E_INDEX], OCR1A_nominal, step_loops_nominal);
//  821 
//  822     #endif
//  823 
//  824     SPLIT(OCR1A_nominal);  // split step into multiple ISRs if larger than ENDSTOP_NOMINAL_OCR_VAL
??StepperHandler_67:
        LDR.W    R2,??DataTable20_3
        LDRH     R0,[R5, #+12]
        LDRB     R2,[R2, #+0]
        MOV      R1,R0
        CMP      R2,#+0
        ITTT     EQ 
        LDREQ.W  R2,??DataTable20_4
        LDRBEQ   R2,[R2, #+0]
        CMPEQ    R2,#+0
        BEQ.N    ??StepperHandler_72
        MOVW     R2,#+3001
        CMP      R0,R2
        BLT.N    ??StepperHandler_72
        MOVW     R1,#+3000
        MOV      R2,R1
        SDIV     R2,R0,R2
        MLS      R2,R1,R2,R0
        UXTH     R2,R2
        CMP      R2,#+1000
        IT       LT 
        ADDWLT   R1,R2,#+3000
        UXTH     R1,R1
        SUBS     R0,R0,R1
        STR      R0,[R5, #+76]
//  825     _NEXT_ISR(ocr_val);
??StepperHandler_72:
        LDR.W    R0,??DataTable20_2
        LDR      R2,[R0, #+0]
        STR      R1,[R2, #+44]
        LDR      R0,[R2, #+44]
        LDR      R1,[R2, #+36]
        CMP      R0,R1
        BCS.N    ??StepperHandler_73
        LDR      R0,[R2, #+44]
        SUBS     R0,R0,#+1
        STR      R0,[R2, #+36]
//  826 
//  827     // ensure we're running at the correct step rate, even if we just came off an acceleration
//  828     step_loops = step_loops_nominal;
??StepperHandler_73:
        LDRB     R0,[R5, #+9]
        STRB     R0,[R5, #+8]
//  829   }
//  830 
//  831   #if DISABLED(LIN_ADVANCE)
//  832     NOLESS(OCR1A, TCNT1 + 16);
??StepperHandler_66:
        LDR.W    R0,??DataTable20_2
        LDR      R0,[R0, #+0]
        LDR      R1,[R0, #+44]
        LDR      R2,[R0, #+36]
        ADDS     R2,R2,#+16
        CMP      R1,R2
        BCS.N    ??StepperHandler_74
        LDR      R1,[R0, #+36]
        ADDS     R1,R1,#+16
        STR      R1,[R0, #+44]
//  833   #endif
//  834 
//  835   // If current block is finished, reset pointer
//  836   if (all_steps_done) {
??StepperHandler_74:
        CBZ.N    R6,??StepperHandler_75
//  837     current_block = NULL;
        MOVS     R0,#+0
        STR      R0,[R5, #+32]
//  838     planner.discard_current_block();
        LDR.W    R0,??DataTable20_6
        LDRB     R1,[R0, #+0]
        LDR.W    R0,??DataTable20_5
        LDRB     R2,[R0, #+0]
        CMP      R1,R2
        BEQ.N    ??StepperHandler_75
        LDRB     R1,[R0, #+0]
        ADDS     R1,R1,#+1
        AND      R1,R1,#0xF
        STRB     R1,[R0, #+0]
//  839   }
//  840   #if DISABLED(LIN_ADVANCE)
//  841     _ENABLE_ISRs(); // re-enable ISRs
??StepperHandler_75:
        cpsie i
??StepperHandler_3:
        LDR.W    R0,??DataTable21
        LDRB     R0,[R0, #+0]
        CMP      R0,#+0
        MOV      R0,R10
        BEQ.N    ??StepperHandler_76
          CFI FunCall HAL_TIM_Base_Stop_IT
        BL       HAL_TIM_Base_Stop_IT
        B.N      ??StepperHandler_77
??StepperHandler_76:
          CFI FunCall HAL_TIM_Base_Start_IT
        BL       HAL_TIM_Base_Start_IT
??StepperHandler_77:
        POP      {R1,R4-R11,LR}
          CFI R4 SameValue
          CFI R5 SameValue
          CFI R6 SameValue
          CFI R7 SameValue
          CFI R8 SameValue
          CFI R9 SameValue
          CFI R10 SameValue
          CFI R11 SameValue
          CFI R14 SameValue
          CFI CFA R13+0
        Nop      
          CFI EndBlock cfiBlock4
        REQUIRE ?Subroutine0
        ;; // Fall through to label ?Subroutine0
//  842   #endif
//  843 }

        SECTION `.text`:CODE:NOROOT(1)
          CFI Block cfiBlock5 Using cfiCommon0
          CFI NoFunction
        THUMB
?Subroutine0:
        LDR.W    R0,??DataTable20_2
          CFI FunCall _ZN7Stepper7wake_upEv HAL_TIM_Base_Start_IT
          CFI FunCall _ZN7Stepper14StepperHandlerEv HAL_TIM_Base_Start_IT
        B.W      HAL_TIM_Base_Start_IT
          CFI EndBlock cfiBlock5

        SECTION `.text`:CODE:NOROOT(2)
        SECTION_TYPE SHT_PROGBITS, 0
        DATA
`?<Constant "M84 X Y Z E">`:
        DC8 "M84 X Y Z E"

        SECTION `.data`:DATA:REORDER:NOROOT(2)
_ZN7Stepper15count_directionE:
        DATA
        DC8 1, 1, 1, 1
_ZN7Stepper17performing_homingE:
        DC8 0
_ZN7Stepper19last_direction_bitsE:
        DC8 0
_ZN7Stepper14locked_z_motorE:
        DC8 0
_ZN7Stepper15locked_z2_motorE:
        DC8 0
_ZN7Stepper10step_loopsE:
        DC8 0
_ZN7Stepper18step_loops_nominalE:
        DC8 0
_ZN7Stepper23cleaning_buffer_counterE:
        DC16 0
_ZN7Stepper13OCR1A_nominalE:
        DC8 0, 0
_ZN7Stepper13acc_step_rateE:
        DC8 0, 0
_ZN7Stepper14count_positionE:
        DC32 0, 0, 0, 0
_ZN7Stepper13current_blockE:
        DC32 0H
_ZN7Stepper9counter_XE:
        DC32 0
_ZN7Stepper9counter_YE:
        DC32 0
_ZN7Stepper9counter_ZE:
        DC32 0
_ZN7Stepper9counter_EE:
        DC32 0
_ZN7Stepper21step_events_completedE:
        DC32 0
_ZN7Stepper17acceleration_timeE:
        DC8 0, 0, 0, 0
_ZN7Stepper17deceleration_timeE:
        DC8 0, 0, 0, 0
_ZN7Stepper18endstops_trigstepsE:
        DC8 0, 0, 0, 0, 0, 0, 0, 0, 0, 0, 0, 0
        DC32 0
//  844 
//  845 #if ENABLED(LIN_ADVANCE)
//  846 
//  847   #define CYCLES_EATEN_E (E_STEPPERS * 5)
//  848   #define EXTRA_CYCLES_E (STEP_PULSE_CYCLES - (CYCLES_EATEN_E))
//  849 
//  850   // Timer interrupt for E. e_steps is set in the main routine;
//  851 
//  852   void Stepper::advance_isr() {
//  853 
//  854     nextAdvanceISR = eISR_Rate;
//  855 
//  856     #if ENABLED(MK2_MULTIPLEXER)
//  857       // Even-numbered steppers are reversed
//  858       #define SET_E_STEP_DIR(INDEX) \ 
//  859         if (e_steps[INDEX]) E## INDEX ##_DIR_WRITE(e_steps[INDEX] < 0 ? !INVERT_E## INDEX ##_DIR ^ TEST(INDEX, 0) : INVERT_E## INDEX ##_DIR ^ TEST(INDEX, 0))
//  860     #else
//  861       #define SET_E_STEP_DIR(INDEX) \ 
//  862         if (e_steps[INDEX]) E## INDEX ##_DIR_WRITE(e_steps[INDEX] < 0 ? INVERT_E## INDEX ##_DIR : !INVERT_E## INDEX ##_DIR)
//  863     #endif
//  864 
//  865     #define START_E_PULSE(INDEX) \ 
//  866       if (e_steps[INDEX]) E## INDEX ##_STEP_WRITE(!INVERT_E_STEP_PIN)
//  867 
//  868     #define STOP_E_PULSE(INDEX) \ 
//  869       if (e_steps[INDEX]) { \ 
//  870         e_steps[INDEX] < 0 ? ++e_steps[INDEX] : --e_steps[INDEX]; \ 
//  871         E## INDEX ##_STEP_WRITE(INVERT_E_STEP_PIN); \ 
//  872       }
//  873 
//  874     SET_E_STEP_DIR(0);
//  875     #if E_STEPPERS > 1
//  876       SET_E_STEP_DIR(1);
//  877       #if E_STEPPERS > 2
//  878         SET_E_STEP_DIR(2);
//  879         #if E_STEPPERS > 3
//  880           SET_E_STEP_DIR(3);
//  881           #if E_STEPPERS > 4
//  882             SET_E_STEP_DIR(4);
//  883           #endif
//  884         #endif
//  885       #endif
//  886     #endif
//  887 
//  888     // Step all E steppers that have steps
//  889     for (uint8_t i = step_loops; i--;) {
//  890 
//  891       #if EXTRA_CYCLES_E > 20
//  892         uint32_t pulse_start = TCNT0;
//  893       #endif
//  894 
//  895       START_E_PULSE(0);
//  896       #if E_STEPPERS > 1
//  897         START_E_PULSE(1);
//  898         #if E_STEPPERS > 2
//  899           START_E_PULSE(2);
//  900           #if E_STEPPERS > 3
//  901             START_E_PULSE(3);
//  902             #if E_STEPPERS > 4
//  903               START_E_PULSE(4);
//  904             #endif
//  905           #endif
//  906         #endif
//  907       #endif
//  908 
//  909       // For minimum pulse time wait before stopping pulses
//  910       #if EXTRA_CYCLES_E > 20
//  911         while (EXTRA_CYCLES_E > (uint32_t)(TCNT0 - pulse_start) * (INT0_PRESCALER)) { /* nada */ }
//  912         pulse_start = TCNT0;
//  913       #elif EXTRA_CYCLES_E > 0
//  914         DELAY_NOPS(EXTRA_CYCLES_E);
//  915       #endif
//  916 
//  917       STOP_E_PULSE(0);
//  918       #if E_STEPPERS > 1
//  919         STOP_E_PULSE(1);
//  920         #if E_STEPPERS > 2
//  921           STOP_E_PULSE(2);
//  922           #if E_STEPPERS > 3
//  923             STOP_E_PULSE(3);
//  924             #if E_STEPPERS > 4
//  925               STOP_E_PULSE(4);
//  926             #endif
//  927           #endif
//  928         #endif
//  929       #endif
//  930 
//  931       // For minimum pulse time wait before looping
//  932       #if EXTRA_CYCLES_E > 20
//  933         if (i) while (EXTRA_CYCLES_E > (uint32_t)(TCNT0 - pulse_start) * (INT0_PRESCALER)) { /* nada */ }
//  934       #elif EXTRA_CYCLES_E > 0
//  935         if (i) DELAY_NOPS(EXTRA_CYCLES_E);
//  936       #endif
//  937 
//  938     } // steps_loop
//  939   }
//  940 
//  941   void Stepper::advance_isr_scheduler() {
//  942     // Disable Timer0 ISRs and enable global ISR again to capture UART events (incoming chars)
//  943     CBI(TIMSK0, OCIE0B); // Temperature ISR
//  944     DISABLE_STEPPER_DRIVER_INTERRUPT();
//  945     sei();
//  946 
//  947     // Run main stepping ISR if flagged
//  948     if (!nextMainISR) isr();
//  949 
//  950     // Run Advance stepping ISR if flagged
//  951     if (!nextAdvanceISR) advance_isr();
//  952 
//  953     // Is the next advance ISR scheduled before the next main ISR?
//  954     if (nextAdvanceISR <= nextMainISR) {
//  955       // Set up the next interrupt
//  956       OCR1A = nextAdvanceISR;
//  957       // New interval for the next main ISR
//  958       if (nextMainISR) nextMainISR -= nextAdvanceISR;
//  959       // Will call Stepper::advance_isr on the next interrupt
//  960       nextAdvanceISR = 0;
//  961     }
//  962     else {
//  963       // The next main ISR comes first
//  964       OCR1A = nextMainISR;
//  965       // New interval for the next advance ISR, if any
//  966       if (nextAdvanceISR && nextAdvanceISR != ADV_NEVER)
//  967         nextAdvanceISR -= nextMainISR;
//  968       // Will call Stepper::isr on the next interrupt
//  969       nextMainISR = 0;
//  970     }
//  971 
//  972     // Don't run the ISR faster than possible
//  973     NOLESS(OCR1A, TCNT1 + 16);
//  974 
//  975     // Restore original ISR settings
//  976     _ENABLE_ISRs();
//  977   }
//  978 
//  979 #endif // LIN_ADVANCE
//  980 

        SECTION `.text`:CODE:NOROOT(2)
          CFI Block cfiBlock6 Using cfiCommon0
          CFI Function _ZN7Stepper4initEv
        THUMB
//  981 void Stepper::init() {
_ZN7Stepper4initEv:
        PUSH     {R4-R8,LR}
          CFI R14 Frame(CFA, -4)
          CFI R8 Frame(CFA, -8)
          CFI R7 Frame(CFA, -12)
          CFI R6 Frame(CFA, -16)
          CFI R5 Frame(CFA, -20)
          CFI R4 Frame(CFA, -24)
          CFI CFA R13+24
//  982 
//  983   // Init Digipot Motor Current
//  984   #if HAS_DIGIPOTSS || HAS_MOTOR_CURRENT_PWM
//  985     digipot_init();
//  986   #endif
//  987 
//  988   // Init Microstepping Pins
//  989   #if HAS_MICROSTEPS
//  990     microstep_init();
//  991   #endif
//  992 
//  993   // Init TMC Steppers
//  994   #if ENABLED(HAVE_TMCDRIVER)
//  995     tmc_init();
//  996   #endif
//  997 
//  998   // Init TMC2130 Steppers
//  999   #if ENABLED(HAVE_TMC2130)
// 1000     tmc2130_init();
// 1001   #endif
// 1002 
// 1003   // Init TMC2208 Steppers
// 1004   #if ENABLED(HAVE_TMC2208)
// 1005     tmc2208_init();
// 1006   #endif
// 1007 
// 1008   // TRAMS, TMC2130 and TMC2208 advanced settings
// 1009   #if HAS_TRINAMIC
// 1010     TMC_ADV()
// 1011   #endif
// 1012 
// 1013   // Init L6470 Steppers
// 1014   #if ENABLED(HAVE_L6470DRIVER)
// 1015     L6470_init();
// 1016   #endif
// 1017 
// 1018   // Init Dir Pins
// 1019   #if HAS_X_DIR
// 1020     X_DIR_INIT;
// 1021   #endif
// 1022   #if HAS_X2_DIR
// 1023     X2_DIR_INIT;
// 1024   #endif
// 1025   #if HAS_Y_DIR
// 1026     Y_DIR_INIT;
// 1027     #if ENABLED(Y_DUAL_STEPPER_DRIVERS) && HAS_Y2_DIR
// 1028       Y2_DIR_INIT;
// 1029     #endif
// 1030   #endif
// 1031   #if HAS_Z_DIR
// 1032     Z_DIR_INIT;
// 1033     //#if ENABLED(Z_DUAL_STEPPER_DRIVERS) && HAS_Z2_DIR
// 1034     if(Z_DUAL_STEPPER_DRIVERS==1)
// 1035     {
// 1036       Z2_DIR_INIT;
// 1037     }
// 1038     //#endif
// 1039   #endif
// 1040   #if HAS_E0_DIR
// 1041     E0_DIR_INIT;
// 1042   #endif
// 1043   #if HAS_E1_DIR
// 1044     E1_DIR_INIT;
// 1045   #endif
// 1046   #if HAS_E2_DIR
// 1047     E2_DIR_INIT;
// 1048   #endif
// 1049   #if HAS_E3_DIR
// 1050     E3_DIR_INIT;
// 1051   #endif
// 1052   #if HAS_E4_DIR
// 1053     E4_DIR_INIT;
// 1054   #endif
// 1055 
// 1056   // Init Enable Pins - steppers default to disabled.
// 1057   #if HAS_X_ENABLE
// 1058     X_ENABLE_INIT;
// 1059     if (!X_ENABLE_ON) X_ENABLE_WRITE(HIGH);
        LDR.W    R8,??DataTable20
        LDR.W    R4,??DataTable19_1
        LDR.W    R5,??DataTable19_2
        ADDW     R6,R8,#+257
        LDRB     R0,[R6, #+3]
        CBNZ.N   R0,??init_0
        LDRH     R1,[R5, #+4]
        LDR      R0,[R4, #+8]
        MOVS     R2,#+1
          CFI FunCall HAL_GPIO_WritePin
        BL       HAL_GPIO_WritePin
// 1060     #if ENABLED(DUAL_X_CARRIAGE) && HAS_X2_ENABLE
// 1061       X2_ENABLE_INIT;
// 1062       if (!X_ENABLE_ON) X2_ENABLE_WRITE(HIGH);
// 1063     #endif
// 1064   #endif
// 1065   #if HAS_Y_ENABLE
// 1066     Y_ENABLE_INIT;
// 1067     if (!Y_ENABLE_ON) Y_ENABLE_WRITE(HIGH);
??init_0:
        LDRB     R0,[R6, #+4]
        CBNZ.N   R0,??init_1
        LDRH     R1,[R5, #+14]
        LDR      R0,[R4, #+28]
        MOVS     R2,#+1
          CFI FunCall HAL_GPIO_WritePin
        BL       HAL_GPIO_WritePin
// 1068     #if ENABLED(Y_DUAL_STEPPER_DRIVERS) && HAS_Y2_ENABLE
// 1069       Y2_ENABLE_INIT;
// 1070       if (!Y_ENABLE_ON) Y2_ENABLE_WRITE(HIGH);
// 1071     #endif
// 1072   #endif
// 1073   #if HAS_Z_ENABLE
// 1074     Z_ENABLE_INIT;
// 1075     if (!Z_ENABLE_ON) Z_ENABLE_WRITE(HIGH);
??init_1:
        LDRB     R0,[R6, #+5]
        CBNZ.N   R0,??init_2
        LDRH     R1,[R5, #+24]
        LDR      R0,[R4, #+48]
        MOVS     R2,#+1
          CFI FunCall HAL_GPIO_WritePin
        BL       HAL_GPIO_WritePin
// 1076     //#if ENABLED(Z_DUAL_STEPPER_DRIVERS) && HAS_Z2_ENABLE
// 1077     if(Z_DUAL_STEPPER_DRIVERS==1)
// 1078     {
// 1079       Z2_ENABLE_INIT;
// 1080     }
// 1081       if (!Z_ENABLE_ON) Z2_ENABLE_WRITE(HIGH);
??init_2:
        LDRB     R0,[R6, #+5]
        CBNZ.N   R0,??init_3
        LDRH     R1,[R5, #+40]
        LDR      R0,[R4, #+80]
        MOVS     R2,#+1
          CFI FunCall HAL_GPIO_WritePin
        BL       HAL_GPIO_WritePin
// 1082     //#endif
// 1083   #endif
// 1084   #if HAS_E0_ENABLE
// 1085     E0_ENABLE_INIT;
// 1086     if (!E_ENABLE_ON) E0_ENABLE_WRITE(HIGH);
??init_3:
        LDRB     R0,[R6, #+6]
        CBNZ.N   R0,??init_4
        LDRH     R1,[R5, #+34]
        LDR      R0,[R4, #+68]
        MOVS     R2,#+1
          CFI FunCall HAL_GPIO_WritePin
        BL       HAL_GPIO_WritePin
// 1087   #endif
// 1088   #if HAS_E1_ENABLE
// 1089     E1_ENABLE_INIT;
// 1090     if (!E_ENABLE_ON) E1_ENABLE_WRITE(HIGH);
??init_4:
        LDRB     R0,[R6, #+6]
        CBNZ.N   R0,??init_5
        LDRH     R1,[R5, #+40]
        LDR      R0,[R4, #+80]
        MOVS     R2,#+1
          CFI FunCall HAL_GPIO_WritePin
        BL       HAL_GPIO_WritePin
// 1091   #endif
// 1092   #if HAS_E2_ENABLE
// 1093     E2_ENABLE_INIT;
// 1094     if (!E_ENABLE_ON) E2_ENABLE_WRITE(HIGH);
// 1095   #endif
// 1096   #if HAS_E3_ENABLE
// 1097     E3_ENABLE_INIT;
// 1098     if (!E_ENABLE_ON) E3_ENABLE_WRITE(HIGH);
// 1099   #endif
// 1100   #if HAS_E4_ENABLE
// 1101     E4_ENABLE_INIT;
// 1102     if (!E_ENABLE_ON) E4_ENABLE_WRITE(HIGH);
// 1103   #endif
// 1104 
// 1105   // Init endstops and pullups
// 1106   endstops.init();
??init_5:
        LDR.W    R0,??DataTable21_1
          CFI FunCall _ZN8Endstops4initEv
        BL       _ZN8Endstops4initEv
// 1107 
// 1108   #define _STEP_INIT(AXIS) AXIS ##_STEP_INIT
// 1109   #define _WRITE_STEP(AXIS, HIGHLOW) AXIS ##_STEP_WRITE(HIGHLOW)
// 1110   #define _DISABLE(AXIS) disable_## AXIS()
// 1111 
// 1112   #define AXIS_INIT(AXIS, PIN) \ 
// 1113     _STEP_INIT(AXIS); \ 
// 1114     _WRITE_STEP(AXIS, _INVERT_STEP_PIN(PIN)); \ 
// 1115     _DISABLE(AXIS)
// 1116 
// 1117   #define E_AXIS_INIT(NUM) AXIS_INIT(E## NUM, E)
// 1118 
// 1119   // Init Step Pins
// 1120   #if HAS_X_STEP
// 1121     #if ENABLED(X_DUAL_STEPPER_DRIVERS) || ENABLED(DUAL_X_CARRIAGE)
// 1122       X2_STEP_INIT;
// 1123       X2_STEP_WRITE(INVERT_X_STEP_PIN);
// 1124     #endif
// 1125     AXIS_INIT(X, X);
        LDRH     R1,[R5, #+2]
        LDR      R0,[R4, #+4]
        MOVS     R2,#+0
          CFI FunCall HAL_GPIO_WritePin
        BL       HAL_GPIO_WritePin
        LDRB     R0,[R6, #+3]
        LDRH     R1,[R5, #+4]
        SUBS     R2,R0,#+1
        SBCS     R2,R2,R2
        LSRS     R2,R2,#+31
        LDR      R0,[R4, #+8]
        SXTB     R2,R2
          CFI FunCall HAL_GPIO_WritePin
        BL       HAL_GPIO_WritePin
        LDR.W    R7,??DataTable21_2
        MOVS     R0,#+0
        STRB     R0,[R7, #+0]
// 1126   #endif
// 1127 
// 1128   #if HAS_Y_STEP
// 1129     #if ENABLED(Y_DUAL_STEPPER_DRIVERS)
// 1130       Y2_STEP_INIT;
// 1131       Y2_STEP_WRITE(INVERT_Y_STEP_PIN);
// 1132     #endif
// 1133     AXIS_INIT(Y, Y);
        MOVS     R2,#+0
        LDRH     R1,[R5, #+12]
        LDR      R0,[R4, #+24]
          CFI FunCall HAL_GPIO_WritePin
        BL       HAL_GPIO_WritePin
        LDRB     R0,[R6, #+4]
        LDRH     R1,[R5, #+14]
        SUBS     R2,R0,#+1
        SBCS     R2,R2,R2
        LSRS     R2,R2,#+31
        LDR      R0,[R4, #+28]
        SXTB     R2,R2
          CFI FunCall HAL_GPIO_WritePin
        BL       HAL_GPIO_WritePin
        MOVS     R0,#+0
        STRB     R0,[R7, #+1]
// 1134   #endif
// 1135 
// 1136   #if HAS_Z_STEP
// 1137     //#if ENABLED(Z_DUAL_STEPPER_DRIVERS)
// 1138     if(Z_DUAL_STEPPER_DRIVERS==1)
        LDRB     R0,[R8, #+257]
        CMP      R0,#+1
        BNE.N    ??init_6
// 1139     {
// 1140       Z2_STEP_INIT;
// 1141       Z2_STEP_WRITE(INVERT_Z_STEP_PIN);
        LDRH     R1,[R5, #+38]
        LDR      R0,[R4, #+76]
        MOVS     R2,#+0
          CFI FunCall HAL_GPIO_WritePin
        BL       HAL_GPIO_WritePin
// 1142     }
// 1143     //#endif
// 1144     AXIS_INIT(Z, Z);
??init_6:
        LDRH     R1,[R5, #+22]
        LDR      R0,[R4, #+44]
        MOVS     R2,#+0
          CFI FunCall HAL_GPIO_WritePin
        BL       HAL_GPIO_WritePin
        LDRB     R0,[R6, #+5]
        LDRH     R1,[R5, #+24]
        SUBS     R2,R0,#+1
        SBCS     R2,R2,R2
        LSRS     R2,R2,#+31
        LDR      R0,[R4, #+48]
        SXTB     R2,R2
          CFI FunCall HAL_GPIO_WritePin
        BL       HAL_GPIO_WritePin
        LDRB     R0,[R6, #+5]
        LDRH     R1,[R5, #+40]
        SUBS     R2,R0,#+1
        SBCS     R2,R2,R2
        LSRS     R2,R2,#+31
        LDR      R0,[R4, #+80]
        SXTB     R2,R2
          CFI FunCall HAL_GPIO_WritePin
        BL       HAL_GPIO_WritePin
        MOVS     R0,#+0
        STRB     R0,[R7, #+2]
// 1145   #endif
// 1146 
// 1147   #if HAS_E0_STEP
// 1148     E_AXIS_INIT(0);
        MOVS     R2,#+0
        LDRH     R1,[R5, #+32]
        LDR      R0,[R4, #+64]
          CFI FunCall HAL_GPIO_WritePin
        BL       HAL_GPIO_WritePin
        LDRB     R0,[R6, #+6]
        LDRH     R1,[R5, #+34]
        SUBS     R2,R0,#+1
        SBCS     R2,R2,R2
        LSRS     R2,R2,#+31
        LDR      R0,[R4, #+68]
        SXTB     R2,R2
          CFI FunCall HAL_GPIO_WritePin
        BL       HAL_GPIO_WritePin
// 1149   #endif
// 1150   #if HAS_E1_STEP
// 1151     E_AXIS_INIT(1);
        LDRH     R1,[R5, #+38]
        LDR      R0,[R4, #+76]
        MOVS     R2,#+0
          CFI FunCall HAL_GPIO_WritePin
        BL       HAL_GPIO_WritePin
        LDRB     R0,[R6, #+6]
        LDRH     R1,[R5, #+40]
        SUBS     R2,R0,#+1
        SBCS     R2,R2,R2
        LSRS     R2,R2,#+31
        LDR      R0,[R4, #+80]
        SXTB     R2,R2
          CFI FunCall HAL_GPIO_WritePin
        BL       HAL_GPIO_WritePin
// 1152   #endif
// 1153   #if HAS_E2_STEP
// 1154     E_AXIS_INIT(2);
// 1155   #endif
// 1156   #if HAS_E3_STEP
// 1157     E_AXIS_INIT(3);
// 1158   #endif
// 1159   #if HAS_E4_STEP
// 1160     E_AXIS_INIT(4);
// 1161   #endif
// 1162 #if 0
// 1163   // waveform generation = 0100 = CTC
// 1164   SET_WGM(1, CTC_OCRnA);
// 1165 
// 1166   // output mode = 00 (disconnected)
// 1167   SET_COMA(1, NORMAL);
// 1168 
// 1169   // Set the timer pre-scaler
// 1170   // Generally we use a divider of 8, resulting in a 2MHz timer
// 1171   // frequency on a 16MHz MCU. If you are going to change this, be
// 1172   // sure to regenerate speed_lookuptable.h with
// 1173   // create_speed_lookuptable.py
// 1174   SET_CS(1, PRESCALER_8);  //  CS 2 = 1/8 prescaler
// 1175 
// 1176   // Init Stepper ISR to 122 Hz for quick starting
// 1177   OCR1A = 0x4000;
// 1178   TCNT1 = 0;
// 1179 #endif
// 1180   ENABLE_STEPPER_DRIVER_INTERRUPT();
        LDR.W    R0,??DataTable20_2
          CFI FunCall HAL_TIM_Base_Start_IT
        BL       HAL_TIM_Base_Start_IT
// 1181 
// 1182   #if ENABLED(LIN_ADVANCE)
// 1183     for (uint8_t i = 0; i < COUNT(e_steps); i++) e_steps[i] = 0;
// 1184     ZERO(current_adv_steps);
// 1185   #endif
// 1186 
// 1187   endstops.enable(true); // Start with endstops active. After homing they can be disabled
        LDR.W    R1,??DataTable20_3
        MOVS     R0,#+1
        STRB     R0,[R1, #+0]
// 1188   sei();
        cpsie i
// 1189 
// 1190   set_directions(); // Init directions to last_direction_bits = 0
        POP      {R4-R8,LR}
          CFI R4 SameValue
          CFI R5 SameValue
          CFI R6 SameValue
          CFI R7 SameValue
          CFI R8 SameValue
          CFI R14 SameValue
          CFI CFA R13+0
          CFI FunCall _ZN7Stepper14set_directionsEv
        B.W      _ZN7Stepper14set_directionsEv
          CFI EndBlock cfiBlock6
// 1191 }
// 1192 
// 1193 
// 1194 /**
// 1195  * Block until all buffered steps are executed / cleaned
// 1196  */

        SECTION `.text`:CODE:NOROOT(1)
          CFI Block cfiBlock7 Using cfiCommon0
          CFI Function _ZN7Stepper11synchronizeEv
        THUMB
// 1197 void Stepper::synchronize() { while (planner.blocks_queued() || cleaning_buffer_counter) idle(); }
_ZN7Stepper11synchronizeEv:
        PUSH     {R3-R5,LR}
          CFI R14 Frame(CFA, -4)
          CFI R5 Frame(CFA, -8)
          CFI R4 Frame(CFA, -12)
          CFI CFA R13+16
        LDR.N    R4,??DataTable20_5
        LDR.N    R5,??DataTable20_6
        B.N      ??synchronize_0
??synchronize_1:
          CFI FunCall _Z4idlev
        BL       _Z4idlev
??synchronize_0:
        LDRB     R0,[R5, #+0]
        LDRB     R1,[R4, #+0]
        CMP      R0,R1
        ITTT     EQ 
        LDREQ.W  R0,??DataTable21_3
        LDRSHEQ  R0,[R0, #+10]
        CMPEQ    R0,#+0
        BNE.N    ??synchronize_1
        POP      {R0,R4,R5,PC}    ;; return
          CFI EndBlock cfiBlock7

        SECTION `.text`:CODE:NOROOT(1)
          CFI Block cfiBlock8 Using cfiCommon0
          CFI Function _ZN7Stepper24waitUntilEndOfAllBuffersEv
          CFI NoCalls
        THUMB
// 1198 void Stepper::waitUntilEndOfAllBuffers() { while (planner.blocks_queued()) ;}
_ZN7Stepper24waitUntilEndOfAllBuffersEv:
        LDR.N    R0,??DataTable20_5
        LDR.N    R1,??DataTable20_6
??waitUntilEndOfAllBuffers_0:
        LDRB     R2,[R1, #+0]
        LDRB     R3,[R0, #+0]
        CMP      R2,R3
        BNE.N    ??waitUntilEndOfAllBuffers_0
        BX       LR               ;; return
          CFI EndBlock cfiBlock8

        SECTION `.text`:CODE:NOROOT(1)
          CFI Block cfiBlock9 Using cfiCommon0
          CFI Function _ZN7Stepper22waitUntilEndOfAllMovesEv
          CFI NoCalls
        THUMB
// 1199 void Stepper:: waitUntilEndOfAllMoves()	{ }
_ZN7Stepper22waitUntilEndOfAllMovesEv:
        BX       LR               ;; return
          CFI EndBlock cfiBlock9
// 1200 
// 1201 /**
// 1202  * Set the stepper positions directly in steps
// 1203  *
// 1204  * The input is based on the typical per-axis XYZ steps.
// 1205  * For CORE machines XYZ needs to be translated to ABC.
// 1206  *
// 1207  * This allows get_axis_position_mm to correctly
// 1208  * derive the current XYZ position later on.
// 1209  */

        SECTION `.text`:CODE:NOROOT(2)
          CFI Block cfiBlock10 Using cfiCommon0
          CFI Function _ZN7Stepper12set_positionERKlS1_S1_S1_
        THUMB
// 1210 void Stepper::set_position(const long &a, const long &b, const long &c, const long &e) {
_ZN7Stepper12set_positionERKlS1_S1_S1_:
        PUSH     {R3-R9,LR}
          CFI R14 Frame(CFA, -4)
          CFI R9 Frame(CFA, -8)
          CFI R8 Frame(CFA, -12)
          CFI R7 Frame(CFA, -16)
          CFI R6 Frame(CFA, -20)
          CFI R5 Frame(CFA, -24)
          CFI R4 Frame(CFA, -28)
          CFI CFA R13+32
        MOV      R4,R0
        MOV      R5,R1
        MOV      R6,R2
        MOV      R7,R3
// 1211 
// 1212   synchronize(); // Bad to set stepper counts in the middle of a move
        LDR.W    R8,??DataTable20_5
        LDR.W    R9,??DataTable20_6
        B.N      ??set_position_0
??set_position_1:
          CFI FunCall _Z4idlev
        BL       _Z4idlev
??set_position_0:
        LDRB     R0,[R9, #+0]
        LDRB     R1,[R8, #+0]
        CMP      R0,R1
        ITTT     EQ 
        LDREQ.N  R0,??DataTable19
        LDRSHEQ  R1,[R0, #+10]
        CMPEQ    R1,#+0
        BNE.N    ??set_position_1
// 1213 
// 1214   CRITICAL_SECTION_START;
        LDR.W    R1,??DataTable21_4
        cpsid i
        LDRSH    R2,[R1, #+88]
        LDR      R3,[R4, #+0]
        MOVS     R1,#+12
        TST      R2,R1
        BEQ.N    ??set_position_2
// 1215 #if 0
// 1216   #if CORE_IS_XY
// 1217     // corexy positioning
// 1218     // these equations follow the form of the dA and dB equations on http://www.corexy.com/theory.html
// 1219     count_position[A_AXIS] = a + b;
// 1220     count_position[B_AXIS] = CORESIGN(a - b);
// 1221     count_position[Z_AXIS] = c;
// 1222   #elif CORE_IS_XZ
// 1223     // corexz planning
// 1224     count_position[A_AXIS] = a + c;
// 1225     count_position[Y_AXIS] = b;
// 1226     count_position[C_AXIS] = CORESIGN(a - c);
// 1227   #elif CORE_IS_YZ
// 1228     // coreyz planning
// 1229     count_position[X_AXIS] = a;
// 1230     count_position[B_AXIS] = b + c;
// 1231     count_position[C_AXIS] = CORESIGN(b - c);
// 1232   #else
// 1233     // default non-h-bot planning
// 1234     count_position[X_AXIS] = a;
// 1235     count_position[Y_AXIS] = b;
// 1236     count_position[Z_AXIS] = c;
// 1237   #endif
// 1238 #endif
// 1239   if(MACHINETPYE & CORE_IS_XY)
// 1240   	{
// 1241 	  count_position[A_AXIS] = a + b;
        LDR      R1,[R5, #+0]
        ADDS     R1,R1,R3
        STR      R1,[R0, #+16]
// 1242 	  count_position[B_AXIS] = CORESIGN(a - b);
        LDR      R3,[R5, #+0]
        LDR      R1,[R4, #+0]
        SUBS     R1,R1,R3
        MOVS     R3,#+168
        TST      R2,R3
        BEQ.N    ??set_position_3
        RSBS     R1,R1,#+0
// 1243 	  count_position[Z_AXIS] = c;
// 1244   	}
        B.N      ??set_position_3
// 1245   else if(MACHINETPYE & CORE_IS_XZ)
??set_position_2:
        MOVS     R1,#+48
        TST      R2,R1
        BEQ.N    ??set_position_4
// 1246   	{
// 1247 	  count_position[A_AXIS] = a + c;
        LDR      R1,[R6, #+0]
        ADDS     R1,R1,R3
        STR      R1,[R0, #+16]
// 1248 	  count_position[Y_AXIS] = b;
        LDR      R1,[R5, #+0]
        STR      R1,[R0, #+20]
// 1249 	  count_position[C_AXIS] = CORESIGN(a - c);
        LDR      R3,[R6, #+0]
        LDR      R1,[R4, #+0]
        SUBS     R1,R1,R3
        MOVS     R3,#+168
        TST      R2,R3
        BEQ.N    ??set_position_5
        RSBS     R1,R1,#+0
// 1250   	}
        B.N      ??set_position_5
// 1251   else if(MACHINETPYE & CORE_IS_YZ)
??set_position_4:
        MOVS     R1,#+192
        TST      R2,R1
        STR      R3,[R0, #+16]
        LDR      R1,[R5, #+0]
        BEQ.N    ??set_position_3
// 1252   	{
// 1253 	  count_position[X_AXIS] = a;
// 1254 	  count_position[B_AXIS] = b + c;
        LDR      R3,[R6, #+0]
        ADDS     R1,R3,R1
        STR      R1,[R0, #+20]
// 1255 	  count_position[C_AXIS] = CORESIGN(b - c);
        LDR      R3,[R6, #+0]
        LDR      R1,[R5, #+0]
        SUBS     R1,R1,R3
        MOVS     R3,#+168
        TST      R2,R3
        BEQ.N    ??set_position_5
        RSBS     R1,R1,#+0
// 1256   	}
        B.N      ??set_position_5
// 1257   else
// 1258   	{
// 1259 	  count_position[X_AXIS] = a;
// 1260 	  count_position[Y_AXIS] = b;
??set_position_3:
        STR      R1,[R0, #+20]
// 1261 	  count_position[Z_AXIS] = c;
        LDR      R1,[R6, #+0]
??set_position_5:
        STR      R1,[R0, #+24]
// 1262   	}
// 1263 
// 1264   count_position[E_AXIS] = e;
        LDR      R1,[R7, #+0]
        STR      R1,[R0, #+28]
// 1265   CRITICAL_SECTION_END;
        cpsie i
// 1266 }
        POP      {R0,R4-R9,PC}    ;; return
          CFI EndBlock cfiBlock10
// 1267 

        SECTION `.text`:CODE:NOROOT(2)
          CFI Block cfiBlock11 Using cfiCommon0
          CFI Function _ZN7Stepper12set_positionERK8AxisEnumRKl
          CFI NoCalls
        THUMB
// 1268 void Stepper::set_position(const AxisEnum &axis, const long &v) {
// 1269   CRITICAL_SECTION_START;
_ZN7Stepper12set_positionERK8AxisEnumRKl:
        cpsid i
// 1270   count_position[axis] = v;
        LDRSB    R0,[R0, #+0]
        LDR.W    R2,??DataTable21_3
        LDR      R1,[R1, #+0]
        ADD      R0,R2,R0, LSL #+2
        STR      R1,[R0, #+16]
// 1271   CRITICAL_SECTION_END;
        cpsie i
// 1272 }
        BX       LR               ;; return
          CFI EndBlock cfiBlock11
// 1273 

        SECTION `.text`:CODE:NOROOT(2)
          CFI Block cfiBlock12 Using cfiCommon0
          CFI Function _ZN7Stepper14set_e_positionERKl
          CFI NoCalls
        THUMB
// 1274 void Stepper::set_e_position(const long &e) {
// 1275   CRITICAL_SECTION_START;
_ZN7Stepper14set_e_positionERKl:
        cpsid i
// 1276   count_position[E_AXIS] = e;
        LDR      R0,[R0, #+0]
        LDR.W    R1,??DataTable21_3
        STR      R0,[R1, #+28]
// 1277   CRITICAL_SECTION_END;
        cpsie i
// 1278 }
        BX       LR               ;; return
          CFI EndBlock cfiBlock12
// 1279 
// 1280 /**
// 1281  * Get a stepper's position in steps.
// 1282  */

        SECTION `.text`:CODE:NOROOT(2)
          CFI Block cfiBlock13 Using cfiCommon0
          CFI Function _ZN7Stepper8positionE8AxisEnum
          CFI NoCalls
        THUMB
// 1283 long Stepper::position(const AxisEnum axis) {
// 1284   CRITICAL_SECTION_START;
// 1285   const long count_pos = count_position[axis];
_ZN7Stepper8positionE8AxisEnum:
        LDR.W    R1,??DataTable21_3
        ADD      R0,R1,R0, LSL #+2
        cpsid i
        LDR      R0,[R0, #+16]
// 1286   CRITICAL_SECTION_END;
        cpsie i
// 1287   return count_pos;
        BX       LR               ;; return
          CFI EndBlock cfiBlock13
// 1288 }
// 1289 
// 1290 /**
// 1291  * Get an axis position according to stepper position(s)
// 1292  * For CORE machines apply translation from ABC to XYZ.
// 1293  */

        SECTION `.text`:CODE:NOROOT(2)
          CFI Block cfiBlock14 Using cfiCommon0
          CFI Function _ZN7Stepper20get_axis_position_mmE8AxisEnum
        THUMB
// 1294 float Stepper::get_axis_position_mm(const AxisEnum axis) {
_ZN7Stepper20get_axis_position_mmE8AxisEnum:
        PUSH     {R4-R6,LR}
          CFI R14 Frame(CFA, -4)
          CFI R6 Frame(CFA, -8)
          CFI R5 Frame(CFA, -12)
          CFI R4 Frame(CFA, -16)
          CFI CFA R13+16
// 1295   float axis_steps;
// 1296   //#if IS_CORE
// 1297   if(MACHINETPYE & IS_CORE) {
        LDR.N    R1,??DataTable20
        MOV      R4,R0
        LDRB     R0,[R1, #+88]
        MOVS     R2,#+252
        TST      R0,R2
        MOV      R0,R4
        BEQ.N    ??get_axis_position_mm_0
// 1298     // Requesting one of the "core" axes?
// 1299     if (axis == CORE_AXIS_1 || axis == CORE_AXIS_2) {
        LDR.W    R2,??DataTable21_5
        LDRB     R3,[R2, #+16]
        CMP      R0,R3
        ITT      NE 
        LDRBNE   R3,[R2, #+17]
        CMPNE    R0,R3
        BNE.N    ??get_axis_position_mm_0
// 1300       CRITICAL_SECTION_START;
        cpsid i
// 1301       // ((a1+a2)+(a1-a2))/2 -> (a1+a2+a1-a2)/2 -> (a1+a1)/2 -> a1
// 1302       // ((a1+a2)-(a1-a2))/2 -> (a1+a2-a1+a2)/2 -> (a2+a2)/2 -> a2
// 1303       axis_steps = 0.5f * (
// 1304         axis == CORE_AXIS_2 ? CORESIGN(count_position[CORE_AXIS_1] - count_position[CORE_AXIS_2])
// 1305                             : count_position[CORE_AXIS_1] + count_position[CORE_AXIS_2]
// 1306       );
        LDRB     R3,[R2, #+17]
        LDRB     R2,[R2, #+16]
        LDR.N    R5,??DataTable19
        ADD      R2,R5,R2, LSL #+2
        CMP      R0,R3
        LDR      R0,[R2, #+16]
        ADD      R6,R5,R3, LSL #+2
        BNE.N    ??get_axis_position_mm_1
        LDR      R2,[R6, #+16]
        LDRB     R1,[R1, #+88]
        SUBS     R0,R0,R2
        MOVS     R2,#+168
        TST      R1,R2
        BEQ.N    ??get_axis_position_mm_2
        RSBS     R0,R0,#+0
        B.N      ??get_axis_position_mm_2
??get_axis_position_mm_1:
        LDR      R1,[R6, #+16]
        ADDS     R0,R1,R0
??get_axis_position_mm_2:
          CFI FunCall __aeabi_i2f
        BL       __aeabi_i2f
        MOV      R1,#+1056964608
          CFI FunCall __aeabi_fmul
        BL       __aeabi_fmul
// 1307       CRITICAL_SECTION_END;
        cpsie i
        B.N      ??get_axis_position_mm_3
// 1308     }
// 1309     else
// 1310       axis_steps = position(axis);
// 1311   	}
// 1312   //#else
// 1313   else
// 1314   {
// 1315     axis_steps = position(axis);
??get_axis_position_mm_0:
          CFI FunCall _ZN7Stepper8positionE8AxisEnum
        BL       _ZN7Stepper8positionE8AxisEnum
          CFI FunCall __aeabi_i2f
        BL       __aeabi_i2f
// 1316   }
// 1317   //#endif
// 1318   return axis_steps * planner.steps_to_mm[axis];
??get_axis_position_mm_3:
        LDR.W    R1,??DataTable21_6
        LDR      R1,[R1, R4, LSL #+2]
        POP      {R4-R6,LR}
          CFI R4 SameValue
          CFI R5 SameValue
          CFI R6 SameValue
          CFI R14 SameValue
          CFI CFA R13+0
          CFI FunCall __aeabi_fmul
        B.W      __aeabi_fmul
          CFI EndBlock cfiBlock14
// 1319 }
// 1320 

        SECTION `.text`:CODE:NOROOT(1)
          CFI Block cfiBlock15 Using cfiCommon0
          CFI Function _ZN7Stepper18finish_and_disableEv
        THUMB
// 1321 void Stepper::finish_and_disable() {
_ZN7Stepper18finish_and_disableEv:
        PUSH     {R3-R5,LR}
          CFI R14 Frame(CFA, -4)
          CFI R5 Frame(CFA, -8)
          CFI R4 Frame(CFA, -12)
          CFI CFA R13+16
// 1322   synchronize();
        LDR.N    R4,??DataTable20_5
        LDR.N    R5,??DataTable20_6
        B.N      ??finish_and_disable_0
??finish_and_disable_1:
          CFI FunCall _Z4idlev
        BL       _Z4idlev
??finish_and_disable_0:
        LDRB     R0,[R5, #+0]
        LDRB     R1,[R4, #+0]
        CMP      R0,R1
        ITTT     EQ 
        LDREQ.W  R0,??DataTable21_3
        LDRSHEQ  R0,[R0, #+10]
        CMPEQ    R0,#+0
        BNE.N    ??finish_and_disable_1
// 1323   disable_all_steppers();
        POP      {R0,R4,R5,LR}
          CFI R4 SameValue
          CFI R5 SameValue
          CFI R14 SameValue
          CFI CFA R13+0
          CFI FunCall _Z20disable_all_steppersv
        B.W      _Z20disable_all_steppersv
          CFI EndBlock cfiBlock15
// 1324 }
// 1325 

        SECTION `.text`:CODE:NOROOT(1)
          CFI Block cfiBlock16 Using cfiCommon0
          CFI Function _ZN7Stepper10quick_stopEv
        THUMB
// 1326 void Stepper::quick_stop() {
_ZN7Stepper10quick_stopEv:
        PUSH     {R3-R5,LR}
          CFI R14 Frame(CFA, -4)
          CFI R5 Frame(CFA, -8)
          CFI R4 Frame(CFA, -12)
          CFI CFA R13+16
// 1327   cleaning_buffer_counter = 5000;
        LDR.N    R4,??DataTable19
// 1328   DISABLE_STEPPER_DRIVER_INTERRUPT();
        LDR.N    R5,??DataTable20_2
        MOVW     R0,#+5000
        STRH     R0,[R4, #+10]
        MOV      R0,R5
          CFI FunCall HAL_TIM_Base_Stop_IT
        BL       HAL_TIM_Base_Stop_IT
        LDR.N    R0,??DataTable20_5
        LDR.N    R1,??DataTable20_6
        B.N      ??quick_stop_0
// 1329   while (planner.blocks_queued()) planner.discard_current_block();
??quick_stop_1:
        LDRB     R2,[R1, #+0]
        LDRB     R3,[R0, #+0]
        CMP      R2,R3
        BEQ.N    ??quick_stop_0
        LDRB     R2,[R0, #+0]
        ADDS     R2,R2,#+1
        AND      R2,R2,#0xF
        STRB     R2,[R0, #+0]
??quick_stop_0:
        LDRB     R2,[R1, #+0]
        LDRB     R3,[R0, #+0]
        CMP      R2,R3
        BNE.N    ??quick_stop_1
// 1330   current_block = NULL;
        MOVS     R0,#+0
        STR      R0,[R4, #+32]
// 1331   ENABLE_STEPPER_DRIVER_INTERRUPT();
        MOV      R0,R5
        POP      {R1,R4,R5,LR}
          CFI R4 SameValue
          CFI R5 SameValue
          CFI R14 SameValue
          CFI CFA R13+0
          CFI FunCall HAL_TIM_Base_Start_IT
        B.W      HAL_TIM_Base_Start_IT
          CFI EndBlock cfiBlock16
// 1332   #if ENABLED(ULTRA_LCD)
// 1333     planner.clear_block_buffer_runtime();
// 1334   #endif
// 1335 }
// 1336 

        SECTION `.text`:CODE:NOROOT(1)
          CFI Block cfiBlock17 Using cfiCommon0
          CFI Function _ZN7Stepper17endstop_triggeredE8AxisEnum
        THUMB
// 1337 void Stepper::endstop_triggered(AxisEnum axis) {
_ZN7Stepper17endstop_triggeredE8AxisEnum:
        PUSH     {R3-R5,LR}
          CFI R14 Frame(CFA, -4)
          CFI R5 Frame(CFA, -8)
          CFI R4 Frame(CFA, -12)
          CFI CFA R13+16
        MOV      R4,R0
        LDR.N    R0,??DataTable20
        LDR.N    R5,??DataTable19
        LDRSH    R1,[R0, #+88]
        MOVS     R0,#+252
        TST      R1,R0
        BEQ.N    ??endstop_triggered_0
// 1338 
// 1339   //#if IS_CORE
// 1340   if(MACHINETPYE & IS_CORE) {
// 1341 
// 1342     endstops_trigsteps[axis] = 0.5f * (
// 1343       axis == CORE_AXIS_2 ? CORESIGN(count_position[CORE_AXIS_1] - count_position[CORE_AXIS_2])
// 1344                           : count_position[CORE_AXIS_1] + count_position[CORE_AXIS_2]
// 1345     );
        LDR.W    R0,??DataTable21_5
        LDRB     R2,[R0, #+17]
        LDRB     R0,[R0, #+16]
        ADD      R0,R5,R0, LSL #+2
        ADD      R3,R5,R2, LSL #+2
        LDR      R0,[R0, #+16]
        CMP      R4,R2
        BNE.N    ??endstop_triggered_1
        LDR      R2,[R3, #+16]
        SUBS     R0,R0,R2
        MOVS     R2,#+168
        TST      R1,R2
        BEQ.N    ??endstop_triggered_2
        RSBS     R0,R0,#+0
        B.N      ??endstop_triggered_2
??endstop_triggered_1:
        LDR      R1,[R3, #+16]
        ADDS     R0,R1,R0
??endstop_triggered_2:
          CFI FunCall __aeabi_i2f
        BL       __aeabi_i2f
        MOV      R1,#+1056964608
          CFI FunCall __aeabi_fmul
        BL       __aeabi_fmul
          CFI FunCall __aeabi_f2iz
        BL       __aeabi_f2iz
        ADD      R1,R5,R4, LSL #+2
        STR      R0,[R1, #+64]
        B.N      ??endstop_triggered_3
// 1346   }
??endstop_triggered_0:
        ADD      R0,R5,R4, LSL #+2
        LDR      R1,[R0, #+16]
        STR      R1,[R0, #+64]
// 1347   else
// 1348   //#else // !COREXY && !COREXZ && !COREYZ
// 1349   {
// 1350     endstops_trigsteps[axis] = count_position[axis];
// 1351   }
// 1352   //#endif // !COREXY && !COREXZ && !COREYZ
// 1353 
// 1354   kill_current_block();
??endstop_triggered_3:
        LDR      R0,[R5, #+32]
        LDR      R0,[R0, #+20]
        STR      R0,[R5, #+52]
// 1355   cleaning_buffer_counter = -1; // Discard the rest of the move
        MOV      R0,#-1
        STRH     R0,[R5, #+10]
// 1356 }
        POP      {R0,R4,R5,PC}    ;; return
          CFI EndBlock cfiBlock17

        SECTION `.text`:CODE:NOROOT(2)
        SECTION_TYPE SHT_PROGBITS, 0
        DATA
??DataTable19:
        DC32     _ZN7Stepper15count_directionE

        SECTION `.text`:CODE:NOROOT(2)
        SECTION_TYPE SHT_PROGBITS, 0
        DATA
??DataTable19_1:
        DC32     gArrayGpioPort

        SECTION `.text`:CODE:NOROOT(2)
        SECTION_TYPE SHT_PROGBITS, 0
        DATA
??DataTable19_2:
        DC32     gArrayGpioPin
// 1357 

        SECTION `.text`:CODE:NOROOT(2)
          CFI Block cfiBlock18 Using cfiCommon0
          CFI Function _ZN7Stepper16report_positionsEv
        THUMB
// 1358 void Stepper::report_positions() {
_ZN7Stepper16report_positionsEv:
        PUSH     {R3-R9,LR}
          CFI R14 Frame(CFA, -4)
          CFI R9 Frame(CFA, -8)
          CFI R8 Frame(CFA, -12)
          CFI R7 Frame(CFA, -16)
          CFI R6 Frame(CFA, -20)
          CFI R5 Frame(CFA, -24)
          CFI R4 Frame(CFA, -28)
          CFI CFA R13+32
// 1359   CRITICAL_SECTION_START;
// 1360   const long xpos = count_position[X_AXIS],
        LDR.W    R0,??DataTable21_3
        LDR.W    R8,??DataTable20
        cpsid i
        LDR      R7,[R0, #+16]
// 1361              ypos = count_position[Y_AXIS],
        LDR      R6,[R0, #+20]
// 1362              zpos = count_position[Z_AXIS];
        LDR      R4,[R0, #+24]
// 1363   CRITICAL_SECTION_END;
        cpsie i
// 1364 
// 1365   //#if CORE_IS_XY || CORE_IS_XZ || IS_SCARA
// 1366   if(MACHINETPYE&IS_SCARA || MACHINETPYE&CORE_IS_XZ || MACHINETPYE&IS_SCARA)
        LDRSH    R0,[R8, #+88]
        MOV      R1,#+816
        TST      R0,R1
        ITT      EQ 
        MOVEQ    R1,#+768
        TSTEQ    R0,R1
        BEQ.N    ??report_positions_0
// 1367     {SERIAL_PROTOCOLPGM(MSG_COUNT_A);}
        ADR.W    R9,`?<Constant " Count A:">`
        LDR.W    R5,??DataTable21_7
??report_positions_1:
        LDRSB    R1,[R9], #+1
        MOVS     R0,R1
        BEQ.N    ??report_positions_2
        UXTB     R1,R1
        MOV      R0,R5
          CFI FunCall _ZN10USARTClass5writeEh
        BL       _ZN10USARTClass5writeEh
        B.N      ??report_positions_1
// 1368   //#else
// 1369   else
// 1370     {SERIAL_PROTOCOLPGM(MSG_COUNT_X);}
??report_positions_0:
        ADR.W    R9,`?<Constant " Count X:">`
        LDR.W    R5,??DataTable21_7
        B.N      ??report_positions_3
??report_positions_4:
        UXTB     R1,R1
        MOV      R0,R5
          CFI FunCall _ZN10USARTClass5writeEh
        BL       _ZN10USARTClass5writeEh
??report_positions_3:
        LDRSB    R1,[R9], #+1
        MOVS     R0,R1
        BNE.N    ??report_positions_4
// 1371   //#endif
// 1372   SERIAL_PROTOCOL(xpos);
??report_positions_2:
        MOVS     R2,#+10
        MOV      R1,R7
        MOV      R0,R5
          CFI FunCall _ZN5Print5printEli
        BL       _ZN5Print5printEli
// 1373 
// 1374   //#if CORE_IS_XY || CORE_IS_YZ || IS_SCARA
// 1375   if(MACHINETPYE&CORE_IS_XY || MACHINETPYE&CORE_IS_YZ || MACHINETPYE&IS_SCARA)
        LDRH     R0,[R8, #+88]
        MOV      R1,#+972
        TST      R0,R1
        BEQ.N    ??report_positions_5
// 1376     {SERIAL_PROTOCOLPGM(" B:");}
        ADR.N    R7,??DataTable20_8  ;; " B:"
??report_positions_6:
        LDRSB    R1,[R7], #+1
        MOVS     R0,R1
        BEQ.N    ??report_positions_7
        UXTB     R1,R1
        MOV      R0,R5
          CFI FunCall _ZN10USARTClass5writeEh
        BL       _ZN10USARTClass5writeEh
        B.N      ??report_positions_6
// 1377   //#else
// 1378   else
// 1379     {SERIAL_PROTOCOLPGM(" Y:");}
??report_positions_5:
        ADR.N    R7,??DataTable20_9  ;; " Y:"
        B.N      ??report_positions_8
??report_positions_9:
        UXTB     R1,R1
        MOV      R0,R5
          CFI FunCall _ZN10USARTClass5writeEh
        BL       _ZN10USARTClass5writeEh
??report_positions_8:
        LDRSB    R1,[R7], #+1
        MOVS     R0,R1
        BNE.N    ??report_positions_9
// 1380   //#endif
// 1381   SERIAL_PROTOCOL(ypos);
??report_positions_7:
        MOVS     R2,#+10
        MOV      R1,R6
        MOV      R0,R5
          CFI FunCall _ZN5Print5printEli
        BL       _ZN5Print5printEli
// 1382 
// 1383   //#if CORE_IS_XZ || CORE_IS_YZ
// 1384   if(MACHINETPYE&CORE_IS_XZ || MACHINETPYE&CORE_IS_YZ)
        LDRB     R0,[R8, #+88]
        MOVS     R1,#+240
        TST      R0,R1
        BEQ.N    ??report_positions_10
// 1385     {SERIAL_PROTOCOLPGM(" C:");}
        ADR.N    R6,??DataTable20_10  ;; " C:"
??report_positions_11:
        LDRSB    R1,[R6], #+1
        MOVS     R0,R1
        BEQ.N    ??report_positions_12
        UXTB     R1,R1
        MOV      R0,R5
          CFI FunCall _ZN10USARTClass5writeEh
        BL       _ZN10USARTClass5writeEh
        B.N      ??report_positions_11
// 1386   //#else
// 1387   else
// 1388     {SERIAL_PROTOCOLPGM(" Z:");}
??report_positions_10:
        ADR.N    R6,??DataTable20_11  ;; " Z:"
        B.N      ??report_positions_13
??report_positions_14:
        UXTB     R1,R1
        MOV      R0,R5
          CFI FunCall _ZN10USARTClass5writeEh
        BL       _ZN10USARTClass5writeEh
??report_positions_13:
        LDRSB    R1,[R6], #+1
        MOVS     R0,R1
        BNE.N    ??report_positions_14
// 1389   //#endif
// 1390   SERIAL_PROTOCOL(zpos);
??report_positions_12:
        MOVS     R2,#+10
        MOV      R1,R4
        MOV      R0,R5
          CFI FunCall _ZN5Print5printEli
        BL       _ZN5Print5printEli
// 1391 
// 1392   SERIAL_EOL();
        MOV      R0,R5
        POP      {R2,R4-R9,LR}
          CFI R4 SameValue
          CFI R5 SameValue
          CFI R6 SameValue
          CFI R7 SameValue
          CFI R8 SameValue
          CFI R9 SameValue
          CFI R14 SameValue
          CFI CFA R13+0
        MOVS     R1,#+10
          CFI FunCall _ZN10USARTClass5writeEh
        B.W      _ZN10USARTClass5writeEh
          CFI EndBlock cfiBlock18
// 1393 }

        SECTION `.text`:CODE:NOROOT(2)
        SECTION_TYPE SHT_PROGBITS, 0
        DATA
??DataTable20:
        DC32     mksCfg

        SECTION `.text`:CODE:NOROOT(2)
        SECTION_TYPE SHT_PROGBITS, 0
        DATA
??DataTable20_1:
        DC32     htim4

        SECTION `.text`:CODE:NOROOT(2)
        SECTION_TYPE SHT_PROGBITS, 0
        DATA
??DataTable20_2:
        DC32     htim2

        SECTION `.text`:CODE:NOROOT(2)
        SECTION_TYPE SHT_PROGBITS, 0
        DATA
??DataTable20_3:
        DC32     _ZN8Endstops7enabledE

        SECTION `.text`:CODE:NOROOT(2)
        SECTION_TYPE SHT_PROGBITS, 0
        DATA
??DataTable20_4:
        DC32     _ZN8Endstops15z_probe_enabledE

        SECTION `.text`:CODE:NOROOT(2)
        SECTION_TYPE SHT_PROGBITS, 0
        DATA
??DataTable20_5:
        DC32     _ZN7Planner17block_buffer_tailE

        SECTION `.text`:CODE:NOROOT(2)
        SECTION_TYPE SHT_PROGBITS, 0
        DATA
??DataTable20_6:
        DC32     _ZN7Planner17block_buffer_headE

        SECTION `.text`:CODE:NOROOT(2)
        SECTION_TYPE SHT_PROGBITS, 0
        DATA
??DataTable20_7:
        DC32     _ZN7Planner12block_bufferE

        SECTION `.text`:CODE:NOROOT(2)
        SECTION_TYPE SHT_PROGBITS, 0
        DATA
??DataTable20_8:
        DC8      " B:"

        SECTION `.text`:CODE:NOROOT(2)
        SECTION_TYPE SHT_PROGBITS, 0
        DATA
??DataTable20_9:
        DC8      " Y:"

        SECTION `.text`:CODE:NOROOT(2)
        SECTION_TYPE SHT_PROGBITS, 0
        DATA
??DataTable20_10:
        DC8      " C:"

        SECTION `.text`:CODE:NOROOT(2)
        SECTION_TYPE SHT_PROGBITS, 0
        DATA
??DataTable20_11:
        DC8      " Z:"

        SECTION `.text`:CODE:NOROOT(2)
        SECTION_TYPE SHT_PROGBITS, 0
        DATA
??DataTable20_12:
        DC32     _ZZN7Stepper25trapezoid_generator_resetEvE13last_extruder

        SECTION `.text`:CODE:NOROOT(2)
        SECTION_TYPE SHT_PROGBITS, 0
        DATA
??DataTable20_13:
        DC32     _ZN8Endstops16old_endstop_bitsE

        SECTION `.text`:CODE:NOROOT(2)
        SECTION_TYPE SHT_PROGBITS, 0
        DATA
??DataTable20_14:
        DC32     gCfgItems

        SECTION `.text`:CODE:NOROOT(2)
        SECTION_TYPE SHT_PROGBITS, 0
        DATA
??DataTable20_15:
        DC32     mksCfg+0x101
// 1394 
// 1395 #if ENABLED(BABYSTEPPING)
// 1396 
// 1397   #if ENABLED(DELTA)
// 1398     #define CYCLES_EATEN_BABYSTEP (2 * 15)
// 1399   #else
// 1400     #define CYCLES_EATEN_BABYSTEP 0
// 1401   #endif
// 1402   #define EXTRA_CYCLES_BABYSTEP (STEP_PULSE_CYCLES - (CYCLES_EATEN_BABYSTEP))
// 1403 
// 1404   #define _ENABLE(AXIS) enable_## AXIS()
// 1405   #define _READ_DIR(AXIS) AXIS ##_DIR_READ
// 1406   #define _INVERT_DIR(AXIS) INVERT_## AXIS ##_DIR
// 1407   #define _APPLY_DIR(AXIS, INVERT) AXIS ##_APPLY_DIR(INVERT, true)
// 1408 
// 1409   #if EXTRA_CYCLES_BABYSTEP > 20
// 1410     #define _SAVE_START const uint32_t pulse_start = TCNT0
// 1411     #define _PULSE_WAIT while (EXTRA_CYCLES_BABYSTEP > (uint32_t)(TCNT0 - pulse_start) * (INT0_PRESCALER)) { /* nada */ }
// 1412   #else
// 1413     #define _SAVE_START NOOP
// 1414     #if EXTRA_CYCLES_BABYSTEP > 0
// 1415       #define _PULSE_WAIT DELAY_NOPS(EXTRA_CYCLES_BABYSTEP)
// 1416     #elif STEP_PULSE_CYCLES > 0
// 1417       #define _PULSE_WAIT NOOP
// 1418     #elif ENABLED(DELTA)
// 1419       #define _PULSE_WAIT NOOP//for(uint8_t i=0;i<=255;i++)//HAL_Delay(2);//delayMicroseconds(2);
// 1420     #else
// 1421       #define _PULSE_WAIT NOOP//for(uint8_t i=0;i<=255;i++)//HAL_Delay(4);//delayMicroseconds(4);
// 1422     #endif
// 1423   #endif
// 1424 
// 1425   #define BABYSTEP_AXIS(AXIS, INVERT) {                     \ 
// 1426       const uint8_t old_dir = _READ_DIR(AXIS);              \ 
// 1427       _ENABLE(AXIS);                                        \ 
// 1428       _SAVE_START;                                          \ 
// 1429       _APPLY_DIR(AXIS, (GPIO_PinState)(_INVERT_DIR(AXIS)^direction^INVERT)); \ 
// 1430       _APPLY_STEP(AXIS)(!_INVERT_STEP_PIN(AXIS), true);     \ 
// 1431       _PULSE_WAIT;                                          \ 
// 1432       _APPLY_STEP(AXIS)(_INVERT_STEP_PIN(AXIS), true);      \ 
// 1433       _APPLY_DIR(AXIS, (GPIO_PinState)old_dir);                            \ 
// 1434     }
// 1435 
// 1436   // MUST ONLY BE CALLED BY AN ISR,
// 1437   // No other ISR should ever interrupt this!

        SECTION `.text`:CODE:NOROOT(2)
          CFI Block cfiBlock19 Using cfiCommon0
          CFI Function _ZN7Stepper8babystepE8AxisEnumb
        THUMB
// 1438   void Stepper::babystep(const AxisEnum axis, const bool direction) {
_ZN7Stepper8babystepE8AxisEnumb:
        PUSH     {R4-R10,LR}
          CFI R14 Frame(CFA, -4)
          CFI R10 Frame(CFA, -8)
          CFI R9 Frame(CFA, -12)
          CFI R8 Frame(CFA, -16)
          CFI R7 Frame(CFA, -20)
          CFI R6 Frame(CFA, -24)
          CFI R5 Frame(CFA, -28)
          CFI R4 Frame(CFA, -32)
          CFI CFA R13+32
        MOV      R4,R1
// 1439     cli();
        cpsid i
// 1440 
// 1441     switch (axis) {
        CBZ.N    R0,??babystep_0
        CMP      R0,#+2
        BEQ.N    ??babystep_1
        BCC.N    ??babystep_2
        B.N      ??babystep_3
// 1442 
// 1443       #if ENABLED(BABYSTEP_XY)
// 1444 
// 1445         case X_AXIS:
// 1446           BABYSTEP_AXIS(X, false);
??babystep_0:
        LDR.N    R5,??DataTable21_8
        LDR.N    R6,??DataTable21_9
        LDR      R0,[R5, #+0]
        LDRH     R1,[R6, #+0]
          CFI FunCall HAL_GPIO_ReadPin
        BL       HAL_GPIO_ReadPin
        LDR.W    R9,??DataTable21_4
        LDRH     R1,[R6, #+4]
        LDRSB    R2,[R9, #+260]
        MOV      R7,R0
        LDR      R0,[R5, #+8]
          CFI FunCall HAL_GPIO_WritePin
        BL       HAL_GPIO_WritePin
        LDRSB    R0,[R9, #+0]
        LDRH     R1,[R6, #+0]
        EOR      R2,R4,R0
        LDR      R0,[R5, #+0]
        SXTB     R2,R2
          CFI FunCall HAL_GPIO_WritePin
        BL       HAL_GPIO_WritePin
        LDRH     R1,[R6, #+2]
        LDR      R0,[R5, #+4]
        MOVS     R2,#+1
          CFI FunCall HAL_GPIO_WritePin
        BL       HAL_GPIO_WritePin
        LDRH     R1,[R6, #+2]
        LDR      R0,[R5, #+4]
        MOVS     R2,#+0
          CFI FunCall HAL_GPIO_WritePin
        BL       HAL_GPIO_WritePin
        LDRH     R1,[R6, #+0]
        LDR      R0,[R5, #+0]
        MOV      R2,R7
        B.N      ??babystep_4
// 1447           break;
// 1448 
// 1449         case Y_AXIS:
// 1450           BABYSTEP_AXIS(Y, false);
??babystep_2:
        LDR.N    R5,??DataTable21_8
        LDR.N    R6,??DataTable21_9
        LDR      R0,[R5, #+20]
        LDRH     R1,[R6, #+10]
          CFI FunCall HAL_GPIO_ReadPin
        BL       HAL_GPIO_ReadPin
        LDR.W    R9,??DataTable21_4
        LDRH     R1,[R6, #+14]
        LDRSB    R2,[R9, #+261]
        MOV      R7,R0
        LDR      R0,[R5, #+28]
          CFI FunCall HAL_GPIO_WritePin
        BL       HAL_GPIO_WritePin
        LDRSB    R0,[R9, #+1]
        LDRH     R1,[R6, #+10]
        EOR      R2,R4,R0
        LDR      R0,[R5, #+20]
        SXTB     R2,R2
          CFI FunCall HAL_GPIO_WritePin
        BL       HAL_GPIO_WritePin
        LDRH     R1,[R6, #+12]
        LDR      R0,[R5, #+24]
        MOVS     R2,#+1
          CFI FunCall HAL_GPIO_WritePin
        BL       HAL_GPIO_WritePin
        LDRH     R1,[R6, #+12]
        LDR      R0,[R5, #+24]
        MOVS     R2,#+0
          CFI FunCall HAL_GPIO_WritePin
        BL       HAL_GPIO_WritePin
        LDRH     R1,[R6, #+10]
        LDR      R0,[R5, #+20]
        MOV      R2,R7
        B.N      ??babystep_4
// 1451           break;
// 1452 
// 1453       #endif
// 1454 
// 1455       case Z_AXIS: {
// 1456 
// 1457         //#if DISABLED(DELTA)
// 1458 	if(MACHINETPYE != DELTA)
??babystep_1:
        LDR.W    R9,??DataTable21_4
        LDR.N    R5,??DataTable21_8
        LDRSH    R0,[R9, #+88]
        LDR.N    R6,??DataTable21_9
        CMP      R0,#+2
        BEQ.W    ??babystep_5
// 1459 	{
// 1460 
// 1461           BABYSTEP_AXIS(Z, BABYSTEP_INVERT_Z);
        LDRH     R1,[R6, #+20]
        LDR      R0,[R5, #+40]
          CFI FunCall HAL_GPIO_ReadPin
        BL       HAL_GPIO_ReadPin
        LDRSB    R2,[R9, #+262]
        LDRH     R1,[R6, #+24]
        UXTB     R8,R0
        LDR      R0,[R5, #+48]
          CFI FunCall HAL_GPIO_WritePin
        BL       HAL_GPIO_WritePin
        LDRSB    R2,[R9, #+262]
        LDRH     R1,[R6, #+40]
        LDR      R0,[R5, #+80]
          CFI FunCall HAL_GPIO_WritePin
        BL       HAL_GPIO_WritePin
        LDRSB    R0,[R9, #+2]
        LDRH     R1,[R6, #+20]
        EOR      R2,R4,R0
        LDR      R0,[R5, #+40]
        SXTB     R2,R2
          CFI FunCall HAL_GPIO_WritePin
        BL       HAL_GPIO_WritePin
        LDRB     R0,[R9, #+257]
        CMP      R0,#+1
        BNE.N    ??babystep_6
        LDRSB    R0,[R9, #+2]
        LDRH     R1,[R6, #+36]
        EOR      R2,R4,R0
        LDR      R0,[R5, #+72]
        SXTB     R2,R2
          CFI FunCall HAL_GPIO_WritePin
        BL       HAL_GPIO_WritePin
??babystep_6:
        LDRB     R0,[R9, #+258]
        CMP      R0,#+1
        BNE.N    ??babystep_7
        LDR.N    R4,??DataTable21_3
        LDRB     R0,[R4, #+4]
        CBZ.N    R0,??babystep_8
        LDR.N    R7,??DataTable21_10
        LDRSB    R1,[R9, #+7]
        LDRH     R0,[R7, #+0]
        CMP      R1,#+0
        BPL.N    ??babystep_9
        LSLS     R0,R0,#+29
        ITT      MI 
        LDRSBMI  R0,[R4, #+2]
        CMPMI    R0,#+0
        BMI.N    ??babystep_10
        LDRB     R0,[R4, #+6]
        CBNZ.N   R0,??babystep_10
        LDRH     R1,[R6, #+22]
        LDR      R0,[R5, #+44]
        MOVS     R2,#+1
          CFI FunCall HAL_GPIO_WritePin
        BL       HAL_GPIO_WritePin
??babystep_10:
        LDRH     R0,[R7, #+0]
        LSLS     R0,R0,#+20
        BPL.N    ??babystep_11
        LDRSB    R0,[R4, #+2]
        CMP      R0,#+0
        BMI.N    ??babystep_12
        B.N      ??babystep_11
??babystep_9:
        LSLS     R0,R0,#+25
        BPL.N    ??babystep_13
        LDRSB    R0,[R4, #+2]
        CMP      R0,#+1
        BGE.N    ??babystep_14
??babystep_13:
        LDRB     R0,[R4, #+6]
        CBNZ.N   R0,??babystep_14
        LDRH     R1,[R6, #+22]
        LDR      R0,[R5, #+44]
        MOVS     R2,#+1
          CFI FunCall HAL_GPIO_WritePin
        BL       HAL_GPIO_WritePin
??babystep_14:
        LDRH     R0,[R7, #+0]
        LSLS     R0,R0,#+19
        BPL.N    ??babystep_11
        LDRSB    R0,[R4, #+2]
        CMP      R0,#+1
        BGE.N    ??babystep_12
??babystep_11:
        LDRB     R0,[R4, #+7]
        CBNZ.N   R0,??babystep_12
        B.N      ??babystep_15
??babystep_8:
        LDRH     R1,[R6, #+22]
        LDR      R0,[R5, #+44]
        MOVS     R2,#+1
          CFI FunCall HAL_GPIO_WritePin
        BL       HAL_GPIO_WritePin
        B.N      ??babystep_15
??babystep_7:
        LDRH     R1,[R6, #+22]
        LDR      R0,[R5, #+44]
        MOVS     R2,#+1
          CFI FunCall HAL_GPIO_WritePin
        BL       HAL_GPIO_WritePin
        LDRB     R0,[R9, #+257]
        CMP      R0,#+1
        BNE.N    ??babystep_12
??babystep_15:
        LDRH     R1,[R6, #+38]
        LDR      R0,[R5, #+76]
        MOVS     R2,#+1
          CFI FunCall HAL_GPIO_WritePin
        BL       HAL_GPIO_WritePin
??babystep_12:
        LDRB     R0,[R9, #+258]
        CMP      R0,#+1
        BNE.N    ??babystep_16
        LDR.N    R4,??DataTable21_3
        LDRB     R0,[R4, #+4]
        CBZ.N    R0,??babystep_17
        LDR.N    R7,??DataTable21_10
        LDRSB    R1,[R9, #+7]
        LDRH     R0,[R7, #+0]
        CMP      R1,#+0
        BPL.N    ??babystep_18
        LSLS     R0,R0,#+29
        ITT      MI 
        LDRSBMI  R0,[R4, #+2]
        CMPMI    R0,#+0
        BMI.N    ??babystep_19
        LDRB     R0,[R4, #+6]
        CBNZ.N   R0,??babystep_19
        LDRH     R1,[R6, #+22]
        LDR      R0,[R5, #+44]
        MOVS     R2,#+0
          CFI FunCall HAL_GPIO_WritePin
        BL       HAL_GPIO_WritePin
??babystep_19:
        LDRH     R0,[R7, #+0]
        LSLS     R0,R0,#+20
        BPL.N    ??babystep_20
        LDRSB    R0,[R4, #+2]
        CMP      R0,#+0
        BMI.N    ??babystep_21
        B.N      ??babystep_20
??babystep_18:
        LSLS     R0,R0,#+25
        BPL.N    ??babystep_22
        LDRSB    R0,[R4, #+2]
        CMP      R0,#+1
        BGE.N    ??babystep_23
??babystep_22:
        LDRB     R0,[R4, #+6]
        CBNZ.N   R0,??babystep_23
        LDRH     R1,[R6, #+22]
        LDR      R0,[R5, #+44]
        MOVS     R2,#+0
          CFI FunCall HAL_GPIO_WritePin
        BL       HAL_GPIO_WritePin
??babystep_23:
        LDRH     R0,[R7, #+0]
        LSLS     R0,R0,#+19
        BPL.N    ??babystep_20
        LDRSB    R0,[R4, #+2]
        CMP      R0,#+1
        BGE.N    ??babystep_21
??babystep_20:
        LDRB     R0,[R4, #+7]
        CBNZ.N   R0,??babystep_21
        B.N      ??babystep_24
??babystep_17:
        LDRH     R1,[R6, #+22]
        LDR      R0,[R5, #+44]
        MOVS     R2,#+0
          CFI FunCall HAL_GPIO_WritePin
        BL       HAL_GPIO_WritePin
        B.N      ??babystep_24
??babystep_16:
        LDRH     R1,[R6, #+22]
        LDR      R0,[R5, #+44]
        MOVS     R2,#+0
          CFI FunCall HAL_GPIO_WritePin
        BL       HAL_GPIO_WritePin
        LDRB     R0,[R9, #+257]
        CMP      R0,#+1
        BNE.N    ??babystep_21
??babystep_24:
        LDRH     R1,[R6, #+38]
        LDR      R0,[R5, #+76]
        MOVS     R2,#+0
          CFI FunCall HAL_GPIO_WritePin
        BL       HAL_GPIO_WritePin
??babystep_21:
        LDRH     R1,[R6, #+20]
        LDR      R0,[R5, #+40]
        SXTB     R2,R8
          CFI FunCall HAL_GPIO_WritePin
        BL       HAL_GPIO_WritePin
        LDRB     R0,[R9, #+257]
        CMP      R0,#+1
        BNE.N    ??babystep_3
        LDRH     R1,[R6, #+36]
        LDR      R0,[R5, #+72]
        SXTB     R2,R8
        B.N      ??babystep_4
// 1462 	}
// 1463         //#else // DELTA
// 1464 	else
// 1465 	{
// 1466           const bool z_direction = direction ^ BABYSTEP_INVERT_Z;
// 1467 
// 1468           enable_X();
??babystep_5:
        LDRSB    R2,[R9, #+260]
        LDRH     R1,[R6, #+4]
        LDR      R0,[R5, #+8]
          CFI FunCall HAL_GPIO_WritePin
        BL       HAL_GPIO_WritePin
// 1469           enable_Y();
        LDRSB    R2,[R9, #+261]
        LDRH     R1,[R6, #+14]
        LDR      R0,[R5, #+28]
          CFI FunCall HAL_GPIO_WritePin
        BL       HAL_GPIO_WritePin
// 1470           enable_Z();
        LDRSB    R2,[R9, #+262]
        LDRH     R1,[R6, #+24]
        LDR      R0,[R5, #+48]
          CFI FunCall HAL_GPIO_WritePin
        BL       HAL_GPIO_WritePin
        LDRSB    R2,[R9, #+262]
        LDRH     R1,[R6, #+40]
        LDR      R0,[R5, #+80]
          CFI FunCall HAL_GPIO_WritePin
        BL       HAL_GPIO_WritePin
// 1471 
// 1472           const uint8_t old_x_dir_pin = X_DIR_READ,
        LDRH     R1,[R6, #+0]
        LDR      R0,[R5, #+0]
          CFI FunCall HAL_GPIO_ReadPin
        BL       HAL_GPIO_ReadPin
// 1473                         old_y_dir_pin = Y_DIR_READ,
        LDRH     R1,[R6, #+10]
        MOV      R8,R0
        LDR      R0,[R5, #+20]
          CFI FunCall HAL_GPIO_ReadPin
        BL       HAL_GPIO_ReadPin
// 1474                         old_z_dir_pin = Z_DIR_READ;
        LDRH     R1,[R6, #+20]
        MOV      R7,R0
        LDR      R0,[R5, #+40]
          CFI FunCall HAL_GPIO_ReadPin
        BL       HAL_GPIO_ReadPin
// 1475 
// 1476           X_DIR_WRITE((GPIO_PinState)(INVERT_X_DIR ^ z_direction));
        LDRH     R1,[R6, #+0]
        MOV      R10,R0
        LDRSB    R0,[R9, #+0]
        EOR      R2,R4,R0
        LDR      R0,[R5, #+0]
        SXTB     R2,R2
          CFI FunCall HAL_GPIO_WritePin
        BL       HAL_GPIO_WritePin
// 1477           Y_DIR_WRITE((GPIO_PinState)(INVERT_Y_DIR ^ z_direction));
        LDRSB    R0,[R9, #+1]
        LDRH     R1,[R6, #+10]
        EOR      R2,R4,R0
        LDR      R0,[R5, #+20]
        SXTB     R2,R2
          CFI FunCall HAL_GPIO_WritePin
        BL       HAL_GPIO_WritePin
// 1478           Z_DIR_WRITE((GPIO_PinState)(INVERT_Z_DIR ^ z_direction));
        LDRSB    R0,[R9, #+2]
        LDRH     R1,[R6, #+20]
        EOR      R2,R4,R0
        LDR      R0,[R5, #+40]
        SXTB     R2,R2
          CFI FunCall HAL_GPIO_WritePin
        BL       HAL_GPIO_WritePin
// 1479 
// 1480           _SAVE_START;
// 1481 
// 1482           X_STEP_WRITE(!INVERT_X_STEP_PIN);
        LDRH     R1,[R6, #+2]
        LDR      R0,[R5, #+4]
        MOVS     R2,#+1
          CFI FunCall HAL_GPIO_WritePin
        BL       HAL_GPIO_WritePin
// 1483           Y_STEP_WRITE(!INVERT_Y_STEP_PIN);
        LDRH     R1,[R6, #+12]
        LDR      R0,[R5, #+24]
        MOVS     R2,#+1
          CFI FunCall HAL_GPIO_WritePin
        BL       HAL_GPIO_WritePin
// 1484           Z_STEP_WRITE(!INVERT_Z_STEP_PIN);
        LDRH     R1,[R6, #+22]
        LDR      R0,[R5, #+44]
        MOVS     R2,#+1
          CFI FunCall HAL_GPIO_WritePin
        BL       HAL_GPIO_WritePin
// 1485 
// 1486           _PULSE_WAIT;
// 1487 
// 1488           X_STEP_WRITE(INVERT_X_STEP_PIN);
        LDRH     R1,[R6, #+2]
        LDR      R0,[R5, #+4]
        MOVS     R2,#+0
          CFI FunCall HAL_GPIO_WritePin
        BL       HAL_GPIO_WritePin
// 1489           Y_STEP_WRITE(INVERT_Y_STEP_PIN);
        LDRH     R1,[R6, #+12]
        LDR      R0,[R5, #+24]
        MOVS     R2,#+0
          CFI FunCall HAL_GPIO_WritePin
        BL       HAL_GPIO_WritePin
// 1490           Z_STEP_WRITE(INVERT_Z_STEP_PIN);
        LDRH     R1,[R6, #+22]
        LDR      R0,[R5, #+44]
        MOVS     R2,#+0
          CFI FunCall HAL_GPIO_WritePin
        BL       HAL_GPIO_WritePin
// 1491 
// 1492           // Restore direction bits
// 1493           X_DIR_WRITE(old_x_dir_pin);
        LDRH     R1,[R6, #+0]
        LDR      R0,[R5, #+0]
        MOV      R2,R8
          CFI FunCall HAL_GPIO_WritePin
        BL       HAL_GPIO_WritePin
// 1494           Y_DIR_WRITE(old_y_dir_pin);
        LDRH     R1,[R6, #+10]
        LDR      R0,[R5, #+20]
        MOV      R2,R7
          CFI FunCall HAL_GPIO_WritePin
        BL       HAL_GPIO_WritePin
// 1495           Z_DIR_WRITE(old_z_dir_pin);
        LDRH     R1,[R6, #+20]
        LDR      R0,[R5, #+40]
        MOV      R2,R10
??babystep_4:
          CFI FunCall HAL_GPIO_WritePin
        BL       HAL_GPIO_WritePin
// 1496 
// 1497         //#endif
// 1498 	}
// 1499 
// 1500       } break;
// 1501 
// 1502       default: break;
// 1503     }
// 1504     sei();
??babystep_3:
        cpsie i
// 1505   }
        POP      {R4-R10,PC}      ;; return
          CFI EndBlock cfiBlock19

        SECTION `.text`:CODE:NOROOT(2)
        SECTION_TYPE SHT_PROGBITS, 0
        DATA
??DataTable21:
        DC32     _ZN11Temperature11in_temp_isrE

        SECTION `.text`:CODE:NOROOT(2)
        SECTION_TYPE SHT_PROGBITS, 0
        DATA
??DataTable21_1:
        DC32     endstops

        SECTION `.text`:CODE:NOROOT(2)
        SECTION_TYPE SHT_PROGBITS, 0
        DATA
??DataTable21_2:
        DC32     axis_known_position

        SECTION `.text`:CODE:NOROOT(2)
        SECTION_TYPE SHT_PROGBITS, 0
        DATA
??DataTable21_3:
        DC32     _ZN7Stepper15count_directionE

        SECTION `.text`:CODE:NOROOT(2)
        SECTION_TYPE SHT_PROGBITS, 0
        DATA
??DataTable21_4:
        DC32     mksCfg

        SECTION `.text`:CODE:NOROOT(2)
        SECTION_TYPE SHT_PROGBITS, 0
        DATA
??DataTable21_5:
        DC32     mksTmp

        SECTION `.text`:CODE:NOROOT(2)
        SECTION_TYPE SHT_PROGBITS, 0
        DATA
??DataTable21_6:
        DC32     _ZN7Planner11steps_to_mmE

        SECTION `.text`:CODE:NOROOT(2)
        SECTION_TYPE SHT_PROGBITS, 0
        DATA
??DataTable21_7:
        DC32     Serial3

        SECTION `.text`:CODE:NOROOT(2)
        SECTION_TYPE SHT_PROGBITS, 0
        DATA
??DataTable21_8:
        DC32     gArrayGpioPort

        SECTION `.text`:CODE:NOROOT(2)
        SECTION_TYPE SHT_PROGBITS, 0
        DATA
??DataTable21_9:
        DC32     gArrayGpioPin

        SECTION `.text`:CODE:NOROOT(2)
        SECTION_TYPE SHT_PROGBITS, 0
        DATA
??DataTable21_10:
        DC32     _ZN8Endstops16old_endstop_bitsE

        SECTION `.text`:CODE:NOROOT(2)
        SECTION_TYPE SHT_PROGBITS, 0
        DATA
`?<Constant " Count A:">`:
        DC8 " Count A:"
        DC8 0, 0

        SECTION `.text`:CODE:NOROOT(2)
        SECTION_TYPE SHT_PROGBITS, 0
        DATA
`?<Constant " Count X:">`:
        DC8 " Count X:"
        DC8 0, 0

        SECTION `.iar_vfe_header`:DATA:NOALLOC:NOROOT(2)
        SECTION_TYPE SHT_PROGBITS, 0
        DATA
        DC32 0

        SECTION __DLIB_PERTHREAD:DATA:REORDER:NOROOT(0)
        SECTION_TYPE SHT_PROGBITS, 0

        SECTION __DLIB_PERTHREAD_init:DATA:REORDER:NOROOT(0)
        SECTION_TYPE SHT_PROGBITS, 0

        SECTION `.rodata`:CONST:REORDER:NOROOT(0)
        SECTION_GROUP _ZTI5Print
// __absolute char const <Typeinfo for Print>
_ZTI5Print:
        DATA
        DC8 0

        SECTION `.rodata`:CONST:NOROOT(2)
        DATA
`?<Constant " B:">`:
        DC8 " B:"

        SECTION `.rodata`:CONST:NOROOT(2)
        DATA
`?<Constant " Y:">`:
        DC8 " Y:"

        SECTION `.rodata`:CONST:NOROOT(2)
        DATA
`?<Constant " C:">`:
        DC8 " C:"

        SECTION `.rodata`:CONST:NOROOT(2)
        DATA
`?<Constant " Z:">`:
        DC8 " Z:"

        END
// 1506 
// 1507 #endif // BABYSTEPPING
// 1508 
// 1509 /**
// 1510  * Software-controlled Stepper Motor Current
// 1511  */
// 1512 
// 1513 #if HAS_DIGIPOTSS
// 1514 
// 1515   // From Arduino DigitalPotControl example
// 1516   void Stepper::digitalPotWrite(const int16_t address, const int16_t value) {
// 1517     WRITE(DIGIPOTSS_PIN, LOW);  // Take the SS pin low to select the chip
// 1518     SPI.transfer(address);      // Send the address and value via SPI
// 1519     SPI.transfer(value);
// 1520     WRITE(DIGIPOTSS_PIN, HIGH); // Take the SS pin high to de-select the chip
// 1521     //delay(10);
// 1522   }
// 1523 
// 1524 #endif // HAS_DIGIPOTSS
// 1525 
// 1526 #if HAS_MOTOR_CURRENT_PWM
// 1527 
// 1528   void Stepper::refresh_motor_power() {
// 1529     for (uint8_t i = 0; i < COUNT(motor_current_setting); ++i) {
// 1530       switch (i) {
// 1531         #if PIN_EXISTS(MOTOR_CURRENT_PWM_XY)
// 1532           case 0:
// 1533         #endif
// 1534         #if PIN_EXISTS(MOTOR_CURRENT_PWM_Z)
// 1535           case 1:
// 1536         #endif
// 1537         #if PIN_EXISTS(MOTOR_CURRENT_PWM_E)
// 1538           case 2:
// 1539         #endif
// 1540             digipot_current(i, motor_current_setting[i]);
// 1541         default: break;
// 1542       }
// 1543     }
// 1544   }
// 1545 
// 1546 #endif // HAS_MOTOR_CURRENT_PWM
// 1547 
// 1548 #if HAS_DIGIPOTSS || HAS_MOTOR_CURRENT_PWM
// 1549 
// 1550   void Stepper::digipot_current(const uint8_t driver, const int current) {
// 1551 
// 1552     #if HAS_DIGIPOTSS
// 1553 
// 1554       const uint8_t digipot_ch[] = DIGIPOT_CHANNELS;
// 1555       digitalPotWrite(digipot_ch[driver], current);
// 1556 
// 1557     #elif HAS_MOTOR_CURRENT_PWM
// 1558 
// 1559       if (WITHIN(driver, 0, 2))
// 1560         motor_current_setting[driver] = current; // update motor_current_setting
// 1561 
// 1562       #define _WRITE_CURRENT_PWM(P) analogWrite(MOTOR_CURRENT_PWM_## P ##_PIN, 255L * current / (MOTOR_CURRENT_PWM_RANGE))
// 1563       switch (driver) {
// 1564         #if PIN_EXISTS(MOTOR_CURRENT_PWM_XY)
// 1565           case 0: _WRITE_CURRENT_PWM(XY); break;
// 1566         #endif
// 1567         #if PIN_EXISTS(MOTOR_CURRENT_PWM_Z)
// 1568           case 1: _WRITE_CURRENT_PWM(Z); break;
// 1569         #endif
// 1570         #if PIN_EXISTS(MOTOR_CURRENT_PWM_E)
// 1571           case 2: _WRITE_CURRENT_PWM(E); break;
// 1572         #endif
// 1573       }
// 1574     #endif
// 1575   }
// 1576 
// 1577   void Stepper::digipot_init() {
// 1578 
// 1579     #if HAS_DIGIPOTSS
// 1580 
// 1581       static const uint8_t digipot_motor_current[] = DIGIPOT_MOTOR_CURRENT;
// 1582 
// 1583       SPI.begin();
// 1584       SET_OUTPUT(DIGIPOTSS_PIN);
// 1585 
// 1586       for (uint8_t i = 0; i < COUNT(digipot_motor_current); i++) {
// 1587         //digitalPotWrite(digipot_ch[i], digipot_motor_current[i]);
// 1588         digipot_current(i, digipot_motor_current[i]);
// 1589       }
// 1590 
// 1591     #elif HAS_MOTOR_CURRENT_PWM
// 1592 
// 1593       #if PIN_EXISTS(MOTOR_CURRENT_PWM_XY)
// 1594         SET_OUTPUT(MOTOR_CURRENT_PWM_XY_PIN);
// 1595       #endif
// 1596       #if PIN_EXISTS(MOTOR_CURRENT_PWM_Z)
// 1597         SET_OUTPUT(MOTOR_CURRENT_PWM_Z_PIN);
// 1598       #endif
// 1599       #if PIN_EXISTS(MOTOR_CURRENT_PWM_E)
// 1600         SET_OUTPUT(MOTOR_CURRENT_PWM_E_PIN);
// 1601       #endif
// 1602 
// 1603       refresh_motor_power();
// 1604 
// 1605       // Set Timer5 to 31khz so the PWM of the motor power is as constant as possible. (removes a buzzing noise)
// 1606       SET_CS5(PRESCALER_1);
// 1607 
// 1608     #endif
// 1609   }
// 1610 
// 1611 #endif
// 1612 
// 1613 #if HAS_MICROSTEPS
// 1614 
// 1615   /**
// 1616    * Software-controlled Microstepping
// 1617    */
// 1618 
// 1619   void Stepper::microstep_init() {
// 1620     SET_OUTPUT(X_MS1_PIN);
// 1621     SET_OUTPUT(X_MS2_PIN);
// 1622     #if HAS_Y_MICROSTEPS
// 1623       SET_OUTPUT(Y_MS1_PIN);
// 1624       SET_OUTPUT(Y_MS2_PIN);
// 1625     #endif
// 1626     #if HAS_Z_MICROSTEPS
// 1627       SET_OUTPUT(Z_MS1_PIN);
// 1628       SET_OUTPUT(Z_MS2_PIN);
// 1629     #endif
// 1630     #if HAS_E0_MICROSTEPS
// 1631       SET_OUTPUT(E0_MS1_PIN);
// 1632       SET_OUTPUT(E0_MS2_PIN);
// 1633     #endif
// 1634     #if HAS_E1_MICROSTEPS
// 1635       SET_OUTPUT(E1_MS1_PIN);
// 1636       SET_OUTPUT(E1_MS2_PIN);
// 1637     #endif
// 1638     #if HAS_E2_MICROSTEPS
// 1639       SET_OUTPUT(E2_MS1_PIN);
// 1640       SET_OUTPUT(E2_MS2_PIN);
// 1641     #endif
// 1642     #if HAS_E3_MICROSTEPS
// 1643       SET_OUTPUT(E3_MS1_PIN);
// 1644       SET_OUTPUT(E3_MS2_PIN);
// 1645     #endif
// 1646     #if HAS_E4_MICROSTEPS
// 1647       SET_OUTPUT(E4_MS1_PIN);
// 1648       SET_OUTPUT(E4_MS2_PIN);
// 1649     #endif
// 1650     static const uint8_t microstep_modes[] = MICROSTEP_MODES;
// 1651     for (uint16_t i = 0; i < COUNT(microstep_modes); i++)
// 1652       microstep_mode(i, microstep_modes[i]);
// 1653   }
// 1654 
// 1655   void Stepper::microstep_ms(const uint8_t driver, const int8_t ms1, const int8_t ms2) {
// 1656     if (ms1 >= 0) switch (driver) {
// 1657       case 0: WRITE(X_MS1_PIN, ms1); break;
// 1658       #if HAS_Y_MICROSTEPS
// 1659         case 1: WRITE(Y_MS1_PIN, ms1); break;
// 1660       #endif
// 1661       #if HAS_Z_MICROSTEPS
// 1662         case 2: WRITE(Z_MS1_PIN, ms1); break;
// 1663       #endif
// 1664       #if HAS_E0_MICROSTEPS
// 1665         case 3: WRITE(E0_MS1_PIN, ms1); break;
// 1666       #endif
// 1667       #if HAS_E1_MICROSTEPS
// 1668         case 4: WRITE(E1_MS1_PIN, ms1); break;
// 1669       #endif
// 1670       #if HAS_E2_MICROSTEPS
// 1671         case 5: WRITE(E2_MS1_PIN, ms1); break;
// 1672       #endif
// 1673       #if HAS_E3_MICROSTEPS
// 1674         case 6: WRITE(E3_MS1_PIN, ms1); break;
// 1675       #endif
// 1676       #if HAS_E4_MICROSTEPS
// 1677         case 7: WRITE(E4_MS1_PIN, ms1); break;
// 1678       #endif
// 1679     }
// 1680     if (ms2 >= 0) switch (driver) {
// 1681       case 0: WRITE(X_MS2_PIN, ms2); break;
// 1682       #if HAS_Y_MICROSTEPS
// 1683         case 1: WRITE(Y_MS2_PIN, ms2); break;
// 1684       #endif
// 1685       #if HAS_Z_MICROSTEPS
// 1686         case 2: WRITE(Z_MS2_PIN, ms2); break;
// 1687       #endif
// 1688       #if HAS_E0_MICROSTEPS
// 1689         case 3: WRITE(E0_MS2_PIN, ms2); break;
// 1690       #endif
// 1691       #if HAS_E1_MICROSTEPS
// 1692         case 4: WRITE(E1_MS2_PIN, ms2); break;
// 1693       #endif
// 1694       #if HAS_E2_MICROSTEPS
// 1695         case 5: WRITE(E2_MS2_PIN, ms2); break;
// 1696       #endif
// 1697       #if HAS_E3_MICROSTEPS
// 1698         case 6: WRITE(E3_MS2_PIN, ms2); break;
// 1699       #endif
// 1700       #if HAS_E4_MICROSTEPS
// 1701         case 7: WRITE(E4_MS2_PIN, ms2); break;
// 1702       #endif
// 1703     }
// 1704   }
// 1705 
// 1706   void Stepper::microstep_mode(const uint8_t driver, const uint8_t stepping_mode) {
// 1707     switch (stepping_mode) {
// 1708       case 1: microstep_ms(driver, MICROSTEP1); break;
// 1709       case 2: microstep_ms(driver, MICROSTEP2); break;
// 1710       case 4: microstep_ms(driver, MICROSTEP4); break;
// 1711       case 8: microstep_ms(driver, MICROSTEP8); break;
// 1712       case 16: microstep_ms(driver, MICROSTEP16); break;
// 1713     }
// 1714   }
// 1715 
// 1716   void Stepper::microstep_readings() {
// 1717     SERIAL_PROTOCOLLNPGM("MS1,MS2 Pins");
// 1718     SERIAL_PROTOCOLPGM("X: ");
// 1719     SERIAL_PROTOCOL(READ(X_MS1_PIN));
// 1720     SERIAL_PROTOCOLLN(READ(X_MS2_PIN));
// 1721     #if HAS_Y_MICROSTEPS
// 1722       SERIAL_PROTOCOLPGM("Y: ");
// 1723       SERIAL_PROTOCOL(READ(Y_MS1_PIN));
// 1724       SERIAL_PROTOCOLLN(READ(Y_MS2_PIN));
// 1725     #endif
// 1726     #if HAS_Z_MICROSTEPS
// 1727       SERIAL_PROTOCOLPGM("Z: ");
// 1728       SERIAL_PROTOCOL(READ(Z_MS1_PIN));
// 1729       SERIAL_PROTOCOLLN(READ(Z_MS2_PIN));
// 1730     #endif
// 1731     #if HAS_E0_MICROSTEPS
// 1732       SERIAL_PROTOCOLPGM("E0: ");
// 1733       SERIAL_PROTOCOL(READ(E0_MS1_PIN));
// 1734       SERIAL_PROTOCOLLN(READ(E0_MS2_PIN));
// 1735     #endif
// 1736     #if HAS_E1_MICROSTEPS
// 1737       SERIAL_PROTOCOLPGM("E1: ");
// 1738       SERIAL_PROTOCOL(READ(E1_MS1_PIN));
// 1739       SERIAL_PROTOCOLLN(READ(E1_MS2_PIN));
// 1740     #endif
// 1741     #if HAS_E2_MICROSTEPS
// 1742       SERIAL_PROTOCOLPGM("E2: ");
// 1743       SERIAL_PROTOCOL(READ(E2_MS1_PIN));
// 1744       SERIAL_PROTOCOLLN(READ(E2_MS2_PIN));
// 1745     #endif
// 1746     #if HAS_E3_MICROSTEPS
// 1747       SERIAL_PROTOCOLPGM("E3: ");
// 1748       SERIAL_PROTOCOL(READ(E3_MS1_PIN));
// 1749       SERIAL_PROTOCOLLN(READ(E3_MS2_PIN));
// 1750     #endif
// 1751     #if HAS_E4_MICROSTEPS
// 1752       SERIAL_PROTOCOLPGM("E4: ");
// 1753       SERIAL_PROTOCOL(READ(E4_MS1_PIN));
// 1754       SERIAL_PROTOCOLLN(READ(E4_MS2_PIN));
// 1755     #endif
// 1756   }
// 1757 
// 1758 #endif // HAS_MICROSTEPS
// 
//     4 bytes in section .bss
//    81 bytes in section .data
//    17 bytes in section .rodata
// 4 244 bytes in section .text
// 
// 4 168 bytes of CODE  memory (+ 76 bytes shared)
//    16 bytes of CONST memory (+  1 byte  shared)
//    84 bytes of DATA  memory (+  1 byte  shared)
//
//Errors: none
//Warnings: 42
